ccopy_reg
_reconstructor
p0
(cgensim.corpora.dictionary
Dictionary
p1
c__builtin__
object
p2
Ntp3
Rp4
(dp5
S'num_docs'
p6
I800
sS'token2id'
p7
(dp8
V\u30bd\u30ea\u30e5\u30fc\u30b7\u30e7\u30f3
p9
I0
sV\u4e00\u8a00
p10
I1
sV\u6a21\u7d22
p11
I11
sV\u30ed\u30a4\u30bf\u30fc\u901a\u4fe1
p12
I4
sV\u30e2\u30d0\u30a4\u30eb
p13
I4000
sV\u51fa\u6765
p14
I5
sV\u9a12\u52d5
p15
I3922
sV\u30ce\u30ea
p16
I2350
sV\u514d\u75ab
p17
I8
sV\u6620\u50cf
p18
I3929
sV\u5916\u79d1
p19
I9
sV\u660e\u78ba
p20
I10
sV\u30df\u30cb
p21
I12
sV\u767a\u96fb
p22
I14
sV\u6599
p23
I15
sV\u62e0\u70b9
p24
I17
sV\u4f59\u88d5
p25
I18
sV\u30a4\u30bf\u30ea\u30a2
p26
I20
sV\u767a\u899a
p27
I4661
sV\u5b87\u8cc0\u795e
p28
I21
sV\u53b3\u9078
p29
I22
sV\u624b\u9806
p30
I3338
sV\u56fd\u9023
p31
I2570
sV\u897f\u65e5\u672c
p32
I23
sV\u9b54\u6cd5
p33
I24
sV\u65e5\u672c\u4eba
p34
I26
sV\u6765\u65e5
p35
I2355
sV\u592a\u90ce
p36
I27
sV\u30aa\u30ec\u30f3\u30b8
p37
I28
sV\u6210\u5206
p38
I29
sV\u30df\u30ea
p39
I30
sV\u76ee\u5370
p40
I32
sV\u4e8b\u52d9
p41
I33
sV\u985e
p42
I3110
sV\u598a\u5a20
p43
I35
sV\u30c7\u30b6\u30a4\u30ca\u30fc
p44
I36
sV\u30a4\u30f3\u30d5\u30e9
p45
I1550
sV@
p46
I39
sV\uff18\u6708
p47
I40
sV\u9055\u548c\u611f
p48
I41
sV\u8ac7
p49
I42
sV-\u300d
p50
I43
sV\u4fe1\u7528
p51
I44
sV\u306c\u3044\u3050\u308b\u307f
p52
I46
sV\u5efa\u9020
p53
I47
sV\u53f3\u8155
p54
I48
sV\u9632\u885b
p55
I49
sV\u30e8\u30fc\u30b0\u30eb\u30c8
p56
I50
sV\u6b63\u5e38
p57
I51
sV\u5348\u5f8c
p58
I53
sV\u5927\u7d71\u9818
p59
I54
sV\u5371\u967a
p60
I3726
sV\u5411\u4e95
p61
I56
sV\u30df\u30b9
p62
I340
sV\u967d
p63
I3820
sV\u9806\u4f4d
p64
I2328
sV\u7f6a
p65
I59
sV\u30b4\u30fc\u30eb\u30c9
p66
I60
sV\u30ab\u30ec\u30f3\u30c0\u30fc
p67
I61
sV000
p68
I3176
sV\u7c89\u672b
p69
I62
sV\u7a0e\u8fbc\u307f
p70
I1557
sV\u30af\u30aa\u30ea\u30c6\u30a3
p71
I64
sV\u5f53\u6642
p72
I65
sV\u533a\u9593
p73
I3939
sV\u5fb9\u5e95
p74
I66
sV\u7403\u5834
p75
I67
sV\u5e83\u544a
p76
I428
sV\u30ca\u30b7
p77
I3114
sV\u614b\u5ea6
p78
I70
sV\u81ea\u6bba
p79
I71
sV\u8ad6\u6587
p80
I72
sV\u500b
p81
I73
sV\u4e21\u89aa
p82
I74
sV\u30bb\u30ec\u30d6
p83
I3942
sV\u6b8b\u696d
p84
I77
sV\u30a2\u30f3\u30b1\u30fc\u30c8
p85
I78
sV\u5927\u6226
p86
I79
sV\uff15
p87
I80
sV\u7528\u9014
p88
I889
sV\u30d7\u30ea\u30f3
p89
I3624
sV\u679a
p90
I83
sV\u59d4\u54e1
p91
I84
sV\u5168\u529b
p92
I85
sV\u5b9f\u65bd
p93
I3828
sV\u8272\u3068\u308a\u3069\u308a
p94
I87
sV\u7523\u696d
p95
I88
sV\u307f\u306a\u3055\u3093
p96
I89
sV\u6d88\u9632
p97
I90
sV\u50be\u5411
p98
I91
sV+
p99
I92
sVpsvr
p100
I93
sV\u6210\u529f
p101
I94
sV\u4e8b\u524d
p102
I95
sV\u99c6\u4f7f
p103
I96
sV\u5fa9\u8208
p104
I97
sV\u56db\u6761
p105
I98
sV\u30ad\u30e3\u30ea\u30a2
p106
I99
sVnew
p107
I100
sVnet
p108
I101
sV\u61f8\u5ff5
p109
I2365
sV\u4ef2\u826f\u3057
p110
I641
sV\u30b7\u30fc\u30c8
p111
I104
sV\u30b7\u30fc\u30c9
p112
I105
sV\u30d5\u30fc\u30c9
p113
I106
sV\u3042\u306a\u305f
p114
I2779
sV\u5165\u529b
p115
I107
sV\u30c1\u30a7\u30fc\u30f3
p116
I108
sV\u904b
p117
I109
sV\u4e21\u56fd
p118
I4721
sV1800
p119
I110
sV\uff11\u6708
p120
I3797
sV\u30e2\u30cb\u30bf\u30fc
p121
I111
sV\u30dc\u30ae\u30fc
p122
I112
sV\u5927\u3052\u3055
p123
I2368
sV\u7279\u88fd
p124
I114
sV100
p125
I116
sV\u30b3\u30fc\u30d2\u30fc
p126
I1567
sV\u98df\u5802
p127
I118
sV104
p128
I119
sV\u30c0\u30a4\u30a8\u30c3\u30c8
p129
I120
sV\u3046\u3069\u3093
p130
I121
sV\u898b\u901a\u3057
p131
I122
sVk
p132
I123
sV\u65b9\u3005
p133
I124
sV\u30c0\u30a6\u30f3\u30ed\u30fc\u30c9
p134
I125
sV\u4e2d\u8eab
p135
I126
sV\u672c\u7269
p136
I127
sVitunes
p137
I128
sVcredit
p138
I129
sV\u21d2
p139
I3952
sV\u6ef4
p140
I131
sV\u640d\u5931
p141
I3953
sV\u30b7\u30fc\u30f3
p142
I135
sV\u771f\u5263
p143
I136
sV\u30ca\u30f3\u30d0\u30fc
p144
I137
sV\u30ce\u30fc\u30d9\u30eb
p145
I138
sV\u4eba\u4f53
p146
I139
sV\u7ffb\u8a33
p147
I140
sV\u9752\u5c71
p148
I142
sV\u9a5a\u304d
p149
I2738
sV\u4e0a
p150
I143
sV\u6211\u6162
p151
I3755
sV\u6b21\u7b2c
p152
I144
sV\u300c(
p153
I145
sV\u719f\u6210
p154
I925
sV\u30b0\u30c3\u30ba
p155
I4665
sV075
p156
I147
sV\u5e95
p157
I148
sV\uff14
p158
I149
sV\u30ab\u30d5\u30a7
p159
I150
sV\u30c8\u30a4\u30ec
p160
I151
sV050
p161
I152
sV\u7981\u6b62
p162
I154
sV\u5ba4\u5185
p163
I4644
sV\u30d1\u30fc\u30c6\u30a3
p164
I156
sV\u540c\u6c0f
p165
I157
sV\u4e16\u306e\u4e2d
p166
I158
sV\u5f80\u5fa9
p167
I159
sV\u4ea4\u6e09
p168
I4332
sV\u30ed\u30b1\u30c3\u30c8
p169
I160
sV\u9023\u7d9a
p170
I161
sV\u30b9\u30c8\u30ec\u30b9
p171
I162
sV\u30c8\u30e9\u30f3\u30d7
p172
I163
sVmusic
p173
I164
sVh
p174
I4171
sV\u6b63\u5f53
p175
I166
sV\u59bb
p176
I167
sV\u30df\u30b5\u30a4\u30eb
p177
I168
sV\u9ec4\u8272
p178
I169
sV\u9b3c
p179
I170
sV\u30d6\u30ed\u30b0
p180
I171
sV\u770c\u8b66
p181
I172
sV\u6709\u529b
p182
I173
sV\u751f\u59dc
p183
I174
sV\u30b5\u30c3\u30ab\u30fc
p184
I175
sV\u61b6\u6e2c
p185
I177
sV\u30a2\u30d5\u30bf\u30fc
p186
I178
sV\u7dcf\u52e2
p187
I179
sV99
p188
I180
sV\u65b9
p189
I2383
sV\u30a2\u30e1\u30ea\u30ab
p190
I182
sV\u30ad\u30e3\u30f3\u30da\u30fc\u30f3
p191
I183
sV\u306d\u3053
p192
I184
sV\u30d5\u30ed\u30a2
p193
I185
sV\u62e0\u51fa
p194
I186
sV90
p195
I187
sV93
p196
I188
sV92
p197
I189
sV\u30ac\u30c3\u30c4\u30ea
p198
I190
sV\u30b3\u30fc\u30c9
p199
I1580
sV\u6709\u52b9
p200
I192
sV1990
p201
I193
sVmf
p202
I194
sV\u30dc\u30d6\u30fb\u30c7\u30a3\u30e9\u30f3
p203
I1125
sV\u4ee5\u4e0b
p204
I196
sV\u4ee5\u4e0a
p205
I197
sVmm
p206
I198
sV\u30a4\u30fc\u30b0\u30eb
p207
I200
sV\u9577\u8c37\u5ddd
p208
I1583
sV\u4e3b\u8981
p209
I202
sV\u30b4\u30eb\u30d5
p210
I203
sV\u30e1\u30fc\u30eb
p211
I204
sV\u53f7
p212
I205
sV\u767a
p213
I206
sVmy
p214
I134
sV\u6fc3\u5ea6
p215
I899
sV\u305d\u308c\u306a\u308a
p216
I209
sV\u96c6\u7d50
p217
I210
sV\u30a2\u30fc\u30c8
p218
I212
sV\u30ab\u30c4
p219
I213
sV\u796d
p220
I3965
sVin
p221
I215
sV\u540d\u7269
p222
I216
sV550
p223
I217
sV\u570f
p224
I218
sV\u968a
p225
I3749
sV\u63a8\u5968
p226
I219
sV\u98a8\u666f
p227
I221
sV\uff5e\uff01
p228
I3140
sV\u30d0\u30bf\u30fc
p229
I4562
sV\u5404\u5e97
p230
I223
sV\u51fd\u9928
p231
I225
sV\u5bfe\u51e6
p232
I226
sV\u51a0
p233
I227
sV\u30ab\u30e1
p234
I228
sV\u30d1\u30fc\u30c8\u30ca\u30fc\u30b7\u30c3\u30d7
p235
I230
sV\u540d\u524d
p236
I231
sV\u5c31\u4efb
p237
I232
sV\u95a2\u9023
p238
I549
sV\u767a\u7740
p239
I234
sV\u307f\u304d
p240
I3241
sV\u30a4\u30e9\u30b9\u30c8
p241
I236
sV\u30ab\u30ec
p242
I237
sV\u30d7\u30ed\u30bb\u30b9
p243
I238
sV\u30c1\u30e3\u30ec\u30f3\u30b8
p244
I240
sV\u6575
p245
I241
sV\u7528\u54c1
p246
I242
sV\u5546\u5e97
p247
I1873
sV\u30ab\u30fc
p248
I2990
sV\u30b4\u30df
p249
I245
sV\u5c45\u4f4f
p250
I246
sV\u67c4
p251
I1536
sV\u8a50\u6b3a
p252
I248
sV\u9023\u7d61
p253
I249
sV\u4eca
p254
I250
sV\u540c\u70b9
p255
I4362
sV\u904e\u5ea6
p256
I251
sV\u30d7\u30ec\u30df\u30a2\u30e0
p257
I252
sV\u5144\u5f1f
p258
I253
sV\u5e55
p259
I254
sV\u7fd4
p260
I1309
sV\u751f\u6d3b
p261
I3149
sV\u524a\u6e1b
p262
I2390
sV\u8a18\u8005
p263
I258
sV\u8cde
p264
I259
sV\u6b21\u7bc0
p265
I260
sV\u7d50\u6210
p266
I261
sV\u610f\u898b
p267
I262
sV\u7b2c\u4e00\u6b69
p268
I263
sV\u78ba\u304b
p269
I264
sV\u5927\u9707\u707d
p270
I265
sV\u7dca\u5f35
p271
I266
sV\u30a8\u30f3\u30bf\u30fc\u30c6\u30a4\u30f3\u30e1\u30f3\u30c8
p272
I268
sV\u30b7\u30ea\u30b3\u30f3
p273
I269
sV\u676f
p274
I270
sV\u84ee
p275
I271
sV\u6709\u5229
p276
I272
sV\u5c0f\u3055\u3058
p277
I273
sV\u901a\u5e38
p278
I274
sV\u5148\u982d
p279
I275
sV\u5317\u897f
p280
I276
sV\u30ec\u30c7\u30a3\u30fc\u30b9
p281
I278
sV1000
p282
I1596
sV\u8a18\u61b6
p283
I279
sV\u8cac\u4efb
p284
I280
sV\u5149\u5b66
p285
I281
sV\u4e88\u5b9a
p286
I282
sV\u3042\u305f\u308a
p287
I283
sV\u643a\u5e2f
p288
I284
sV\u7279\u8a2d
p289
I285
sV\u5efa\u7269
p290
I286
sV\u5317\u6d77\u9053
p291
I287
sV\u30ac\u30f3\u30d0\u5927\u962a
p292
I288
sV\u898b\u305f\u76ee
p293
I2399
sV\u4e88\u7b97
p294
I291
sV\u5e97\u5185
p295
I3741
sV\u4e3b\u5a66
p296
I2715
sV\u8868\u9762
p297
I2400
sV\u540c\u4f34
p298
I292
sV\u4ed8\u304d\u5408\u3044
p299
I293
sV\u4e2d\u56fd\u4eba
p300
I294
sVjapan
p301
I295
sV\u3044\u304b\u304c
p302
I296
sV\u88cf
p303
I4477
sV\u30b9\u30c8
p304
I4610
sV\u4ee3\u76ee
p305
I3975
sV\u305f\u307e
p306
I298
sV\u96a3
p307
I299
sV\u7a81\u5165
p308
I300
sVtwitter
p309
I4513
sV\u958b\u5e55
p310
I3777
sV\u7fa9
p311
I301
sV\u78ba\u7387
p312
I302
sV\u591c\u7a7a
p313
I303
sV,
p314
I304
sV\u30a4\u30f3\u30b9\u30c8\u30fc\u30eb
p315
I2405
sV\u5370\u8c61
p316
I307
sV\u6c34
p317
I308
sV\u5036\u697d\u90e8
p318
I309
sV400
p319
I310
sV\u30ca\u30a4\u30d5
p320
I311
sV\u305f\u3066
p321
I312
sV\u30c1\u30e7\u30b3\u30ec\u30fc\u30c8
p322
I4147
sV\u7d76\u8cdb
p323
I314
sV\u30dd\u30fc\u30c8
p324
I1600
sV\u305f\u3061
p325
I317
sV\u63a1\u629e
p326
I318
sV\u6240
p327
I319
sV\u65c5
p328
I320
sV\u6539\u9020
p329
I321
sV\u90fd\u5e02
p330
I322
sV\u91cd
p331
I323
sV\u69cb\u56f3
p332
I325
sV\u516c\u6f14
p333
I327
sV\u304a\u9001\u308a
p334
I328
sV\u3053\u306e\u9593
p335
I329
sV\u30b9\u30c6\u30fc\u30bf\u30b9
p336
I330
sV\u691c\u8a0e
p337
I331
sV\u8a8d\u8a3c
p338
I332
sV\u304a\u8179
p339
I4569
sV\u57fa\u5730
p340
I334
sV\u685c
p341
I2086
sV\u93e1
p342
I336
sV\u56e3
p343
I338
sV\u9162
p344
I339
sV\u65e5\u7a0b
p345
I58
sV\u9d8f\u8089
p346
I341
sV\u5b66
p347
I342
sV\u56de\u6570
p348
I343
sV\u691c\u8a3c
p349
I344
sV\u5f3e\u9053
p350
I345
sV\u8cbf\u6613
p351
I346
sVl
p352
I347
sV\u672c\u90e8
p353
I348
sV\u88ab\u9a13\u8005
p354
I349
sV\u6771\u5357\u30a2\u30b8\u30a2
p355
I350
sV\u8010\u4e45
p356
I351
sV\u30a4\u30b9\u30e9\u30e0\u6559
p357
I352
sV\u30ec\u30d9\u30eb
p358
I353
sV\u6280
p359
I354
sV\u663c\u5bdd
p360
I355
sV\u30d1\u30b9
p361
I356
sV\uff1a@
p362
I359
sV\u5143
p363
I3168
sV\u5947\u5999
p364
I361
sV\u7b11
p365
I363
sV\u5f01\u5f53
p366
I365
sV\u6240\u6301
p367
I3169
sV\u30f5\u6708
p368
I367
sV\u30a2\u30d7\u30ed\u30fc\u30c1
p369
I4064
sV\u5f18
p370
I1238
sV\u65b0\u578b
p371
I371
sV\u9999\u6e2f
p372
I375
sV\u30d1\u30fc\u30c4
p373
I1585
sV\u7121\u4e8b
p374
I377
sV\u30da\u30a2
p375
I379
sV\u30bf\u30a4\u30e0\u30a2\u30c3\u30d7
p376
I380
sV\u8ab0
p377
I381
sV\u30a8\u30c3\u30c1
p378
I13
sV\u304a\u524d
p379
I3217
sV\u5de6\u9685
p380
I383
sV\u30b9\u30a4\u30b9
p381
I4603
sV\u4ed5\u8349
p382
I1318
sV\u6025\u5897
p383
I385
sV\u90e8\u5206
p384
I386
sV\u6f14\u6280
p385
I387
sV\u30ea\u30fc\u30b0
p386
I2416
sV\u30a6\u30b1
p387
I389
sV\u30d1\u30f3
p388
I390
sV\u30ef\u30a4\u30f3
p389
I3173
sV\u5b9f\u7e3e
p390
I2795
sV\u662d\u548c
p391
I393
sV\u8d77\u696d
p392
I394
sV\u30d1\u30fc
p393
I395
sV\u5909\u5316
p394
I397
sV\u5168\u90e8
p395
I398
sV\u79d2
p396
I399
sV\u30eb\u30fc\u30e0
p397
I400
sV\u4e0d\u502b
p398
I401
sV\u7c21\u5358
p399
I402
sV\u30de\u30a6\u30f3\u30c9
p400
I403
sV\u30d1\u30ea
p401
I405
sV\u53f8\u4f1a
p402
I3127
sV\u958b\u653e
p403
I406
sV\u30eb\u30fc\u30eb
p404
I407
sV\u30d1\u30d1
p405
I408
sV\u6db2\u6676
p406
I409
sV\u5bb9\u91cf
p407
I3990
sV\u5f69
p408
I412
sV\u63a5\u8fd1
p409
I413
sV\u6226
p410
I3991
sV\u88ab\u5bb3
p411
I414
sV\u4e73
p412
I416
sV\u9ed2
p413
I865
sV\u30bb\u30f3\u30c1
p414
I2717
sV\u7d4c\u9a13
p415
I419
sV\u7d99\u627f
p416
I420
sV\u53cb\u9054
p417
I421
sV\u6709\u7121
p418
I422
sV\u76f8
p419
I423
sV\u30eb\u30fc\u30c8
p420
I425
sV\u30da\u30f3
p421
I3295
sV\u5b8c\u74a7
p422
I427
sV\u6b7b\u53bb
p423
I429
sV\u30d4\u30c3\u30af\u30a2\u30c3\u30d7
p424
I1617
sV\u738b
p425
I431
sV\u30aa\u30cf\u30a4\u30aa
p426
I432
sV\u308d
p427
I433
sV\u7403
p428
I2423
sVnhk
p429
I435
sV\u51fa\u6c41
p430
I1618
sV\u76ae\u819a
p431
I438
sV\u7a0e\u8fbc
p432
I439
sV\u5bfe\u7b56
p433
I1619
sV\u9b45\u529b
p434
I441
sV\u30b3\u30f3\u30d3
p435
I3155
sV\u58ca\u6ec5
p436
I443
sV\u5c55\u89a7
p437
I444
sV\u6700\u4e2d
p438
I3995
sV170
p439
I445
sV\u5275\u8a2d
p440
I1621
sV\u30b5\u30dd\u30fc\u30c8
p441
I448
sV\u30ca\u30bf\u30ea\u30fc
p442
I449
sV\u7cd6
p443
I4406
sV\u30ed\u30d0\u30fc\u30c8
p444
I450
sV\u821e\u53f0
p445
I451
sV\u4e5d
p446
I452
sVtop
p447
I453
sV\u30e9\u30a4\u30f3\u30ca\u30c3\u30d7
p448
I2783
sV\u7740\u76ee
p449
I455
sV\u7537\u306e\u5b50
p450
I3997
sV\u30bf\u30fc\u30f3
p451
I1623
sV\u7531\u6765
p452
I459
sV\u5148\u7aef
p453
I460
sV\u5236
p454
I364
sV\u30c9\u30a4\u30c4
p455
I462
sV\u53cc\u65b9
p456
I3185
sV\u8a8d\u8b58
p457
I463
sV\u30d5\u30eb\u30fc\u30c4
p458
I464
sV\u30c8\u30c3\u30d4\u30f3\u30b0
p459
I465
sV\u30e1\u30e2\u30ea\u30fc
p460
I467
sV\u30ab\u30b8\u30e5\u30a2\u30eb
p461
I1625
sV\u63a2\u7d22
p462
I469
sV\u63d0\u643a
p463
I470
sV\u696d\u754c
p464
I471
sV\u5b50
p465
I473
sV\u6c7a\u610f
p466
I474
sV\u30a4\u30f3\u30bf\u30d3\u30e5\u30fc
p467
I475
sV\u932f\u899a
p468
I476
sV\u30d5\u30a1\u30df\u30ea\u30fc
p469
I477
sV\u8972\u6483
p470
I478
sV\u77ed\u671f\u9593
p471
I479
sV\u30aa\u30d5\u30a3\u30b7\u30e3\u30eb\u30b5\u30a4\u30c8
p472
I480
sV\u6bdb
p473
I481
sV\u5f79\u5272
p474
I482
sV\u610f\u6b32
p475
I31
sV\u63a8\u5b9a
p476
I485
sVtarget
p477
I486
sV\u7c73\u56fd
p478
I487
sV\u5a66
p479
I488
sV\u82e5\u8005
p480
I489
sV\u30a4\u30f3\u30bf\u30fc\u30cd\u30c3\u30c8
p481
I3635
sV\u30b9\u30bf\u30a4\u30eb
p482
I3190
sV\u98df\u6b32
p483
I3443
sV\u62cd\u624b
p484
I491
sV\u904b\u884c
p485
I492
sV\u30ef\u30f3\u30de\u30f3
p486
I1790
sV\u30d0\u30a4\u30a8\u30eb\u30f3
p487
I494
sV\u55ab\u8336
p488
I495
sV\u9632\u6b62
p489
I496
sV1600
p490
I497
sV\u30b9\u30b4\u30a4
p491
I499
sV\u305d\u3063\u3061
p492
I501
sV\u30dd\u30b9\u30c8
p493
I502
sV\u72b6\u614b
p494
I503
sV\u4e09
p495
I505
sV\u4e00\u898b
p496
I506
sV\u6311\u767a
p497
I507
sV\u500d
p498
I508
sV\u7a4d\u6975
p499
I509
sV\u968e
p500
I510
sV\u306f\u3061\u307f\u3064
p501
I511
sV\uff13
p502
I512
sV\u30db\u30eb\u30e2\u30f3
p503
I513
sV\u88fd\u9020
p504
I514
sV\u5834\u5408
p505
I515
sV\u5727\u5012\u7684
p506
I4623
sV\u30d6\u30fc\u30e0
p507
I516
sV\u708e\u75c7
p508
I517
sV\u30d1\u30fc\u30bb\u30f3\u30c8
p509
I518
sV\u30ad\u30c3\u30af
p510
I519
sV\u5f8c\u8005
p511
I520
sV\u304b\u307c\u3061\u3083
p512
I521
sV\u5927
p513
I522
sV\uff16
p514
I4446
sV\u4f1a\u898b
p515
I4006
sV\u5177\u5408
p516
I524
sV\u5e02\u5834
p517
I525
sV\u30c1\u30e3\u30f3\u30cd\u30eb
p518
I526
sV\u72b6
p519
I527
sV\u30de\u30cd\u30fc\u30b8\u30e3\u30fc
p520
I528
sV\u4eba\u6c17
p521
I529
sV\u4eba\u6c11
p522
I530
sV\u308f\u3051
p523
I934
sV\u4e16\u7d00
p524
I532
sV\u53d7\u7406
p525
I155
sV\u69d8\u3005
p526
I4323
sV\u8ca0\u62c5
p527
I4615
sV\u60a9\u307f
p528
I536
sV\u30ad\u30c3\u30c8
p529
I537
sV\u65e8\u5473
p530
I538
sV\u934b
p531
I539
sV\u30c6\u30e9\u30b9
p532
I562
sV\u5e74\u9593
p533
I541
sV\u6392\u51fa
p534
I3331
sV\u30b3\u30e9\u30dc
p535
I543
sV\u30bb\u30c3\u30c8\u30a2\u30c3\u30d7
p536
I544
sV\u65e9\u3081
p537
I545
sV\u30cf\u30f3\u30d0\u30fc\u30b0
p538
I546
sV\u5c55
p539
I547
sV\u30b7\u30fc\u30ba\u30f3
p540
I548
sV\u6170\u5b89
p541
I550
sV\u9806\u756a
p542
I3204
sV\u5f53\u65e5
p543
I552
sV\u30e1\u30ad\u30b7\u30b3
p544
I553
sV\u30a2\u30a4\u30c7\u30a2
p545
I555
sV\u30dd\u30b9\u30bf\u30fc
p546
I556
sV\u652f\u6301
p547
I3488
sV\u30eb\u30f4\u30a1\u30f3\u30ab\u30c3\u30d7
p548
I557
sV\u91ce\u5e02
p549
I558
sV\u83d3\u5b50
p550
I559
sVm
p551
I560
sV\u30d9\u30c3\u30c9
p552
I1641
sV\u60c5\u52e2
p553
I563
sV\u8a71
p554
I564
sV\u5e03\u56e3
p555
I565
sV\u767a\u751f
p556
I566
sV\u56fa\u5b9a
p557
I568
sV\u30cf\u30fc\u30c8
p558
I569
sV\u30cf\u30fc\u30c9
p559
I570
sV\u65c5\u5ba2
p560
I4674
sV\u4f7f\u3044
p561
I571
sV\u6b69\u9053
p562
I572
sV\u5b9f\u611f
p563
I573
sV\u5473\u899a
p564
I574
sV\u75c5\u6c17
p565
I4449
sV\u8003\u3048
p566
I576
sV\u7686\u3055\u3093
p567
I577
sV\u30cf\u30a4
p568
I3558
sV\u30b9\u30de\u30db
p569
I578
sV\u6708\u984d
p570
I1645
sV\u4f53\u5236
p571
I581
sV\u30b9\u30d4\u30fc\u30c9
p572
I582
sV\u30af\u30c3\u30ad\u30fc
p573
I2447
sV\u8eab\u4f53
p574
I584
sV\u5145\u5b9f
p575
I585
sV\u65e5\u672c\u8a9e
p576
I586
sV\u8ffd\u52a0
p577
I587
sV\u73fe\u8c61
p578
I589
sV\u7533\u3057\u8a33
p579
I590
sV\u904b\u8f38
p580
I591
sV\u4e7e\u71e5
p581
I592
sV\u8d70\u884c
p582
I593
sV\u9632\u6c34
p583
I594
sV\u5927\u5207
p584
I2448
sV\u7f8e\u5473
p585
I1648
sV\u30db\u30fc\u30e0
p586
I597
sV\u5ea7
p587
I598
sV\u30b9\u30c6\u30a3\u30c3\u30af
p588
I599
sV\u3084\u308a\u65b9
p589
I600
sV\u907a\u65cf
p590
I3748
sV\u72ec\u81ea
p591
I602
sV\u30db\u30fc\u30eb
p592
I604
sV\u6fc0
p593
I3375
sV\u30c9\u30ad\u30c9\u30ad
p594
I4421
sV\u6bb5
p595
I607
sV\u9069\u91cf
p596
I609
sV\u6b69\u304d
p597
I610
sV\u533a
p598
I611
sV\u7fbd
p599
I612
sV\u30b3\u30f3\u30c6\u30b9\u30c8
p600
I613
sV\u30de\u30f3\u30b7\u30e7\u30f3
p601
I614
sV\u99c5\u524d
p602
I615
sVipad
p603
I2932
sV\u5de6\u5074
p604
I617
sV\u30cb\u30e3\u30f3
p605
I3043
sVdf
p606
I619
sV\u6848
p607
I620
sV\u79d8\u5bc6
p608
I622
sV\u591a\u3081
p609
I623
sV\u7dd1
p610
I624
sV\u30a2\u30d4\u30fc\u30eb
p611
I625
sVamazon
p612
I626
sV12
p613
I1655
sV\u5b9f\u614b
p614
I628
sV\u65e5\u5e38
p615
I629
sV\u6df7\u4e71
p616
I630
sV\u5019\u88dc
p617
I2602
sV\u8ab0\u304b
p618
I631
sV\u5065\u5eb7
p619
I632
sV\u901a\u7b97
p620
I633
sVdr
p621
I634
sV\u902e\u6355
p622
I635
sV\u539f\u767a
p623
I1941
sV\u9762
p624
I637
sV\u5264
p625
I638
sV\u771f\u76f8
p626
I639
sV\u3042\u3093
p627
I4565
sV16
p628
I2414
sV\u7d50\u679c
p629
I642
sV\u7389\u306d\u304e
p630
I1129
sV\u77e5\u308a\u5408\u3044
p631
I3393
sV\u7761\u7720
p632
I3902
sV\u5f69\u308a
p633
I644
sV\u30e6\u30fc\u30e2\u30a2
p634
I2453
sV\u9078
p635
I647
sV\u7cfb
p636
I648
sV\u52e2\u529b
p637
I1667
sV\u30c7\u30d0\u30a4\u30b9
p638
I650
sV\u5996\u602a
p639
I651
sV\u30dd\u30c6\u30f3\u30b7\u30e3\u30eb
p640
I652
sV\u52c7\u6c17
p641
I653
sV\u8aad\u8005
p642
I654
sV\u69cb\u9020
p643
I656
sV\u6b8b\u5ff5
p644
I1493
sV\u4e07
p645
I658
sV\u76ee\u7389
p646
I659
sV\u30e9\u30f3
p647
I660
sV\u6e80\u8f09
p648
I661
sV\u4e57\u8eca
p649
I662
sV\u8eca\u4f53
p650
I663
sV\u5b66\u6821
p651
I664
sV\u8eab\u8fd1
p652
I665
sV\u6577\u5730
p653
I667
sV\u8098
p654
I668
sV\u8f1d
p655
I1222
sV\u4e9c
p656
I670
sV\u4e88\u7d04
p657
I671
sV\u4f5c\u5bb6
p658
I672
sV\u67d4\u8edf
p659
I673
sV\u6a5f\u80fd
p660
I674
sV01
p661
I675
sV06
p662
I676
sV07
p663
I677
sV04
p664
I678
sVabematv
p665
I4027
sV\u5929
p666
I680
sV\u305f\u3063\u3077\u308a
p667
I681
sV\u4f4f\u5b85
p668
I682
sV09
p669
I683
sV\u5929\u4e95
p670
I684
sV\u97f3
p671
I1856
sV\u30e9\u30d6
p672
I686
sV\u5eb6\u6c11
p673
I687
sV\u30d5\u30a3\u30f3\u30e9\u30f3\u30c9
p674
I2747
sV368
p675
I690
sV\u9577\u671f
p676
I692
sV\u5c3b
p677
I4162
sV\u6253\u7387
p678
I694
sV\u30c6\u30b9\u30c8
p679
I2092
sV360
p680
I696
sV\uff5e\u3001
p681
I4676
sV\u5302\u3044
p682
I698
sV\u5e79\u90e8
p683
I699
sV\u601d\u60d1
p684
I700
sV\u611f\u3058
p685
I701
sV\u5922\u4e2d
p686
I702
sV\u683c\u597d
p687
I703
sV\u3044\u305a\u308c
p688
I704
sVwi
p689
I705
sV\uff12\u3064
p690
I706
sV\u30ca\u30c3\u30c4
p691
I2756
sV\u8001\u8217
p692
I708
sV\u30c8\u30fc\u30b9\u30bf\u30fc
p693
I1670
sV\u4f53\u52e2
p694
I710
sV\u30c7\u30e2
p695
I4501
sV\u696d\u52d9
p696
I712
sV\u81ea\u4fe1
p697
I713
sV\u6a5f
p698
I714
sV\u30dd\u30b1\u30c3\u30c8
p699
I715
sV\u53c2\u6226
p700
I716
sV\u30b3\u30b7\u30e7\u30a6
p701
I717
sV\u4e0d\u53ef\u80fd
p702
I718
sV\u5de6
p703
I719
sV\u30a2\u30a4\u30b9
p704
I4035
sV\u306a\u3089\u3067\u306f
p705
I722
sV\u30a8\u30cd\u30eb\u30ae\u30fc
p706
I723
sV\u4e0b\u624b
p707
I3230
sV\u30b9\u30a4\u30fc\u30c4
p708
I725
sV\u4ea4\u901a
p709
I1591
sV\u8ff7\u60d1
p710
I727
sV\u65b9\u5411
p711
I728
sV\u6728\u3005
p712
I4038
sVcom
p713
I730
sV\u91ce\u5916
p714
I731
sV)\u300d
p715
I4627
sV\u3064\u3082\u308a
p716
I732
sV\u767e\u5408\u5b50
p717
I733
sV\u5931\u6557
p718
I734
sV\u81ea\u4e3b
p719
I735
sV\u80cc\u666f
p720
I737
sV\u30bd\u30d5\u30c8\u30a6\u30a7\u30a2
p721
I738
sV\u30b9\u30a4\u30c3\u30c1
p722
I739
sV\u7acb\u82b1
p723
I740
sV\u307b\u306e\u304b
p724
I742
sV\u6797
p725
I743
sV\u30a8\u30ea\u30a2
p726
I744
sV\u771f\u3093\u4e2d
p727
I1678
sV250
p728
I746
sV\u30c7\u30d3\u30e5\u30fc
p729
I748
sV\uff13\u3064
p730
I749
sV\u5404\u7a2e
p731
I750
sV\u90e8\u968a
p732
I751
sV\u8fb2\u5bb6
p733
I752
sV\u8107
p734
I1680
sV\u5b9a\u756a
p735
I755
sV\u30c6\u30cb\u30b9
p736
I3237
sV\u534a\u5e74
p737
I757
sV\u9928
p738
I758
sV\u767d\u661f
p739
I759
sV\u672c
p740
I760
sV\u516c\u8868
p741
I761
sVcc
p742
I4271
sV\u30aa\u30fc\u30d0\u30fc
p743
I4107
sV\u89b3
p744
I762
sV\u95b2\u89a7
p745
I763
sV\u5357\u7c73
p746
I764
sV\u4e5f
p747
I765
sV\u70b9
p748
I982
sV\u90e8\u9580
p749
I767
sV)\u3002
p750
I768
sV\u66f8
p751
I2767
sV\u56de\u6226
p752
I770
sV\u30ea\u30ea\u30fc\u30b9
p753
I4143
sV\u30cd\u30a4\u30de\u30fc\u30eb
p754
I772
sV\u8c46
p755
I773
sV\u7814\u7a76
p756
I774
sV\u3075\u305f\u308a
p757
I775
sV\u4f53\u80b2\u9928
p758
I776
sV\u30bd\u30cb\u30fc
p759
I777
sV\u65b0\u305f
p760
I779
sV\u5371\u6a5f
p761
I780
sV\u7a0e\u5225
p762
I4516
sV\u7d50
p763
I781
sV\u539f\u984c
p764
I782
sV\u30a4\u30b1\u30e1\u30f3
p765
I783
sV\u307c\u304f
p766
I784
sV\u5168\u9762
p767
I785
sV\u6c17\u5408
p768
I1685
sV160
p769
I787
sV\u4f5c
p770
I788
sV\u53f2\u4e0a
p771
I789
sV\u76e4
p772
I790
sV\u54e1
p773
I791
sV\u8c4a\u5bcc
p774
I1686
sV\u30d8\u30eb\u30b7\u30fc
p775
I793
sV\u9662
p776
I794
sV\u9650\u5b9a
p777
I795
sV\u30e4\u30c4
p778
I796
sV\u6700\u9069
p779
I797
sV\u30da\u30c3\u30c8
p780
I798
sV\u8fb2\u696d
p781
I3517
sV\u83ef
p782
I81
sV\u7af6\u4e89
p783
I3423
sV\u91d1\u6301\u3061
p784
I801
sV\u3069\u308c
p785
I802
sV\u30d7\u30ea\u30f3\u30c8
p786
I803
sV\u3069\u3082
p787
I805
sV\u7279\u6b8a
p788
I4628
sV\u7740\u7528
p789
I806
sV\u79fb\u7c4d
p790
I807
sV\u587e
p791
I808
sV\u7206\u7b11
p792
I809
sV\u652f\u914d
p793
I810
sV\u4ee3\u8868
p794
I811
sV\u798f\u5cf6
p795
I2641
sV\u642c\u9001
p796
I813
sV\u5185\u88c5
p797
I814
sVis
p798
I1813
sV\u6d88\u5316
p799
I817
sVit
p800
I818
sV\u8a3c\u5238
p801
I819
sV\u30bd\u30d5\u30a1
p802
I4360
sV\u8907\u6570
p803
I3964
sV\u7372\u5f97
p804
I3249
sV\u611b\u597d
p805
I820
sV\u53d6\u5f97
p806
I821
sV\u30b9\u30da\u30c3\u30af
p807
I822
sV\u63b2\u8f09
p808
I823
sV\u30a6\u30a9\u30f3
p809
I825
sV\u8a66\u9a13
p810
I826
sV\u5225
p811
I827
sV\u4ee3\u884c
p812
I829
sV\u8cb7\u53ce
p813
I830
sV\u3069\u3053
p814
I831
sV\u862d
p815
I832
sV\u6d77\u4e0a
p816
I833
sV\u571f\u5730
p817
I834
sV\u4e3b\u6d41
p818
I835
sV\u5951\u7d04
p819
I836
sV\u7121\u8996
p820
I837
sV\u4f1d\u8aac
p821
I838
sV\u4e0d\u5177\u5408
p822
I839
sV\u6771\u4eac
p823
I840
sV\u5fdc\u7528
p824
I841
sV\u901a\u884c\u4eba
p825
I842
sV\u904b\u8ee2
p826
I843
sV\u98a8\u8239
p827
I844
sV\u30e2\u30fc\u30c9
p828
I845
sV\u57f7\u884c
p829
I4298
sV\u7686\u69d8
p830
I846
sV\u76ee\u7684
p831
I848
sV\u90e8\u9577
p832
I849
sV\u30ec\u30b7\u30d4
p833
I850
sV\u90ce
p834
I851
sV\u6559\u4f1a
p835
I852
sV\u6d3b\u6027
p836
I853
sV\u5f15\u7528
p837
I854
sV\u30ad\u30ec\u30a4
p838
I4095
sV\u6765\u9031
p839
I855
sV\u591a\u5f69
p840
I1697
sV\u304a\u6c17\u306b\u5165\u308a
p841
I857
sV\u3054\u305f\u3048
p842
I858
sV\u5927\u3055\u3058
p843
I859
sV\u5869
p844
I861
sV\u5834\u9762
p845
I862
sV\u9aea
p846
I863
sV\u9054\u6210
p847
I691
sV\u5e73\u5e74
p848
I866
sV4000
p849
I4060
sV\u4ef2
p850
I868
sV\u4fdd\u7ba1
p851
I869
sV\u74f6
p852
I870
sV\u30c4\u30fc\u30eb
p853
I871
sV\u885d\u7a81
p854
I872
sVthe
p855
I873
sV800
p856
I874
sV\u7ffc
p857
I876
sV\u5fc5\u81f3
p858
I877
sV\u6052\u4f8b
p859
I878
sV\u30ac\u30fc\u30eb
p860
I879
sV\u30e1\u30fc\u30c8\u30eb
p861
I2887
sV\u5171\u6f14
p862
I881
sVphoto
p863
I882
sV\u4e0d\u53ef
p864
I883
sV\u30e1\u30c7\u30a3\u30a2
p865
I884
sV\u58f2\u308a\u4e0a\u3052
p866
I885
sV\u540c
p867
I886
sV\u30d7\u30e9\u30a4\u30c9
p868
I1704
sV\u7a93
p869
I888
sV\u624b\u66f8\u304d
p870
I2276
sV\u811a
p871
I3643
sV\u5f8c\u65b9
p872
I892
sVnote
p873
I1707
sV\u8cb7\u3044
p874
I894
sV\u5024
p875
I896
sV\u30bb\u30c3\u30af\u30b9
p876
I2415
sV\u5317\u4eac
p877
I898
sV300
p878
I3322
sV\u4f1a\u54e1
p879
I1229
sV\u5929\u6c17
p880
I900
sV\u4e01\u76ee
p881
I901
sV\u5404\u793e
p882
I902
sV\u6e80\u8db3
p883
I903
sV\u68df
p884
I905
sV\u6587\u7ae0
p885
I906
sV\u5238
p886
I907
sV\u30de\u30b9\u30bf\u30fc
p887
I908
sV\u8aad\u66f8
p888
I909
sV\u683c\u5b89
p889
I910
sV\u601d\u3044\u51fa
p890
I911
sV\u5f8c\u85e4
p891
I912
sV\u5f53\u5730
p892
I2498
sV\u30c8\u30c3\u30d7
p893
I913
sV\u611f\u52d5
p894
I914
sV\u63a5\u89e6
p895
I915
sV\u50cf
p896
I916
sV2006
p897
I4325
sV\u3048\u308a
p898
I918
sV\u8a66\u5408
p899
I1709
sV\u5b89\u500d
p900
I920
sV\u9854
p901
I921
sV\u7b4b\u8089
p902
I3528
sV\u898b\u65b9
p903
I924
sV\u30b9\u30ad\u30eb
p904
I1711
sV\u9593\u63a5
p905
I927
sV\u5354\u529b
p906
I960
sV\u30ed\u30c3\u30af
p907
I929
sV\u307f\u3093\u306a
p908
I930
sV59
p909
I931
sV58
p910
I932
sV\u6771\u6d77
p911
I933
sV\u5cf6
p912
I3541
sV\u3074\u3063\u305f\u308a
p913
I935
sV54
p914
I936
sV\u30af\u30e9\u30a4\u30de\u30c3\u30af\u30b9
p915
I937
sV56
p916
I938
sV51
p917
I939
sV50
p918
I940
sV53
p919
I962
sV\u8d05\u6ca2
p920
I942
sV\u904b\u55b6
p921
I4521
sV55
p922
I943
sV\u7a4f\u3084\u304b
p923
I944
sV\u5f97\u70b9
p924
I534
sV\u5211\u4e8b
p925
I948
sV\u624b\u5fdc\u3048
p926
I949
sV\u843d\u4e0b
p927
I950
sV\u30aa\u30b7\u30e3\u30ec
p928
I952
sV\u592a\u967d
p929
I953
sVwww
p930
I954
sV\u51fa\u767a
p931
I2503
sV\u707d\u5bb3
p932
I956
sV\u767a\u706b
p933
I1039
sV\u30b8\u30e5\u30fc\u30b9
p934
I3271
sV\u548c
p935
I959
sV\u5546\u54c1
p936
I1067
sV\u52b9\u7387
p937
I941
sV\u88cf\u5074
p938
I4242
sV\u4f7f\u7528
p939
I963
sV\u6e1b
p940
I965
sV52
p941
I966
sV\u539f\u5bbf
p942
I969
sV\u9577\u62bc
p943
I970
sVvs
p944
I4356
sVfor
p945
I971
sV\u9aa8
p946
I972
sV\u6db2\u4f53
p947
I1720
sV\u6b74\u53f2
p948
I974
sV\u9006\u8ee2
p949
I3276
sV\u6628\u4eca
p950
I975
sV\u8a33
p951
I976
sV\u6db2
p952
I977
sV\u6cd5\u5f8b
p953
I979
sV\u767a\u9054
p954
I1126
sV\u6b66\u88c5
p955
I4524
sV\u2661
p956
I3499
sV\u524d\u8ff0
p957
I4318
sV\u4f1a\u5408
p958
I984
sV\u7a0b\u5ea6
p959
I985
sV\u53c2\u8003
p960
I1253
sV\u984d
p961
I1722
sV\u6c7a\u6226
p962
I988
sV\u5305\u4e01
p963
I989
sV\u5b8c\u5168
p964
I990
sV\u5c0e\u5165
p965
I1723
sV\u6b63\u78ba
p966
I992
sV\u899a\u609f
p967
I993
sV\u30df\u30c3\u30b7\u30e7\u30f3
p968
I994
sV\u30c6\u30fc\u30de
p969
I995
sV\u30e1\u30f3\u30d0\u30fc
p970
I996
sVpost
p971
I997
sV\u5168\u54e1
p972
I998
sV\u59ff\u52e2
p973
I1328
sV\u5730\u4f4d
p974
I1334
sV\u672c\u8cea
p975
I4495
sV\u4f5c\u696d
p976
I3280
sV\u30a2\u30c9\u30d0\u30a4\u30b9
p977
I1004
sV\u30c1\u30a7\u30c3\u30af
p978
I1005
sV\u5f37\u529b
p979
I3281
sV\u540c\u793e
p980
I2926
sV\u767a\u9001
p981
I1007
sVo
p982
I1008
sV\u5d29\u58ca
p983
I1403
sV\u5224\u5b9a
p984
I1010
sV\u5c0f\u6797
p985
I1011
sV\u51fa
p986
I3013
sV\u30b3\u30fc\u30ca\u30fc
p987
I2782
sV\u5bfe
p988
I1014
sV\u30d8\u30c7\u30a3\u30f3\u30b0\u30b7\u30e5\u30fc\u30c8
p989
I1017
sV\u4f5c\u54c1
p990
I4052
sV\u30c9\u30e9\u30de
p991
I3441
sV\u751f\u5f92
p992
I1019
sV\u4eac\u90fd\u5927
p993
I1021
sV\u3047
p994
I2461
sV\uff10
p995
I1023
sV\u751f\u5f8c
p996
I1025
sV\u95a2\u6771
p997
I1026
sV\u305b\u3044
p998
I1028
sV\u8db3\u5143
p999
I1029
sV\u8f9b
p1000
I1030
sV\u30b9\u30dd\u30c3\u30c8
p1001
I1031
sV\u30b9\u30dd\u30fc\u30c4
p1002
I4087
sV\u6700\u521d
p1003
I1032
sV\u539f\u7a3f
p1004
I1033
sV\u65e5\u672c\u4e00
p1005
I1706
sV\u89e3\u91c8
p1006
I1035
sV\u30d1\u30f3\u30b1\u30fc\u30ad
p1007
I1036
sV\u7e26
p1008
I1037
sV\u305d\u3061\u3089
p1009
I1038
sV\u5e38\u8a2d
p1010
I3288
sV\u30db\u30fc\u30e0\u30da\u30fc\u30b8
p1011
I1041
sV\u30d0\u30fc\u30b8\u30e7\u30f3
p1012
I1042
sV\u5b89\u5168
p1013
I1043
sV\u53cb\u597d
p1014
I1730
sV\u5206
p1015
I3976
sV\u65b9\u91dd
p1016
I1045
sV\u5c71\u672c
p1017
I1046
sV\u5c11\u91cf
p1018
I1047
sVhappy
p1019
I1048
sV\u3042\u305d\u3053
p1020
I1049
sV\u306e\u308a
p1021
I1050
sV\u4e00\u6d41
p1022
I1051
sV\u6210\u9577
p1023
I1052
sV\u516c\u8a00
p1024
I1053
sV\u6027\u80fd
p1025
I1054
sV\u9053\u306e\u308a
p1026
I1055
sV\u754c
p1027
I1056
sV\u91cf
p1028
I1057
sV\u30d5\u30ec\u30f3\u30c1
p1029
I3609
sV\u81ea\u793e
p1030
I3686
sV\u66b4\u884c
p1031
I1058
sV\u3064\u3044\u3067
p1032
I1062
sV\u30bd\u30a6\u30eb
p1033
I3182
sV\u8981\u7d20
p1034
I1064
sV\u30b9\u30bf\u30b8\u30aa
p1035
I1065
sV\u30c8\u30e9\u30a4\u30a2\u30eb
p1036
I2520
sV\u6298\u308a\u8fd4\u3057
p1037
I1814
sV\u5165\u308a
p1038
I1820
sV\u50cd\u304d
p1039
I1068
sV\u304a\u8336
p1040
I1069
sV\u30d1\u30ef\u30fc
p1041
I1070
sV\u7e4a\u7d30
p1042
I1071
sV\u8b66\u5bdf
p1043
I1073
sVurl
p1044
I4096
sV\u629c\u7fa4
p1045
I1075
sV\u88fd\u54c1
p1046
I1076
sV\u4fbf
p1047
I2523
sV\u30d2\u30fc\u30eb
p1048
I1078
sV\u30d2\u30fc\u30c8\u30a2\u30c3\u30d7
p1049
I1079
sV\u5378
p1050
I1080
sV\u30e1\u30c3\u30bb\u30fc\u30b8
p1051
I1081
sV\u56fd\u7c4d
p1052
I4428
sV\u30db\u30c3\u30c8
p1053
I1082
sV\u59ff
p1054
I1083
sV\u30e9\u30d5\u30a3\u30fc\u30cb\u30e3
p1055
I1084
sV\u6587\u5b57
p1056
I1085
sV150
p1057
I1086
sV\u653e\u9001
p1058
I3713
sVup
p1059
I3416
sV\u65b9\u9762
p1060
I1088
sV\u540d
p1061
I1089
sV\u906d\u9047
p1062
I1090
sV\u30a2\u30ea
p1063
I1091
sV\u30a2\u30eb
p1064
I1092
sV\u30de\u30b0\u30ed
p1065
I1093
sV\u64ae\u5f71
p1066
I3494
sV\u7c92
p1067
I1094
sV\u4f50\u85e4
p1068
I4123
sV\u30cd\u30b3
p1069
I1096
sV\u30a2\u30f3
p1070
I1097
sV\u5730\u4e0a
p1071
I1098
sV\u5730\u4e0b
p1072
I1099
sV\u30cd\u30bf
p1073
I1100
sV\u677e\u6d66
p1074
I1102
sV\u8a9e
p1075
I1103
sV\u30b9\u30da\u30fc\u30b9
p1076
I1742
sV\u30d5\u30ea\u30fc\u30e9\u30a4\u30bf\u30fc
p1077
I1105
sV\u73fe\u4ee3
p1078
I1106
sV\u5f79\u54e1
p1079
I1107
sV\u5357\u30b7\u30ca\u6d77
p1080
I1109
sV\u306e\u3061
p1081
I1110
sV\u672b
p1082
I1111
sV\u85ac
p1083
I1112
sVng
p1084
I1113
sV\u6587\u5b66
p1085
I1114
sV\u30a2\u30af\u30bb\u30f3\u30c8
p1086
I1115
sV\u7537
p1087
I1116
sV\u9f3b
p1088
I1117
sV\u70ba
p1089
I1118
sV\u571f\u7523
p1090
I1119
sV\u4f53\u5185
p1091
I1120
sV\u907a\u4f53
p1092
I1121
sV\u30d6\u30c1
p1093
I1122
sV\u5de6\u53f3
p1094
I1123
sV\u4ef2\u9593
p1095
I1124
sV\u4e0d\u5229
p1096
I1127
sV\u300d(
p1097
I1128
sV\u6771\u65e5\u672c
p1098
I2530
sV\u904b\u7528
p1099
I4438
sV\u61f2\u5f79
p1100
I4459
sV\u6709\u540d
p1101
I1131
sV\u6557
p1102
I1133
sV\u521d\u65ec
p1103
I1134
sV\u74b0\u5883
p1104
I4652
sV\u6c11\u9032\u515a
p1105
I1135
sV\u5e74\u5185
p1106
I1136
sV\u9577\u8c37\u90e8
p1107
I2230
sV\u30b3\u30f3\u30c8\u30ed\u30fc\u30eb
p1108
I1138
sV\u4fee\u5fa9
p1109
I1139
sV\u4e3b\u6f14
p1110
I1140
sV\u96ea
p1111
I4042
sV\u30c9\u30e9\u30a4\u30d0\u30fc
p1112
I1142
sV\u672c\u756a
p1113
I1143
sV\u65ec
p1114
I1144
sVdaily
p1115
I1145
sV\u7e4a\u7dad
p1116
I1146
sV\u6b73
p1117
I1147
sV\u9577
p1118
I1149
sV\u7279
p1119
I1150
sV\u53f8
p1120
I1151
sV\u4ed6\u56fd
p1121
I1152
sV\u9069\u5207
p1122
I1153
sV\u8868\u60c5
p1123
I1154
sV\u5b9a\u984d
p1124
I1155
sV\u5b88\u5099
p1125
I1156
sV\u53cd\u6620
p1126
I1157
sV\u81ea\u52d5\u7684
p1127
I1158
sV\u30b3\u30fc\u30c6\u30a3\u30f3\u30b0
p1128
I1159
sV\u4ee5\u6765
p1129
I1160
sV\u30b3\u30b9\u30c8
p1130
I4188
sV\u7279\u6025
p1131
I1161
sV\u6d41\u308c
p1132
I1162
sV\u5171\u611f
p1133
I1141
sV\u6307\u6458
p1134
I1164
sV\u9999\u308a
p1135
I4112
sV\u30d2\u30c3\u30c8
p1136
I1165
sV\u6d99
p1137
I1166
sV\u4f1a
p1138
I1168
sV\u770b\u677f
p1139
I1169
sV\u3042\u307e\u308a
p1140
I1170
sV\u5473\u65b9
p1141
I1171
sVver
p1142
I1172
sV\u30ef\u30fc\u30eb\u30c9
p1143
I1173
sV\u58f2\u8cb7
p1144
I2473
sV\u795e\u5948\u5ddd
p1145
I1175
sV\u901a\u77e5
p1146
I1176
sV\u30ad\u30fc
p1147
I3106
sV\u8cc7\u6e90
p1148
I4115
sV\u98a8\u4fd7
p1149
I1178
sV\u4e00\u822c
p1150
I1179
sV\u304d\u308a
p1151
I1180
sV\u6ede\u5728
p1152
I1181
sV0
p1153
I1182
sV\u7d20\u6750
p1154
I1183
sV\u539a\u307f
p1155
I1184
sV\u9000\u5834
p1156
I1185
sV\u975e\u5e38
p1157
I4204
sV\u524a\u9664
p1158
I1187
sV\u6700\u4f4e\u9650
p1159
I1188
sV\u30bb\u30c3\u30b7\u30e7\u30f3
p1160
I741
sV\u696d\u7e3e
p1161
I1190
sV\u5e83\u5cf6
p1162
I2541
sV\u4ed6\u793e
p1163
I358
sV\u30c7\u30a3\u30ca\u30fc
p1164
I424
sVme
p1165
I1195
sV\u30a8\u30fc\u30b9
p1166
I1196
sV\u500b\u5225
p1167
I1197
sVrecipe
p1168
I1760
sVimages
p1169
I3444
sV\u98db\u884c\u6a5f
p1170
I1200
sV\u8a2d\u8a08
p1171
I1201
sV\u5927\u4eba
p1172
I1761
sV\u30ad\u30c3\u30c1\u30f3
p1173
I1203
sV\u5339
p1174
I1204
sV\u30b5\u30f3\u30d7\u30eb
p1175
I1205
sV\u67d4\u3089\u304b
p1176
I1206
sV\u4f11\u61a9
p1177
I1207
sV\u6b63\u5f0f
p1178
I195
sV\u3055\u304f\u3089
p1179
I1209
sV\u7247\u624b
p1180
I1210
sV\u597d\u8a55
p1181
I1212
sV\u52d5\u4f5c
p1182
I1213
sV\u4f53\u8abf
p1183
I4189
sV\u6e08\u307f
p1184
I1214
sV\u30cd\u30c3\u30c8
p1185
I1215
sV\u30f6\u6708
p1186
I1216
sV\u8208\u5473
p1187
I1217
sV\u30bd\u30fc\u30bb\u30fc\u30b8
p1188
I1218
sV\u85ac\u7269
p1189
I1219
sV\u5275\u696d
p1190
I1220
sVp
p1191
I1221
sV\u610f\u601d
p1192
I2608
sV\u57fa
p1193
I1224
sV\u51fa\u6f14
p1194
I1225
sV\u6226\u4e89
p1195
I1226
sV\u8efd\u91cf
p1196
I2007
sV\u30b7\u30e5\u30ac\u30fc
p1197
I1228
sV\u304d\u3063\u304b\u3051
p1198
I1230
sV\u52df\u91d1
p1199
I3979
sV\u5c11\u5e74
p1200
I2789
sV\u8b1b\u6f14
p1201
I1233
sV\u597d\u8abf
p1202
I1234
sV\u7d76\u666f
p1203
I1235
sV\u305d\u306e\u3082\u306e
p1204
I1237
sV\u98a8\u6f6e
p1205
I1239
sVuk
p1206
I3422
sV\u8996
p1207
I1241
sV\u96d1\u8ca8
p1208
I1242
sV\u6d41\u901a
p1209
I1243
sV\u629c
p1210
I1244
sV\u661f
p1211
I1245
sV\u6b63\u76f4
p1212
I1246
sV\u9921
p1213
I1247
sV\u5ba2
p1214
I567
sV\u7d4c\u904e
p1215
I1251
sV\u30c8\u30f3
p1216
I1252
sV\u9707\u6e90
p1217
I986
sV\u8aac
p1218
I1255
sV\u6e2f
p1219
I1256
sV\u30d6\u30e9\u30a6\u30b6\u30fc
p1220
I2516
sV\u55ab\u8336\u5e97
p1221
I1258
sV\u8a2a\u554f
p1222
I1259
sV\u304a\u83d3\u5b50
p1223
I1260
sV\u30cd\u30d1\u30fc\u30eb
p1224
I1261
sV\u65e5\u672c\u30cf\u30e0
p1225
I1262
sV\u30c8\u30ed
p1226
I1263
sV\u4fc3\u9032
p1227
I1264
sV\u5411\u3051
p1228
I4526
sV\u91d1\u878d
p1229
I1265
sV\u6c38\u9060
p1230
I3323
sV\u5e74\u672b
p1231
I1267
sV\u9ad8\u6a4b
p1232
I267
sV\u304a\u4f1d\u3048
p1233
I1269
sV\u540c\u65e5
p1234
I1270
sV\u7dcf\u52d9
p1235
I1271
sV\u77f3\u5ddd
p1236
I1272
sV\u63a8\u9032
p1237
I1273
sV\u8cde\u91d1
p1238
I1274
sV\u6c11\u4e3b
p1239
I1275
sV\u5acc
p1240
I1276
sV\u30bf\u30b0
p1241
I1277
sV\u30dc\u30fc\u30eb
p1242
I1278
sV\u30de\u30eb\u30c1
p1243
I1279
sV\u30d6\u30f3\u30c7\u30b9\u30ea\u30fc\u30ac
p1244
I1280
sVmenjoy
p1245
I1281
sV\u96c6\u5408
p1246
I1282
sV\u66ab\u5b9a
p1247
I1283
sV[
p1248
I1284
sV\u30bf\u30a4
p1249
I1285
sV\u58f0\u660e
p1250
I1286
sV\u30a2\u30ab\u30a6\u30f3\u30c8
p1251
I1287
sV\u6fa4\u7530
p1252
I1288
sV\u9bae\u3084\u304b
p1253
I1289
sV\uff65
p1254
I1290
sV\u30dc\u30bf\u30f3
p1255
I4539
sV\u4e0a\u4f4d
p1256
I3329
sV\u671d\u6669
p1257
I207
sV\u7206\u767a
p1258
I1293
sV\u6e6f
p1259
I1294
sV\u30dc\u30fc\u30c9
p1260
I1295
sV\u30dc\u30fc\u30c8
p1261
I1296
sV\u30e8\u30fc\u30ed\u30c3\u30d1
p1262
I1297
sV\u91ce\u751f
p1263
I1298
sV\u5e74\u5ea6
p1264
I1299
sV\u660e\u3051
p1265
I1300
sV\u8b66\u544a
p1266
I1301
sV\u4eba\u6750
p1267
I1302
sV\u30ab\u30ea\u30d5\u30a9\u30eb\u30cb\u30a2
p1268
I1303
sV\u5730\u65b9
p1269
I603
sV\u304d\u308c\u3044
p1270
I1307
sV\u904b\u822a
p1271
I1308
sV\u521d\u671f
p1272
I3245
sV\u30c9\u30ea\u30f3\u30af
p1273
I1310
sV\u9593
p1274
I1311
sV\u4e2d\u6751
p1275
I1312
sV\u6307\u6a19
p1276
I4486
sV\u7d71\u5408
p1277
I1313
sV\u9332\u753b
p1278
I1785
sV\u5f8c\u62bc\u3057
p1279
I1315
sV\u6c34\u9280
p1280
I1317
sV\u7d50\u8ad6
p1281
I1319
sV\u9280\u5ea7
p1282
I1320
sV\u9ad8\u6821\u751f
p1283
I1322
sV\u5916\u90e8
p1284
I1323
sV\u7528
p1285
I1324
sV\u30dc\u30a4\u30b9
p1286
I1325
sV\u304c\u3061
p1287
I1326
sV\u30a4\u30e1\u30fc\u30b8
p1288
I1327
sVlive
p1289
I1330
sViphone
p1290
I418
sVhttps
p1291
I1333
sV\u62b9\u8336
p1292
I1000
sV\u5e74\u9f62
p1293
I1335
sV\u88ab\u707d
p1294
I1336
sV\u5e7b\u60f3
p1295
I1337
sV\u6559\u6388
p1296
I1338
sV\u30b5\u30e9\u30c0
p1297
I3340
sVclub
p1298
I1340
sV\u79cb
p1299
I1341
sV\u30c0\u30a4\u30e4
p1300
I1342
sV\u885b\u661f
p1301
I1343
sV\u30d1
p1302
I1345
sV\u7121\u6570
p1303
I1346
sV\u7802\u7cd6
p1304
I1347
sV\u30ea\u30c3\u30d7
p1305
I3341
sV\u6838
p1306
I4139
sV\u30ec\u30d3\u30e5\u30fc
p1307
I1348
sV\u534a\u5206
p1308
I1349
sV\u4ed8\u8fd1
p1309
I1350
sV\u30aa\u30f3\u30e9\u30a4\u30f3
p1310
I1351
sV\u30bb\u30c3\u30c8
p1311
I3549
sV\u63da\u3052
p1312
I1353
sV\u304b\u6240
p1313
I1354
sV\u524d\u7bc0
p1314
I1355
sVtokyo
p1315
I1356
sV\u30a2\u30a4\u30b3\u30f3
p1316
I1357
sV\u30d9\u30eb\u30ea\u30f3
p1317
I1358
sVshutterstock
p1318
I1359
sV\u9060\u304f
p1319
I1361
sV\u30b1\u30bf
p1320
I1362
sVcat
p1321
I1363
sV\u624b\u8853
p1322
I1364
sV\u30dd\u30a4\u30f3\u30c8
p1323
I1365
sV\u30b1\u30a2
p1324
I1366
sV\u4e0a\u90e8
p1325
I1367
sV\u30b1\u30a4
p1326
I1321
sV\u64c1\u8b77
p1327
I1369
sV\u91ce\u83dc
p1328
I4462
sV\u5f3e
p1329
I1370
sV\u6e05\u6c34
p1330
I3911
sV\u30d7\u30ec\u30bc\u30f3\u30c8
p1331
I4144
sV\u4e8b\u5b9f
p1332
I1372
sV\u30b1\u30ac
p1333
I1373
sV\u8fd1\u304f
p1334
I1374
sV\u77ac\u9593
p1335
I2569
sV\u6e05
p1336
I1378
sV\u5148\u884c
p1337
I1379
sV\u8fb2\u5712
p1338
I983
sV\u5c40
p1339
I4145
sV\u5869\u5473
p1340
I1382
sV\u5f0f
p1341
I1384
sV\u652f\u6255\u3044
p1342
I1385
sV\u304a\u3082\u3061\u3083
p1343
I2571
sV\u9b5a
p1344
I4161
sV\u30bb\u30f3\u30bf\u30fc
p1345
I1387
sV\u9752\u679c
p1346
I3961
sV\u518d\u958b
p1347
I1389
sV\u30a2\u30fc\u30c6\u30a3\u30b9\u30c8
p1348
I1390
sV\u672a\u6765
p1349
I1391
sV\u6c34\u5206
p1350
I1392
sV\u611b
p1351
I484
sV\u6012\u308a
p1352
I3421
sV\u671f
p1353
I1396
sV\u6a19\u6e96
p1354
I1397
sV\u30b7\u30e7\u30fc\u30c8
p1355
I1398
sV\u7fa4
p1356
I1399
sV\u795e\u793e
p1357
I1400
sV\u884c\u304d
p1358
I1401
sV\u968e\u6bb5
p1359
I1402
sV\u5148\u8f29
p1360
I3351
sV\u8fb2\u4f5c\u7269
p1361
I1404
sV\u5584\u6210
p1362
I1405
sV\u7537\u5b50
p1363
I1406
sV\u7121\u6599
p1364
I1407
sVplus
p1365
I1408
sV\u9eba
p1366
I1409
sV\u30ac\u30e9\u30b9
p1367
I1410
sV140
p1368
I1412
sV\u51fa\u8eab
p1369
I1413
sV\u8449
p1370
I1414
sV\u7523
p1371
I1416
sV\u4e0a\u3052
p1372
I1417
sV\u30d0\u30a4\u30af
p1373
I1418
sVmac
p1374
I1420
sV\u54c1\u8cea
p1375
I4576
sVsns
p1376
I1421
sV\u65bd\u8a2d
p1377
I1422
sVmah
p1378
I1423
sV\u5207\u308c
p1379
I1424
sV\u5207\u308a
p1380
I1425
sV\u5b9f\u6cc1
p1381
I1426
sV\u30d2\u30fc\u30ed\u30fc
p1382
I1428
sV\u4e88\u9078
p1383
I1429
sV\u7cbe\u795e
p1384
I1431
sV\u5148\u9032
p1385
I1432
sV\u7f36
p1386
I3099
sV\u91ce\u7403
p1387
I1433
sV\u91d1\u66dc
p1388
I1434
sV\u672c\u4eba
p1389
I4142
sVq
p1390
I1435
sV\u30d3\u30fc\u30c1
p1391
I3949
sV\u30a6\u30a9\u30c3\u30c1
p1392
I1436
sV\u30b0\u30eb\u30fc\u30d7
p1393
I864
sV\u5b9f\u8cea
p1394
I1438
sV\u30b5\u30fc\u30d3\u30b9
p1395
I1439
sV\u5927\u81e3
p1396
I2908
sV\u30cf\u30f3\u30d6\u30eb\u30ac\u30fc
p1397
I1440
sV\u56de\u8ee2
p1398
I1441
sV\u7d76\u671b
p1399
I1442
sVsf
p1400
I1443
sV\u30d0\u30e9\u30f3\u30b9
p1401
I1808
sV\u898b\u89e3
p1402
I1445
sV\u30d7\u30ec\u30b9
p1403
I645
sV\u653b\u9632
p1404
I1715
sV\u30b9\u30bf\u30fc
p1405
I1447
sV\u6804\u990a
p1406
I1448
sV\u76e3\u4fee
p1407
I1449
sV\u52a0\u85e4
p1408
I1450
sV\u672c\u6587
p1409
I3358
sV\u30e9\u30a4\u30d0\u30eb
p1410
I1452
sV\u53f0\u6e7e
p1411
I1453
sV!?\u3000
p1412
I1809
sV\u6279\u5224
p1413
I1455
sV\u4e0d\u5feb
p1414
I1456
sV\uff0e
p1415
I442
sV\u5e97\u8217
p1416
I1458
sV\u7fcc\u5e74
p1417
I1459
sV\u540d\u79f0
p1418
I1460
sV\u7d20\u6575
p1419
I1461
sV\u76db\u308a\u4e0a\u304c\u308a
p1420
I1174
sV\u4e18
p1421
I1463
sV\u7406\u4e8b
p1422
I1465
sV\u30d7\u30ec\u30a4
p1423
I1466
sV\u89b3\u8846
p1424
I1467
sV\u30de\u30b9\u30af
p1425
I3360
sV\u90f5\u4fbf
p1426
I1469
sV\u5922
p1427
I1470
sV\u304b\u306a\u308a
p1428
I1472
sV\u30d7\u30ed
p1429
I1473
sV\u30d7\u30ec
p1430
I1474
sV\u30bd\u30d5\u30c8
p1431
I1475
sV\u540c\u6708
p1432
I1476
sV\u9806\u8abf
p1433
I1477
sV\u90fd\u5185
p1434
I1478
sV\u6025\u901f
p1435
I1479
sV\u78ba\u5b9f
p1436
I1480
sV\u6700\u5f37
p1437
I1481
sV\u78ba\u5b9a
p1438
I1482
sV\u30de\u30e8\u30cd\u30fc\u30ba
p1439
I1483
sV\u540c\u671f
p1440
I1484
sV\u578b
p1441
I1486
sV\u30d4\u30c3\u30c1
p1442
I981
sV\u65c5\u884c
p1443
I1488
sV\u96fb\u8a71
p1444
I1489
sV\u30d7\u30ec\u30fc
p1445
I1490
sV\u632f\u308a
p1446
I1491
sV\u97d3\u56fd
p1447
I1492
sV\u5bb6\u5ead
p1448
I1494
sV\u51fa\u8377
p1449
I1495
sV\u8a3c\u660e
p1450
I2587
sV\u3063\u3077\u308a
p1451
I1497
sV\u6ce8\u76ee
p1452
I1498
sV\u8cc7\u6599
p1453
I3364
sV\u524d\u58f2
p1454
I1500
sV\u9032\u884c
p1455
I1501
sV\u5927\u68ee
p1456
I1502
sV\u9589\u9396
p1457
I4709
sV\u81ea\u6162
p1458
I1503
sV\u5ee3
p1459
I1506
sVname
p1460
I457
sV\u51fa\u5165\u308a
p1461
I1509
sV\u5668
p1462
I1510
sV\u7570\u5e38
p1463
I1511
sV\u756a
p1464
I1512
sV\u7d04\u675f
p1465
I4316
sV\u97ff\u304d
p1466
I1513
sV\u9023\u76df
p1467
I1514
sV\u30c8\u30eb\u30b3
p1468
I1515
sV\u5e78
p1469
I1516
sV\u6559\u80b2
p1470
I1517
sV\u666e\u6bb5
p1471
I1518
sV\u5927\u52e2
p1472
I2398
sV\u4e03
p1473
I1519
sV\u306f\u3058\u3081
p1474
I4590
sV\u7a0b
p1475
I1521
sV\u6b63\u7fa9
p1476
I1522
sV\u30df\u30eb\u30af
p1477
I1523
sV\u5165\u308a\u53e3
p1478
I176
sV\u9078\u51fa
p1479
I1525
sV\u6295\u5165
p1480
I3369
sV\u6f14\u8aac
p1481
I1527
sV\u8cfc\u5165
p1482
I1528
sV\u30b3\u30fc\u30b9
p1483
I1530
sV\u624b\u6bb5
p1484
I1531
sV\u70cf\u4e38
p1485
I1532
sV\u3046\u3055\u304e
p1486
I1533
sV\u5bb6\u65cf
p1487
I4176
sV\u6bba\u5230
p1488
I1534
sV\u5bfe\u9762
p1489
I1383
sV\u30ad\u30e3\u30d9\u30c4
p1490
I3205
sV\u7591\u60d1
p1491
I1537
sV\u30a4\u30aa\u30f3
p1492
I1539
sV\u5831\u544a
p1493
I3372
sV\u53cd\u6483
p1494
I1541
sV\u5236\u8987
p1495
I1542
sV\u7279\u6280
p1496
I1543
sV\u9069\u5f53
p1497
I1544
sV\u6587\u5316\u8ca1
p1498
I2
sV\u5c45\u5834\u6240
p1499
I1547
sV\u5bfe\u7acb
p1500
I1548
sV\u30a2\u30d1\u30ec\u30eb
p1501
I1549
sV\u7d14\u7c8b
p1502
I37
sV\u98df\u7269
p1503
I1551
sV\u5bb6
p1504
I1552
sV\u56e3\u4f53
p1505
I1553
sV\u767a\u5c55
p1506
I1554
sV\u6295\u8cc7
p1507
I1555
sV\u8a31\u53ef
p1508
I63
sV\u624b\u7d9a\u304d
p1509
I1558
sV\u30d0\u30c8\u30eb
p1510
I1559
sV\u8eca
p1511
I1561
sV\u7121\u3057
p1512
I4180
sV\u30b3\u30fc\u30eb
p1513
I1563
sV\u624b\u5165\u308c
p1514
I3446
sV\u4e16\u754c
p1515
I1684
sV\u4e95\u4e0a
p1516
I1826
sV\u4e3b\u4eba\u516c
p1517
I1566
sV\u552f\u4e00
p1518
I117
sV\u9023\u767a
p1519
I1568
sV\u75db\u307f
p1520
I3017
sV\uff2a\uff32
p1521
I1569
sV\u653f\u6a29
p1522
I1570
sV\u77e5\u4eba
p1523
I1571
sV\u6b66\u5668
p1524
I1572
sV\u4ed8
p1525
I1573
sV\u4eba\u6570
p1526
I1574
sV\u30b3\u30fc\u30f3
p1527
I1575
sV\u53cb\u3060\u3061
p1528
I1577
sV\u76f4\u63a5
p1529
I1828
sV\u6c7a\u6e08
p1530
I1579
sV\u571f\u66dc\u65e5
p1531
I191
sV\u77e5\u4e8b
p1532
I1581
sV\u30b9\u30fc\u30d7
p1533
I1582
sV\u767a\u5c04
p1534
I201
sV\u96e8
p1535
I1584
sV\u30c6\u30ec\u30d3
p1536
I208
sV\u696d
p1537
I1586
sV\u62d2\u5426
p1538
I2600
sV\u30e6\u30cb\u30fc\u30af
p1539
I1588
sV\u5c0a\u656c
p1540
I1590
sV\u6297\u8b70
p1541
I4662
sV\u30d3\u30ad\u30cb
p1542
I504
sV\u751f\u7269
p1543
I247
sV\u5f79
p1544
I1593
sV\u30d5\u30a3\u30ea\u30d4\u30f3
p1545
I4383
sV\u30fc
p1546
I1595
sV\u8def\u7dda
p1547
I255
sV\u7af6\u5408
p1548
I3723
sV\u5206\u9593
p1549
I1597
sV\u5236\u5fa1
p1550
I4186
sV\u8336
p1551
I2663
sV\u30e2\u30c1\u30fc\u30d5
p1552
I316
sV\u6a5f\u4f53
p1553
I1602
sV\u6e1b\u5c11
p1554
I1833
sV\u9d8f
p1555
I1604
sVone
p1556
I1605
sV\u30b7\u30f3\u30d7\u30eb
p1557
I1606
sV\u6fc3\u539a
p1558
I1607
sV\u63aa\u7f6e
p1559
I1608
sV\u4ee3\u66ff
p1560
I1610
sV\u56fd\u969b
p1561
I3383
sV\u9078\u3073
p1562
I1611
sV\u809d
p1563
I1613
sV\u30a2\u30af\u30b7\u30e7\u30f3
p1564
I1614
sV\u8a66\u7b97
p1565
I4071
sV\u4e01\u5be7
p1566
I1615
sV\u30dd\u30fc\u30eb
p1567
I1616
sV\u30ea\u30ba\u30e0
p1568
I3918
sV\u534a\u3070
p1569
I430
sV\u30db\u30f3\u30c8
p1570
I436
sV\u60a3\u8005
p1571
I440
sV\u82b1
p1572
I447
sV\u30b0\u30e9\u30f3\u30d7\u30ea
p1573
I1622
sV\u884c\u52d5
p1574
I458
sV\u8996\u8074
p1575
I1624
sV\u30c9\u30e9\u30a4
p1576
I3511
sV\u53cc\u5b50
p1577
I468
sV\u5fa9\u5e30
p1578
I4192
sV\u4e0a\u6620
p1579
I4701
sVwhite
p1580
I1627
sV\u713c
p1581
I1628
sV\u611b\u72ac
p1582
I1629
sV\u30ea\u30a2\u30eb\u30bf\u30a4\u30e0
p1583
I1630
sV\u8061
p1584
I2610
sV\u304a\u304b\u3052
p1585
I3994
sV\u6a5f\u4f1a
p1586
I1632
sV\u53f0\u7121\u3057
p1587
I1634
sV\u3044\u3084
p1588
I1635
sV\u3044\u3082
p1589
I1636
sV\u5217\u8eca
p1590
I1637
sV\u9858\u3044
p1591
I1638
sV\u30b8\u30e3\u30c3\u30af
p1592
I1639
sV\u30d1\u30a4\u30d7
p1593
I1640
sV\u97d3
p1594
I561
sV\u4e16\u9593
p1595
I1612
sV\u62e1\u5f35
p1596
I1643
sV\u653e\u7f6e
p1597
I1644
sV\u91a4\u6cb9
p1598
I580
sV\u30a2\u30a4\u30eb\u30e9\u30f3\u30c9
p1599
I1646
sV\uff08@
p1600
I1647
sV\u8c5a
p1601
I1306
sV\u8d08\u308a\u7269
p1602
I1649
sV\u76f4\u6483
p1603
I1650
sV\u9069\u5ea6
p1604
I1651
sV11
p1605
I1652
sV\u30b3\u30f3\u30c6\u30f3\u30c4
p1606
I1653
sV\u6b21\u5143
p1607
I1654
sV\u6803\u6728
p1608
I627
sV\u9ce5
p1609
I82
sV14
p1610
I1657
sV\u81ea\u5bb6\u88fd
p1611
I1658
sV\u78ba\u7acb
p1612
I1659
sV19
p1613
I1660
sV18
p1614
I1661
sV\u4e21\u624b
p1615
I1662
sV\u5546\u793e
p1616
I1663
sV\u82f1
p1617
I1664
sV\u304b\u305f\u3061
p1618
I4359
sVr
p1619
I688
sV\u7a81\u7834
p1620
I1666
sV\u6e2c\u5b9a
p1621
I4128
sV\u3054\u306f\u3093
p1622
I1668
sV\u30dd\u30fc\u30ba
p1623
I1669
sV\u5f7c\u6c0f
p1624
I709
sV\u5229\u76ca
p1625
I4557
sV\u90fd
p1626
I1671
sV\u517c
p1627
I1672
sV\u6d3b\u8e8d
p1628
I726
sV\u767e
p1629
I1674
sVand
p1630
I1675
sV\u76db\u3093
p1631
I3394
sV\u82e6\u52b4
p1632
I745
sV\u5065\u5168
p1633
I1679
sV\u901a\u544a
p1634
I754
sV\u7740
p1635
I3395
sVpro
p1636
I769
sV\u51b7\u8535\u5eab
p1637
I4531
sV\u98df\u5353
p1638
I847
sV\u30a8\u30a2\u30b3\u30f3
p1639
I2488
sV\uff17\u6708
p1640
I786
sV\u5211
p1641
I792
sV\u976d\u5e2f
p1642
I4262
sV\u7537\u5973
p1643
I1687
sV\u679c\u6c41
p1644
I1688
sV\u9244\u9053
p1645
I1689
sV\u6765\u5e74
p1646
I1690
sV\u524d\u534a
p1647
I1691
sV\u4f1a\u671f
p1648
I1692
sV\u30d5\u30a1\u30fc\u30eb
p1649
I1693
sV\u30ea\u30b9\u30c8
p1650
I1694
sV\u8fd1\u5e74
p1651
I1695
sV\u77ed\u5927
p1652
I1696
sV\u5efa\u7bc9
p1653
I856
sV\u914d\u5e03
p1654
I1698
sV\u5165\u5c45
p1655
I1699
sV\u4e2d\u65ec
p1656
I1700
sV\u3044\u3064
p1657
I1701
sV\u51fa\u8cc7
p1658
I1702
sV\u30af\u30ec\u30b8\u30c3\u30c8\u30ab\u30fc\u30c9
p1659
I1703
sV\u751f\u30d3\u30fc\u30eb
p1660
I887
sV\u8ecd\u4e8b
p1661
I1705
sV\u4eae
p1662
I891
sV\u3044\u307e
p1663
I893
sV\u4ee3\u91d1
p1664
I4140
sVonline
p1665
I1708
sV\u672c\u793e
p1666
I919
sV\u30b3\u30da\u30f3\u30cf\u30fc\u30b2\u30f3
p1667
I922
sV\u533b
p1668
I926
sV\u9996\u90fd
p1669
I1712
sV\u9650\u754c
p1670
I1713
sV\u30ac\u30b9
p1671
I1714
sV200
p1672
I957
sV\u308f\u305f\u3057
p1673
I1716
sV\u5c0f\u8aac
p1674
I1717
sV\u3055\u307e\u3056\u307e
p1675
I1719
sV\u304a\u4f9b
p1676
I973
sV\u7b4b
p1677
I1721
sV\u5de6\u7ffc
p1678
I987
sV\u30b9\u30c6\u30fc\u30b8
p1679
I991
sV\u30b7\u30e3\u30ef\u30fc
p1680
I1724
sV\u30a2\u30c3\u30d7\u30c7\u30fc\u30c8
p1681
I1852
sV\u30af\u30ea\u30b9\u30de\u30b9
p1682
I1725
sV\u9867\u5ba2
p1683
I1726
sV\u5144
p1684
I3397
sV\u8ad6
p1685
I1727
sV]
p1686
I1728
sV]\uff08
p1687
I1729
sV\u30e9\u30a4\u30bf\u30fc
p1688
I1044
sV\u30a2\u30cb\u30e1
p1689
I1855
sV\u811a\u672c
p1690
I1732
sV\u7dcf\u984d
p1691
I1733
sV\u5354\u4f1a
p1692
I1734
sV\u30b9\u30de\u30fc\u30c8
p1693
I1735
sV\u79fb\u52d5
p1694
I1736
sV\u30ea\u30a2\u30af\u30b7\u30e7\u30f3
p1695
I1737
sV\u7ba1\u7406
p1696
I4208
sV\u5148\u5236
p1697
I1738
sV\u30d2\u30de\u30e9\u30e4\u5c71\u8108
p1698
I1739
sV\u7236
p1699
I1740
sV\u4ee3\u3005\u6728
p1700
I1741
sV\u521d\u65e5
p1701
I1104
sV\u884c\u5217
p1702
I1743
sV\u6298\u6238
p1703
I1744
sV\u30ac\u30f3
p1704
I1745
sV\u4e00\u81f4
p1705
I1746
sV\u8003\u3048\u65b9
p1706
I220
sV\u305d\u306e\u9593
p1707
I1748
sV\u30ab\u30ef\u30a4\u30a4
p1708
I1750
sV\u305f\u304f\u3055\u3093
p1709
I1751
sV\u539f\u56e0
p1710
I1752
sVshop
p1711
I1753
sV\u4e16\u754c\u4e2d
p1712
I1756
sV\u8c5a\u8089
p1713
I1757
sV\u30a6\u30a3\u30fc\u30af
p1714
I1758
sV\u5177\u4f53
p1715
I3659
sV\u7656
p1716
I3406
sV\u6210\u7e3e
p1717
I1199
sV\u9023\u90a6
p1718
I1202
sV\u30da\u30fc\u30d1\u30fc
p1719
I1859
sV\u4ef6\u6570
p1720
I1763
sV\u672c\u5e97
p1721
I1764
sV\u5712
p1722
I1765
sV\u4f11\u65e5
p1723
I1766
sV\u5ef6\u9577
p1724
I1767
sV\u6700\u591a
p1725
I1768
sV1300
p1726
I2628
sV\u679d
p1727
I1770
sVline
p1728
I3408
sV\u98df\u54c1
p1729
I1772
sV\u77ed\u6642\u9593
p1730
I1773
sV\u30d1\u30c3\u30b1\u30fc\u30b8
p1731
I1774
sV\u30b3\u30c1\u30e9
p1732
I1775
sV\u6982\u5ff5
p1733
I1776
sV\u96fb\u6c17
p1734
I1777
sV\u6700\u5927
p1735
I1778
sV\u30bf\u30a4\u30c8\u30eb
p1736
I1779
sV\u65e5\u66dc
p1737
I4215
sV\u4f53\u9a13
p1738
I1781
sV\u8b66\u5099
p1739
I1782
sV\u4eee\u9762
p1740
I1783
sV\u6728\u6751
p1741
I1305
sV\u306a\u3093
p1742
I1314
sV\u795d\u65e5
p1743
I1786
sV\u30d0\u30eb\u30bb\u30ed\u30ca
p1744
I1788
sV\u304a\u77e5\u3089\u305b
p1745
I1789
sV\u59b9
p1746
I277
sV\u30b5\u30a4\u30f3
p1747
I2427
sV\u5927\u4e8b
p1748
I1792
sV\u4e00\u6642
p1749
I1794
sV\u3064\u3070\u3055
p1750
I1795
sV\u653f\u6cbb
p1751
I1797
sV\u7b54\u3048
p1752
I4218
sV\u57f7\u7b46
p1753
I4203
sV\u8457\u540d
p1754
I1801
sV\u53e3
p1755
I1803
sV\u5473\u4ed8\u3051
p1756
I1805
sV\u9752
p1757
I1806
sV\u30ed\u30fc\u30b9\u30c8
p1758
I1807
sV\u8c61\u5fb4
p1759
I1444
sV\u79d1\u5b66
p1760
I1454
sV\u30a6\u30a3\u30fc\u30f3
p1761
I1810
sV\u6d3e\u9063
p1762
I1811
sV\u30d5\u30a9\u30fc\u30e9\u30e0
p1763
I1812
sV\u30c9\u30ea\u30d6\u30eb
p1764
I1815
sV\u57fa\u790e
p1765
I1816
sV\uff62
p1766
I141
sV\u8a73\u7d30
p1767
I1545
sV\u5468\u4f5c
p1768
I1819
sV\u30ad\u30e3\u30e9\u30af\u30bf\u30fc
p1769
I3412
sV\u5b9f\u696d
p1770
I1823
sV\u653e\u984c
p1771
I1824
sV\u4ea4\u969b
p1772
I1825
sV\u89b3\u6e2c
p1773
I1564
sV\u4f7f\u3044\u9053
p1774
I1578
sV\u5236\u4f5c
p1775
I1829
sV\u76e3\u8996
p1776
I1589
sV\u6050\u308c
p1777
I1831
sV\u5468\u8fba
p1778
I1832
sV\u30c7\u30f3\u30de\u30fc\u30af
p1779
I1603
sV\u9700\u8981
p1780
I1834
sV\u8b70\u8ad6
p1781
I1835
sV\u8907\u96d1
p1782
I1836
sV\u30c7\u30b8\u30bf\u30eb
p1783
I1837
sV\u76e3\u7763
p1784
I2709
sV\u4eca\u79cb
p1785
I2640
sV\uff0d
p1786
I1840
sV\u30b9\u30ad\u30e3\u30f3\u30c0\u30eb
p1787
I1841
sV\u6599\u7406
p1788
I2052
sV\u8db3\u7acb
p1789
I45
sV\u6551\u6025
p1790
I1845
sV\u533b\u85ac\u54c1
p1791
I1846
sV\u5f7c
p1792
I1847
sV\u4e21\u65b9
p1793
I1848
sV\u7dad\u6301
p1794
I1849
sV\u626e
p1795
I1850
sV\u671d
p1796
I1851
sV\u4fa1\u683c
p1797
I1231
sV\u5c45\u9152\u5c4b
p1798
I1853
sV\u8981\u56e0
p1799
I1854
sV\u751f\u30af\u30ea\u30fc\u30e0
p1800
I4586
sV\u30d5\u30a1\u30fc
p1801
I1731
sV\u53f3\u8db3
p1802
I1838
sV\u4fee\u6b63
p1803
I2775
sV\u30d5\u30a1\u30f3
p1804
I1060
sV\u6e05\u6b66
p1805
I1755
sV\u4eac
p1806
I1762
sV\u5d50
p1807
I1860
sV\u5ca1\u5d0e
p1808
I1861
sV\u3044\u3064\u304b
p1809
I1862
sV\u5149
p1810
I4230
sV\u8033
p1811
I1864
sV\u5b66\u8005
p1812
I1865
sV\u95a2\u5fc3
p1813
I4684
sV\u30c9\u30a2
p1814
I1866
sV\u5730
p1815
I4622
sV\u6d41
p1816
I1868
sV24
p1817
I2646
sV\u6843
p1818
I1870
sV\u5148\u751f
p1819
I1872
sV\u8ca7\u56f0
p1820
I1858
sV\uff16\u6708
p1821
I1863
sV\u5c4b
p1822
I1875
sVjp
p1823
I1877
sV26
p1824
I2648
sVjr
p1825
I1879
sV\u7551
p1826
I1880
sV\u96fb\u6ce2
p1827
I1881
sV\u9053
p1828
I1599
sV\u904e\u53bb
p1829
I1883
sV\u4eca\u6708
p1830
I1884
sV\u5ea6
p1831
I1885
sV\u69d8
p1832
I2032
sV\u306a\u306b
p1833
I1886
sV\u898f\u5236
p1834
I1887
sV\u691c\u7d22
p1835
I3120
sV\u5e73\u5747
p1836
I1888
sVja
p1837
I1889
sV\u6c34\u7740
p1838
I1890
sV\u6bce\u6708
p1839
I1891
sV\u751f\u547d
p1840
I1892
sVz
p1841
I1893
sV\u9577\u6642\u9593
p1842
I1894
sV\u5de5\u4e8b
p1843
I1895
sV\u8272\u3005
p1844
I1896
sV\u90e8
p1845
I1897
sV\u30c9\u30f3
p1846
I1898
sV23
p1847
I2222
sV\u30c6\u30ec\u30d3\u671d\u65e5
p1848
I1882
sV\u90e8\u5c4b
p1849
I1902
sVs
p1850
I1903
sV\u8cb4\u91cd
p1851
I1904
sV\u6bce\u671d
p1852
I1906
sV\u306a\u304b
p1853
I1907
sV\u30b7\u30e7\u30fc
p1854
I1909
sV\u5bb9\u6613
p1855
I1910
sV\u6b21\u56de
p1856
I1911
sV\u6b04
p1857
I1912
sV\u8089
p1858
I1913
sV\u88ab\u544a
p1859
I500
sV\u8a00\u52d5
p1860
I1915
sV\u5c0f\u6c60
p1861
I1917
sV60
p1862
I1918
sV61
p1863
I1919
sV62
p1864
I1920
sV\u30a2\u30a4\u30c9\u30eb
p1865
I1921
sV64
p1866
I1922
sV65
p1867
I1923
sV66
p1868
I1924
sV\u793e\u54e1
p1869
I1925
sV\u904e\u5270
p1870
I1926
sV69
p1871
I1927
sV\u30d5\u30a1\u30a6\u30eb
p1872
I1928
sV\u4e89\u3044
p1873
I1929
sV\u5ca1
p1874
I1930
sV\u7d20
p1875
I1931
sV\u8868\u8a18
p1876
I1932
sV\u6b63\u5348
p1877
I1933
sV\u58f0\u63f4
p1878
I1934
sV\u524d\u5f8c
p1879
I1935
sV\u30b7\u30e3\u30c4
p1880
I4533
sV\u9ad8\u4fa1
p1881
I804
sV\u30b5\u30fc\u30d5\u30a3\u30f3
p1882
I2661
sV\u52dd\u3061
p1883
I1940
sV\u4ee3\u308f\u308a
p1884
I1942
sV\u4e3b\u5f79
p1885
I3440
sV500
p1886
I1944
sV\u65e5\u66dc\u65e5
p1887
I1945
sV\u304a\u51fa\u304b\u3051
p1888
I1946
sV\u30cd\u30ae
p1889
I498
sV\u50b7
p1890
I1948
sV\u62e1\u5927
p1891
I1949
sV\u30b4\u30fc\u30eb
p1892
I1950
sV\u30d5\u30ec\u30c3\u30b7\u30e5
p1893
I2203
sV\u80cc\u4e2d
p1894
I1951
sV\u30eb\u30f4\u30a1\u30f3
p1895
I1952
sV\u793e\u9577
p1896
I1953
sV\u7d4c\u55b6
p1897
I1954
sVphotos
p1898
I1955
sV\u5b9f\u884c
p1899
I1956
sV\u8ca0\u50b7
p1900
I1957
sV\u30e2\u30a2\u30cf\u30d4
p1901
I1959
sV\u30af\u30ed\u30b9
p1902
I1960
sV\u5927\u8feb
p1903
I1961
sV\u4fe1\u983c
p1904
I1962
sV\u57ce
p1905
I2470
sV\u6f2c\u7269
p1906
I3655
sV\u753a
p1907
I1964
sV\u898b\u4e8b
p1908
I1965
sV\u30ea\u30fc\u30c0\u30fc
p1909
I1966
sV\u3053\u3057\u3087\u3046
p1910
I3977
sV\u30d0\u30fc\u30c7\u30a3\u30fc
p1911
I4729
sV\u683c
p1912
I2666
sV\u6570
p1913
I1969
sV\u653b\u3081
p1914
I1970
sV\u7406\u89e3
p1915
I1971
sV\u30de\u30ca\u30b9\u30eb
p1916
I1972
sV\u56fd\u738b
p1917
I2667
sV\u30d9\u30c6\u30e9\u30f3
p1918
I2533
sV\u7167\u660e
p1919
I1975
sV\u305f\u3060
p1920
I947
sV\u56fd
p1921
I1977
sV\u3084\u3064
p1922
I4251
sV\u30b1\u30fc\u30d6\u30eb
p1923
I1979
sV\u5e02\u6c11
p1924
I3448
sV\u6c17\u5206
p1925
I1980
sV\u8abf\u67fb
p1926
I1982
sV\u30ed\u30dc\u30c3\u30c8
p1927
I999
sV\u5fc5\u898b
p1928
I1984
sV\u30aa\u30fc\u30d6\u30f3
p1929
I1985
sV\u767a\u8a00
p1930
I4253
sV\u5145\u5206
p1931
I1988
sV\u5fc5\u8981
p1932
I1989
sV\u5f8c
p1933
I1990
sV\u304a\u795d\u3044
p1934
I1991
sV\u635c\u67fb
p1935
I1900
sV\u6a5f\u69cb
p1936
I1993
sV\u308f\u308a
p1937
I4105
sV\u307f\u3058\u3093\u5207\u308a
p1938
I1994
sV\u5348\u524d
p1939
I1995
sV\u8feb\u529b
p1940
I1996
sV\u5c65\u6b74
p1941
I1997
sV\u30da\u30fc\u30b8
p1942
I4048
sVascii
p1943
I1998
sV\u6628\u65e5
p1944
I1999
sV\u30cd\u30a4\u30eb
p1945
I2000
sV\u30ab\u30ca\u30c0
p1946
I2001
sV\u58f2\u308a\u5834
p1947
I2002
sV\u56fd\u6c11
p1948
I2003
sV\u5ba4
p1949
I2004
sV\u524d\u5411\u304d
p1950
I4419
sV\u4e2d\u83ef
p1951
I2006
sV\u7b46
p1952
I2674
sV\u5927\u4f1a
p1953
I2008
sV\u6383\u9664
p1954
I2009
sV\u8133
p1955
I2010
sVhtml
p1956
I2011
sV\u5f37
p1957
I2012
sV\u5fdc\u52df
p1958
I2013
sV\u9996\u76f8
p1959
I2014
sV\u30af\u30bb
p1960
I2015
sV\u753b
p1961
I2016
sV\u30b9\u30b3\u30a2
p1962
I3424
sV\u751f\u7523
p1963
I2017
sV\u7530\u4e2d
p1964
I2018
sV\u6c41
p1965
I2019
sV\u6d41\u51fa
p1966
I4700
sV\u30b9\u30da\u30b7\u30e3\u30eb
p1967
I2020
sV\u5175\u58eb
p1968
I4258
sV\u8a00\u53ca
p1969
I2022
sV\u8077\u696d
p1970
I2023
sV\u30b7\u30ea\u30fc\u30ba
p1971
I2679
sV\u4e88\u544a
p1972
I2026
sV\u5449\u5c4b
p1973
I2027
sV\u677e\u672c
p1974
I2028
sV\u672c\u5f53
p1975
I2029
sV\u30e2\u30f3\u30c8\u30ea\u30aa\u30fc\u30eb
p1976
I2030
sV\u8ab2\u984c
p1977
I2031
sV\u6765\u5834
p1978
I1001
sV\u30e1\u30fc\u30ab\u30fc
p1979
I2033
sV\u51fa\u7523
p1980
I2681
sV\u5e83\u5831
p1981
I2035
sV\u5927\u4f53
p1982
I2037
sV\u4e8b\u6545
p1983
I3460
sV\u5168\u8eab
p1984
I2039
sV\u653e\u68c4
p1985
I4261
sVno
p1986
I1430
sV\u30d6\u30e9\u30c3\u30af
p1987
I2043
sV\u30cb\u30fc\u30ba
p1988
I2044
sV\u68ee
p1989
I2045
sV\u66f2
p1990
I1063
sV\u6b53\u8fce
p1991
I2049
sV\u624b\u6cd5
p1992
I2050
sV\u7dcf\u7406
p1993
I2051
sV\u6bd4\u7387
p1994
I2053
sV\u5e83\u5834
p1995
I2054
sV\u30ef\u30f3
p1996
I2055
sV\u967d\u4ecb
p1997
I2056
sV\u30d1\u30bf\u30fc\u30f3
p1998
I2057
sV\u4e00
p1999
I2058
sV\u30e1\u30f3\u30bf\u30eb
p2000
I2059
sV77
p2001
I2060
sV\u30ab\u30e9\u30fc
p2002
I2061
sV\u547c\u5fdc
p2003
I4371
sV\u6bce\u65e5
p2004
I2062
sV\u968f\u6642
p2005
I2064
sV\u5fae\u5999
p2006
I2065
sV\u5e97\u540d
p2007
I4118
sV\u304a\u6bcd\u3055\u3093
p2008
I2066
sV\u81ea\u6c11\u515a
p2009
I2067
sV\u958b\u304d
p2010
I3465
sV\u6b4c\u58f0
p2011
I396
sV\u5171\u6709
p2012
I2070
sV\u51fa\u4f1a\u3044
p2013
I2072
sV\u767a\u58f2
p2014
I2073
sV\u611f\u899a
p2015
I4268
sV\u6176\u61c9\u7fa9\u587e
p2016
I2074
sV\u544a\u767d
p2017
I2075
sVdeath
p2018
I2076
sV\u5468\u56f2
p2019
I3171
sV\u663c\u9593
p2020
I2077
sV\u544a\u767a
p2021
I2078
sV\u512a\u4f4d
p2022
I2079
sV\u30ad\u30ed
p2023
I2080
sVmvno
p2024
I1427
sV\u8eab
p2025
I55
sV\u30b9\u30a6\u30a7\u30fc\u30c7\u30f3
p2026
I2083
sV\u304a\u8a71
p2027
I2084
sV\u8a71\u984c
p2028
I3897
sVblog
p2029
I2087
sV\u56f0\u96e3
p2030
I2088
sV\u5bfe\u6226
p2031
I2685
sV\u672d\u5e4c
p2032
I1914
sV\u4eca\u65e5
p2033
I2093
sV(@
p2034
I2094
sV\u5c71\u4e2d
p2035
I2095
sVlunatic
p2036
I3865
sV\u30b8\u30a7\u30c3\u30c8
p2037
I2097
sV\u30d9\u30fc\u30b3\u30f3
p2038
I946
sV\u5168\u7c73
p2039
I2099
sV\u8d8a\u3057
p2040
I2100
sV\u6642\u8a08
p2041
I2101
sV\u7f36\u8a70
p2042
I2102
sV\u30cf\u30c1\u30df\u30c4
p2043
I2103
sV\u89d2\u5ea6
p2044
I2104
sV\u9054
p2045
I2105
sV\u9152
p2046
I4423
sV\u5f37\u8abf
p2047
I895
sVworld
p2048
I880
sV\u30ec\u30bf\u30b9
p2049
I2108
sVwalk
p2050
I3793
sV\u30d0\u30c3\u30c6\u30ea\u30fc
p2051
I2110
sV\u7740\u5b9f
p2052
I2111
sV\u30c1\u30a7\u30eb\u30b7\u30fc
p2053
I2112
sV\u99d2\u4e95
p2054
I2113
sV\u7d62
p2055
I2114
sV\u9023\u5408
p2056
I2115
sV\u30d0\u30ca\u30ca
p2057
I2116
sV\u30cb\u30a2\u30b5\u30a4\u30c9
p2058
I2117
sV\u60aa\u5316
p2059
I2118
sV\u5a92\u4f53
p2060
I2119
sV\u4e0d\u5b89
p2061
I2120
sV\u524d\u5e74
p2062
I4573
sV\u7d30\u3084\u304b
p2063
I2122
sV\u30ab\u56fd
p2064
I1520
sV\u611b\u77e5
p2065
I1344
sV\u5b50\u4f9b
p2066
I2125
sV\u30b9\u30ab\u30fc\u30c8
p2067
I2126
sV\u591a\u69d8
p2068
I4278
sV\u96fb
p2069
I2128
sV2500
p2070
I2129
sV\u30ad\u30b9
p2071
I2130
sV\u9023\u52d5
p2072
I2131
sV3000
p2073
I2132
sV\u5927\u8c37
p2074
I2133
sV\u30cf\u30fc\u30c9\u30eb
p2075
I2134
sV\u30e1\u30e2
p2076
I2136
sV\u30b9\u30d4\u30fc\u30ab\u30fc
p2077
I2138
sV\u30b9\u30ca\u30c3\u30af
p2078
I2139
sV\u5343
p2079
I3480
sV\u6761\u306f
p2080
I2141
sV\u30b7\u30b9\u30c6\u30e0
p2081
I368
sV\u6c17
p2082
I2145
sV\u30d3\u30b8\u30cd\u30b9
p2083
I2146
sVid
p2084
I1936
sV\u30ec\u30b9\u30dd\u30f3\u30b9
p2085
I2148
sV\u30ea\u30a2
p2086
I2149
sV\u5927\u6c17
p2087
I2150
sV\u30e9\u30a6\u30f3\u30c9
p2088
I2151
sV\u30d1\u30b9\u30bf
p2089
I2152
sV\u96fb\u6e90
p2090
I2153
sV\u3081\u3061\u3083\u304f\u3061\u3083
p2091
I2154
sV\u5927\u80c6
p2092
I2155
sV\u30c7\u30fc\u30bf
p2093
I3484
sV\u8c4a\u6d32
p2094
I4334
sV\u65b0\u5bbf
p2095
I2157
sV\u70ad\u706b
p2096
I2158
sV\u56fd\u4f1a
p2097
I2159
sV\u7db2
p2098
I3310
sV\u9ad8\u6821
p2099
I2160
sV\u30de\u30b7\u30f3
p2100
I2161
sV\uff30\uff2b
p2101
I2162
sV\u82e5\u5e72
p2102
I4287
sV\u65b0\u9bae
p2103
I2164
sV\u96d1\u8a8c
p2104
I2165
sV\u5727\u529b
p2105
I2656
sV\u6751\u5c71
p2106
I2166
sV\u8a18\u4e8b
p2107
I2167
sV\u30c0\u30a6\u30f3
p2108
I2168
sVpower
p2109
I2169
sV\u8cb7\u3044\u7269
p2110
I2171
sV\u73fe\u6642\u70b9
p2111
I3533
sV\u304d\u306e\u3053
p2112
I2172
sV\u30b9\u30bf\u30fc\u30c8
p2113
I2173
sV\u55b6\u696d
p2114
I2174
sV\u6307\u91dd
p2115
I4348
sV\u30cf\u30c3\u30d4\u30fc
p2116
I4611
sV\u30b9\u30da\u30a4\u30f3
p2117
I2175
sV\u5165\u793e
p2118
I2176
sV\u5bfe\u8c61
p2119
I2177
sV\u306f\u305a
p2120
I2178
sV\u6c57
p2121
I2179
sV\u30e1\u30b9
p2122
I2180
sV\u5b50\u732b
p2123
I2181
sV_
p2124
I2183
sV\u3042\u3044\u3064
p2125
I2184
sV\u591a\u7a2e
p2126
I2185
sV\u672c\u80fd
p2127
I2702
sVok
p2128
I410
sV\u9577\u91ce
p2129
I2693
sVof
p2130
I2189
sV\u8db3
p2131
I2190
sV\u3053\u3063\u3061
p2132
I2191
sV\u8b66\u8996\u5e81
p2133
I2193
sV\u6771
p2134
I2194
sV\u80a9
p2135
I4291
sV\u96fb\u8eca
p2136
I2196
sVos
p2137
I2198
sVor
p2138
I2199
sV\u5206\u306e
p2139
I2200
sV\uff19\u6708
p2140
I2201
sV\u3057\u3087\u3046\u3086
p2141
I2202
sV\u722a
p2142
I1937
sV\u30c1\u30e3\u30f3\u30b9
p2143
I2204
sV\u30c7\u30a3\u30e9\u30f3
p2144
I2205
sV\u30dc\u30ea\u30e5\u30fc\u30e0
p2145
I2206
sV\u6a5f\u5668
p2146
I2208
sVimage
p2147
I2209
sV\u5e8f\u76e4
p2148
I392
sV\u9752\u68ee
p2149
I3141
sV\u798f
p2150
I2211
sV\u7a0e
p2151
I2212
sV\u30a8\u30eb
p2152
I2213
sV\u30de\u30b9\u30b3\u30df
p2153
I2214
sV\u30a8\u30ed
p2154
I605
sV\u7a93\u53e3
p2155
I2216
sV2000
p2156
I4289
sV\u8a55\u4fa1
p2157
I2218
sV\u821e
p2158
I2219
sV\u30b9\u30bf\u30f3\u30c9
p2159
I2220
sV\u30c1\u30e3\u30f3\u30d4\u30aa\u30f3\u30ba
p2160
I2221
sV\u30bc\u30ed
p2161
I3496
sV\u72af\u7f6a
p2162
I3685
sV\u9aea\u306e\u6bdb
p2163
I2225
sV\u30a8\u30d3
p2164
I2226
sV\u91b8\u9020
p2165
I4593
sV\u5408\u5531
p2166
I2227
sV!\u300f
p2167
I2229
sV\u30dc\u30b9
p2168
I3984
sV\u30b7\u30ef
p2169
I1987
sV\u6587\u53e5
p2170
I2232
sV\u30e9\u30f3\u30af
p2171
I2233
sV\u77e5\u8b58
p2172
I2234
sV\u63d0\u6848
p2173
I2235
sV\u4e0d\u53ef\u6b20
p2174
I2236
sV\u5916\u56fd
p2175
I2237
sV\u30b9\u30bf\u30f3\u30d7
p2176
I2238
sV\u4ec1
p2177
I2239
sV\u4f5c\u308a\u65b9
p2178
I2240
sV\u8a18\u8f09
p2179
I2241
sV\u30aa\u30fc\u30d7\u30f3
p2180
I2242
sV\u901a\u308a
p2181
I2243
sV\u30a8\u30b3
p2182
I2244
sV\u30a8\u30b5
p2183
I153
sV\u96d1
p2184
I2247
sV\u9326\u5ca1
p2185
I2248
sV\u99d0\u8eca
p2186
I3473
sV\u7834\u58ca
p2187
I923
sV\u7518\u5473
p2188
I2096
sV\u539f\u5247
p2189
I2252
sV\u6b63\u898f
p2190
I3502
sV\u30e9\u30f3\u30c1
p2191
I2254
sV\u5bb6\u96fb
p2192
I2255
sVwith
p2193
I2256
sV\u5206\u91ce
p2194
I2257
sV\u5206\u91cf
p2195
I2258
sV\u30b9\u30bf\u30e1\u30f3
p2196
I2259
sV\u969c\u5bb3
p2197
I2260
sV\u30dc\u30fc
p2198
I2261
sV\u3061\u308a
p2199
I601
sV\u3082\u3068
p2200
I2263
sV\u672c\u7de8
p2201
I2264
sV\u304b\u6708
p2202
I1784
sV\u4f9b\u7d66
p2203
I2266
sV\u548c\u83d3\u5b50
p2204
I2267
sV\u5411\u4e0a
p2205
I2268
sV\u7af9
p2206
I2269
sV\u5206\u3051
p2207
I3596
sV\u30a4\u30f3\u30bf\u30fc\u30ca\u30b7\u30e7\u30ca\u30eb
p2208
I2270
sV\u3053\u307c\u308c
p2209
I4265
sV\u52dd\u5229
p2210
I2271
sV\u6355\u7372
p2211
I2272
sV\u9ad8\u901f
p2212
I1787
sV\u7f8e\u8853\u9928
p2213
I2274
sV\u5fa9\u6d3b
p2214
I2275
sV600
p2215
I211
sV\u822a\u7a7a
p2216
I2277
sV\u5883\u754c
p2217
I2278
sV\u30ec\u30b9\u30c8\u30e9\u30f3
p2218
I2279
sV\u6027\u683c
p2219
I2280
sV1200
p2220
I2281
sV\u5354\u8b70
p2221
I2282
sV\u6539\u5584
p2222
I2283
sV\u4f01\u696d
p2223
I4117
sV\u8fd1\u96a3
p2224
I2284
sVau
p2225
I2286
sVat
p2226
I2287
sV\u611f\u5606
p2227
I736
sV\u3086\u3048
p2228
I4443
sV\u4f5c\u308a
p2229
I2290
sV\u30de\u30fc\u30af
p2230
I2291
sV\u5148\u767a
p2231
I3270
sV\u5bfe\u5fdc
p2232
I2294
sV\u30b7\u30f3\u30ac\u30dd\u30fc\u30eb
p2233
I2295
sV\u95a2\u4fc2
p2234
I2296
sV\u5f37\u5316
p2235
I2351
sV\u898b\u3069\u3053\u308d
p2236
I2046
sV\u30d0\u30e9\u30a8\u30c6\u30a3
p2237
I19
sV\u5e38\u8b58
p2238
I3512
sV\u751f\u5730
p2239
I2302
sV\u30bb\u30ec\u30af\u30c8
p2240
I4571
sV\u30cd\u30c3\u30c8\u30ef\u30fc\u30af
p2241
I2305
sV\u7126\u70b9
p2242
I4309
sV\u6307\u63ee
p2243
I2307
sVyou
p2244
I2308
sV\u4e00\u65b9
p2245
I2309
sV\u70ad\u9178
p2246
I2310
sV\uff15\u6708
p2247
I3515
sV\u6587\u5316
p2248
I2311
sV\u3053\u3060\u308f\u308a
p2249
I38
sV\u30b0\u30e9\u30bf\u30f3
p2250
I4310
sV\u4f53\u91cd
p2251
I2314
sV\u3057\u3087\u3046\u304c
p2252
I2315
sV\u5727\u5dfb
p2253
I4311
sV\u7c4d
p2254
I2317
sV\u8db3\u9996
p2255
I2318
sV\u8a66\u307f
p2256
I2319
sV\u6280\u8853
p2257
I2320
sV\u5168\u7de8
p2258
I2321
sV\u9ed2\u5b57
p2259
I2723
sV\u5468\u5e74
p2260
I4313
sV\u5fd7\u5411
p2261
I2324
sV\u4ed6
p2262
I2325
sV\u5165\u5834
p2263
I2326
sV\u6700\u9ad8
p2264
I437
sV\u30c1\u30e3\u30fc\u30b8
p2265
I4103
sV13
p2266
I2303
sV\u624b\u8efd
p2267
I2329
sV\u30b9\u30c6\u30c3\u30d7
p2268
I2330
sV\u7af6\u6280
p2269
I2331
sV\u5fe0
p2270
I2332
sV\u5287\u5834
p2271
I2333
sV\u4e0a\u9678
p2272
I2334
sV\u81ea\u899a
p2273
I2335
sV\u65b9\u5f0f
p2274
I2336
sV\u898f\u5b9a
p2275
I2337
sV\u7269
p2276
I2338
sV\u53cd\u767a
p2277
I2665
sV\u901a\u5831
p2278
I2340
sV\u662f\u975e
p2279
I4194
sV\u539a\u751f
p2280
I2082
sVu
p2281
I2344
sV\u30a2\u30df\u30e5\u30fc\u30ba\u30e1\u30f3\u30c8
p2282
I2345
sV\u30d1\u30bd\u30b3\u30f3
p2283
I2347
sV\u65e5\u9593
p2284
I2348
sV\u7269\u7406
p2285
I2349
sVall
p2286
I7
sV\u9078\u624b\u6a29
p2287
I2712
sV\u7a2e\u985e
p2288
I4319
sV\u3053
p2289
I2071
sV\u606f
p2290
I3374
sV\u3042\u3068
p2291
I4458
sV\u30ea\u30fc\u30c9
p2292
I2356
sV\u820c
p2293
I2357
sV\u5408\u8a08
p2294
I2359
sV\u4e0a\u304c\u308a
p2295
I2360
sV\u30ce\u30fc
p2296
I2361
sV\u5bae\u539f
p2297
I2362
sV\u884c\u70ba
p2298
I4036
sV\u5192\u982d
p2299
I2364
sV\u30c6\u30ed
p2300
I4335
sV\uff23\uff2b
p2301
I3892
sV\u30ec\u30c3\u30c9
p2302
I102
sV\u5225\u540d
p2303
I2366
sV\u4e16\u4ee3
p2304
I113
sV\u304d\u3087\u3046
p2305
I2369
sV\u9244\u677f
p2306
I2729
sVtv
p2307
I2371
sV\u7bc9\u5730
p2308
I2372
sV\u5e97\u982d
p2309
I2373
sV\u8f2a
p2310
I2430
sV\u4e00\u7a2e
p2311
I2375
sV\u304a\u62ab\u9732\u76ee
p2312
I146
sV\u56fd\u5185
p2313
I2378
sVto
p2314
I2379
sV\u5cb3
p2315
I2380
sVtm
p2316
I2381
sV\u5acc\u3044
p2317
I4560
sV\u5b9f\u7528
p2318
I2382
sV\u30dd\u30c6\u30c8
p2319
I181
sV\u76db\u308a\u571f
p2320
I2384
sV\u8a3c
p2321
I2385
sV\u6d3e
p2322
I2386
sV\u6c17\u5019
p2323
I4377
sV\u30bb\u30d6\u30f3
p2324
I2388
sV\u8077\u54e1
p2325
I2389
sVvirates
p2326
I233
sV\u81ea\u52d5\u8eca
p2327
I2391
sV\u5916\u898b
p2328
I2392
sV\u73fe\u5834
p2329
I2393
sV\u4ed5\u7d44\u307f
p2330
I2394
sV\u501f\u91d1
p2331
I2395
sV\u30d0\u30b9\u30c8
p2332
I2396
sV\u76f4\u5f8c
p2333
I2397
sV\u5916\u91ce
p2334
I1163
sV\u771f
p2335
I3776
sV\u30aa\u30d0\u30de
p2336
I290
sV\u50d5
p2337
I2250
sV\u6307\u5c0e
p2338
I2401
sV\u795d\u798f
p2339
I2402
sV\u597d\u7269
p2340
I2404
sV\u30d3\u30c3\u30b0
p2341
I305
sV\u4e00\u90e8\u59cb\u7d42
p2342
I2406
sV\u624b\u5143
p2343
I2407
sV\u4f4e\u4e0b
p2344
I2408
sV\u3072\u3068
p2345
I2409
sV\u30ef\u30b7\u30f3\u30c8\u30f3
p2346
I2410
sV\u5dee\u5225
p2347
I362
sV\u30e1\u30cb\u30e5\u30fc
p2348
I2412
sV\u62ab\u9732
p2349
I2413
sV\u5916\u89b3
p2350
I382
sV\u30e6\u30cb\u30c3\u30c8
p2351
I384
sV\u65e5\u8a18
p2352
I388
sV\u6e96\u6c7a\u52dd
p2353
I2417
sV\u6176
p2354
I2418
sV\u7d4c\u7531
p2355
I2419
sV\u4f59\u8a08
p2356
I2420
sVgb
p2357
I3536
sV\u7537\u6027
p2358
I2422
sV\u9759\u304b
p2359
I434
sV\u6a5f\u7a2e
p2360
I4498
sVtel
p2361
I2425
sVinstagram
p2362
I2426
sV\u30d6\u30e9\u30a6\u30b6
p2363
I454
sV\u30b9\u30d1\u30a4
p2364
I2428
sV\u30d7\u30ec\u30df\u30a2
p2365
I2429
sV\u540c\u58eb
p2366
I3174
sV\u30b5\u30a6\u30b8\u30a2\u30e9\u30d3\u30a2
p2367
I2432
sV\u4e94
p2368
I2433
sV\u5217
p2369
I2434
sV\u5352\u696d
p2370
I3539
sV\u518d\u73fe
p2371
I2436
sV\u5b89\u66c7
p2372
I2437
sV\u8996\u5bdf
p2373
I2438
sV\u6a2a\u6d5c
p2374
I2439
sV\u9055\u53cd
p2375
I4336
sV\u30aa\u30d5\u30a3\u30b9
p2376
I2442
sV\u5727\u5012
p2377
I2443
sV\u5fc3\u982d
p2378
I2444
sV\u5897\u52a0
p2379
I2445
sV\u904e\u6fc0
p2380
I2446
sV\u7d71\u8a08
p2381
I3370
sV\u72ac
p2382
I583
sV\u5931
p2383
I595
sV\u6700\u65b0
p2384
I2449
sV\u6b7b\u8005
p2385
I2450
sV\u81ea\u5b85
p2386
I2451
sV\u8aad\u307f
p2387
I2452
sV\u305d\u306e\u4ed6
p2388
I646
sV\u4eca\u5b63
p2389
I649
sV\u30d6\u30e9\u30a6\u30f3
p2390
I2456
sV5000
p2391
I2457
sV\u6b27\u7c73
p2392
I2458
sV\u604b
p2393
I695
sV\u6d41\u884c
p2394
I2462
sV\u4eba\u5f62
p2395
I2463
sV\u4e0d\u5728
p2396
I2464
sV\u30ce\u30a4\u30ba
p2397
I2465
sV\u4f55
p2398
I2466
sV\u918d\u9190\u5473
p2399
I2467
sV\u7aef\u672b
p2400
I2468
sV\u6587\u5b57\u901a\u308a
p2401
I2363
sV\u6d3b\u7528
p2402
I753
sV\u5dde
p2403
I2471
sV\u30aa\u30b9\u30b9\u30e1
p2404
I2472
sV\u7a7a
p2405
I1976
sV\u89e3\u660e
p2406
I2474
sV\u5275\u51fa
p2407
I2475
sV\u5931\u70b9
p2408
I2476
sV\u706b
p2409
I2477
sV\u5f8c\u534a
p2410
I2478
sV\u72ec
p2411
I2479
sV\u58f0
p2412
I2481
sV\u7c73
p2413
I2482
sV)\u25cf
p2414
I2484
sV\u914d\u7f6e
p2415
I3971
sV\u756a\u7d44
p2416
I2486
sV\u3081
p2417
I1842
sVtour
p2418
I2489
sV\u9032\u5316
p2419
I2490
sVvia
p2420
I2491
sV\u9685
p2421
I2492
sVmc
p2422
I3402
sV\u9806
p2423
I2494
sV\u7c89
p2424
I2495
sV\u30ce\u30fc\u30c8
p2425
I2496
sV\u3054\u5b58\u77e5
p2426
I2497
sV\u82b8\u80fd
p2427
I1394
sV\u5c4a\u3051
p2428
I2499
sV\u7279\u5927
p2429
I2500
sV\u624b\u6599\u7406
p2430
I3548
sV\u5224\u6c7a
p2431
I2502
sV\u307e\u308f\u308a
p2432
I955
sV\u7d39\u4ecb
p2433
I4081
sV\u30c7\u30a3\u30b9\u30d7\u30ec\u30a4
p2434
I961
sV\u672a\u77e5
p2435
I2505
sV\u55ab\u7159
p2436
I2506
sV\u4fdd\u967a
p2437
I2507
sV\u5358\u7d14
p2438
I978
sV\u6982\u8981
p2439
I1983
sV\u8a08\u753b
p2440
I2510
sV\u30df\u30c3\u30af\u30b9
p2441
I2511
sV\u30b7\u30e7\u30c3\u30af
p2442
I2512
sV\u7cbe\u5bc6
p2443
I1673
sV\u8a2d\u5099
p2444
I2750
sV\u660c
p2445
I3565
sV\u4f1a\u9577
p2446
I2514
sV\u76db\u308a
p2447
I3407
sV\u8abf\u5b50
p2448
I2515
sV\u30b7\u30c1\u30e5\u30a8\u30fc\u30b7\u30e7\u30f3
p2449
I1592
sV\u9ad8\u6027\u80fd
p2450
I2517
sV6
p2451
I2518
sV\u596a\u9084
p2452
I2519
sV\u5927\u624b
p2453
I1802
sV\u512a\u79c0
p2454
I2521
sV\u6d0b
p2455
I2788
sV\u30d7\u30e9\u30b9
p2456
I1077
sVmore
p2457
I2524
sV\u30c6\u30ad\u30b9\u30c8
p2458
I2525
sV\u30b7\u30e7\u30c3\u30c8
p2459
I2526
sV\u9053\u8def
p2460
I2527
sV\u554f\u3044\u5408\u308f\u305b
p2461
I4606
sV\u30a2\u30a6\u30c8\u30c9\u30a2
p2462
I4675
sV\u30af\u30ea\u30c3\u30af
p2463
I2529
sV\u9663
p2464
I917
sVcm
p2465
I4269
sV\u3056
p2466
I2531
sV\u52aa\u529b
p2467
I4710
sV\u30b7\u30e7\u30c3\u30d7
p2468
I2532
sV\u5916\u51fa
p2469
I1189
sV\u30ab\u30cc\u30fc
p2470
I2504
sVfotolia
p2471
I2534
sV\u5186
p2472
I2535
sV\u4eee\u8a2d
p2473
I2536
sV\u5c0f\u5009
p2474
I2537
sV\u7269\u8a9e
p2475
I2538
sV\u3053\u3053
p2476
I2539
sV\u6b27\u5dde
p2477
I2540
sV\u3069\u3063\u3061
p2478
I3305
sVpr
p2479
I4552
sV\u4e8c
p2480
I4193
sV\u9905
p2481
I4509
sV\u306a\u3081\u3089\u304b
p2482
I2543
sV\u30d7\u30e9\u30f3
p2483
I2544
sV\u76bf
p2484
I1192
sVv
p2485
I2546
sV\u610f\u5916
p2486
I2548
sV\u6c17\u8efd
p2487
I2549
sV\u667a
p2488
I2550
sV17
p2489
I2551
sV\u6bd4\u8f03
p2490
I2552
sV\u79fb\u884c
p2491
I2553
sV\u6700\u7d42
p2492
I1194
sV\u7fcc\u65e5
p2493
I2555
sV\u80b2\u6210
p2494
I6
sV\u4e2d\u5fc3
p2495
I2557
sV\u8840
p2496
I2558
sV!!\u300d
p2497
I2559
sV\u5b50\u3069\u3082
p2498
I2560
sV\u5e8a
p2499
I2561
sV\u6a19\u7684
p2500
I2562
sV\u4e0b\u65ec
p2501
I2563
sV\u52d8\u9055\u3044
p2502
I2564
sV\u5e0c\u5c11
p2503
I2812
sV\u7f8e\u4eba
p2504
I2566
sV\u79cb\u7530
p2505
I2567
sV\u4e94\u8f2a
p2506
I2568
sV\u4f4f\u4eba
p2507
I1375
sV\u5317
p2508
I897
sV\u4e00\u5b9a
p2509
I1386
sV\u958b\u767a
p2510
I2572
sV\u4f4e\u8ff7
p2511
I2573
sV!
p2512
I2574
sV\u7406\u7531
p2513
I1822
sV\u6625
p2514
I2576
sV\u540d\u6240
p2515
I2577
sV\u6c17\u6e29
p2516
I2580
sV\u738b\u9053
p2517
I2582
sV\u533b\u7642
p2518
I2583
sV\u6cb9
p2519
I3698
sV\u3053\u306e\u307b\u3069
p2520
I2749
sV\u4e00\u5bb6
p2521
I2584
sV\u5c40\u9577
p2522
I1487
sV\u3053\u308d
p2523
I2586
sV\u4f55\u8005
p2524
I1496
sV\uff5e\uff01\u300d
p2525
I2588
sV\u591a\u6570
p2526
I2589
sV\u30b3\u30df\u30e5\u30cb\u30b1\u30fc\u30b7\u30e7\u30f3
p2527
I2590
sV\u3041
p2528
I2591
sV\u6f14\u51fa
p2529
I2593
sVw
p2530
I2766
sVfw
p2531
I2595
sV\u30c9\u30eb
p2532
I2596
sV\u62e1\u6563
p2533
I2597
sV\u6240\u6709
p2534
I2598
sV\u7bc4\u56f2
p2535
I2599
sV\u666e\u901a
p2536
I1587
sVfc
p2537
I2601
sV\u304a\u4e92\u3044
p2538
I3989
sV\u304a\u9858\u3044
p2539
I1683
sV\u5357
p2540
I2603
sV\u6642\u9593
p2541
I2604
sVfi
p2542
I2605
sVfk
p2543
I2606
sV\u30b3\u30b3\u30ca\u30c3\u30c4
p2544
I2607
sV\u559c\u3073
p2545
I2609
sVa
p2546
I1631
sV\u91d1
p2547
I2611
sV\u4e57\u5ba2
p2548
I2612
sV\u8131\u9000
p2549
I2613
sV\u516b
p2550
I2614
sV\u8857
p2551
I2615
sV\u4f0a\u6771
p2552
I2616
sV\u5869\u6c17
p2553
I2617
sV)
p2554
I4369
sV\u826f\u597d
p2555
I2619
sV\u52dd\u8ca0
p2556
I2620
sV\u5973\u306e\u5b50
p2557
I2621
sV\u81ea\u7acb
p2558
I2622
sV\u53cd\u5fdc
p2559
I2623
sV\u7121\u7dda
p2560
I2624
sV\u6a5f\u95a2
p2561
I2625
sV\u5c0f
p2562
I4641
sV\u30c4\u30a4\u30fc\u30c8
p2563
I2626
sV\u5909\u63db
p2564
I2627
sV\u30c1\u30fc\u30ba
p2565
I1769
sV\u8def\u4e0a
p2566
I2629
sV\u51fa\u756a
p2567
I2630
sV\u52a0\u5de5
p2568
I2631
sV\u828b
p2569
I2632
sV\u9ad8\u3081
p2570
I2633
sV\u30e9\u30b9\u30c8
p2571
I2634
sV\u30d7\u30df\u30dd\u30f3
p2572
I2635
sV28
p2573
I2637
sV\u4e00\u77ac
p2574
I4373
sV\u5316
p2575
I1839
sV\u540c\u6642
p2576
I1656
sV\u6cb8\u9a30
p2577
I2642
sV\u30db
p2578
I3572
sV\u30bf\u30a4\u30d7
p2579
I2645
sV\u670d\u88c5
p2580
I1869
sV25
p2581
I2647
sVstyle
p2582
I1878
sV27
p2583
I2649
sV20
p2584
I2650
sV21
p2585
I2651
sV22
p2586
I1601
sV\u30aa\u30fc\u30d7\u30cb\u30f3\u30b0
p2587
I1899
sV\u30bf\u30a4\u30e0
p2588
I2654
sV\u30df\u30e5\u30fc\u30b8\u30a2\u30e0
p2589
I697
sV29
p2590
I2657
sV\u30d2\u30eb\u30ba
p2591
I2658
sV\u5c64
p2592
I4488
sV\u7bb1
p2593
I1186
sV\u611b\u5a9b
p2594
I2660
sV\u8ca0\u3051
p2595
I2508
sV\u51e6\u5206
p2596
I2662
sVdailymail
p2597
I579
sV\u6abb
p2598
I2664
sV\u60f3\u3044
p2599
I2358
sV\u30ad\u30fc\u30dc\u30fc\u30c9
p2600
I1968
sV\u51b7\u9759
p2601
I1973
sV\u4e0d\u900f\u660e
p2602
I2668
sV\u57fa\u672c
p2603
I2669
sV\u516b\u4ee3
p2604
I2670
sV\u30af\u30a4\u30ba
p2605
I2671
sV\u539f\u4f5c
p2606
I2672
sV\u75c5
p2607
I2673
sV\u72b6\u6cc1
p2608
I1250
sV\u4eba\u5de5
p2609
I2676
sV\u597d\u307f
p2610
I2677
sVwebsitehttp
p2611
I2678
sV\u30ad\u30c3\u30ab\u30fc
p2612
I2025
sV\u798f\u5ca1
p2613
I2680
sV\u674e
p2614
I2034
sV\u30b7\u30e5\u30fc\u30c8
p2615
I4380
sV\u5805\u5b9f
p2616
I2682
sV\u6271\u3044
p2617
I2683
sV\u53f0\u6570
p2618
I4714
sV\u30b7\u30ca\u30e2\u30f3
p2619
I2684
sV\u80cc\u756a\u53f7
p2620
I2090
sV\uff5e
p2621
I2686
sV\u52e2\u3044
p2622
I2687
sV\u4f1d\u7d71
p2623
I2689
sV\u906e\u65ad
p2624
I2690
sV\u5360\u3044
p2625
I618
sV\u6b66
p2626
I2692
sV\u30de\u30a4
p2627
I828
sV\u91d1\u66dc\u65e5
p2628
I2694
sV\u71c3\u6599
p2629
I2780
sV\u6ca1\u53ce
p2630
I2696
sV\u767a\u8868
p2631
I2697
sV\u30ad\u30e3\u30b9\u30c8
p2632
I2698
sV\u52b9\u679c
p2633
I2699
sV\u597d\u304d
p2634
I2700
sV\u521d\u5fc3\u8005
p2635
I2701
sV\u30ae\u30e3\u30e9\u30af\u30b7\u30fc\u30ce\u30fc\u30c8
p2636
I2186
sV\u81ea\u7531
p2637
I4440
sV\u6295\u7403
p2638
I2704
sV\u7d14
p2639
I2705
sV\u767b\u9332
p2640
I2706
sV\u30d0\u30f3\u30c9
p2641
I2707
sV\u30b9\u30fc\u30d1\u30fc
p2642
I2708
sV\u30b5\u30a4\u30ba
p2643
I815
sVmv
p2644
I2710
sV\u808c
p2645
I446
sV\u4ee5\u964d
p2646
I3682
sV\u9699
p2647
I2713
sV\u5b89\u5b9a
p2648
I2714
sV\u30d5\u30a1\u30a4\u30eb
p2649
I1022
sV\u52d5\u753b
p2650
I2716
sV\u8a55\u5224
p2651
I535
sV\u5317\u90e8
p2652
I3584
sV\u58f2\u4e0a
p2653
I2719
sV\u5185\u5074
p2654
I2720
sV\u30d3\u30b8\u30e5\u30a2\u30eb
p2655
I2721
sV\u795e\u6238
p2656
I2722
sV\u30c0\u30e1
p2657
I2322
sV\u767b\u5834
p2658
I3746
sV\u96fb\u529b
p2659
I2725
sV\u5bff\u53f8
p2660
I4393
sV\u4e00\u4f53
p2661
I4726
sV\u30ac
p2662
I2726
sV\u30d5\u30e9\u30f3\u30b9
p2663
I2727
sV\u8056\u5730
p2664
I2728
sV\u6d77\u5916
p2665
I2370
sV\u30ab\u30ed\u30ea\u30fc
p2666
I2730
sV\u8b70\u54e1
p2667
I1240
sV\u767b\u58c7
p2668
I3733
sV\u6d88\u8cbb
p2669
I4229
sV7
p2670
I2732
sV\u8ddd\u96e2
p2671
I2733
sV\u4ed5\u7acb\u3066
p2672
I2734
sV\u6bba\u5bb3
p2673
I2735
sV\u30bb\u30f3\u30b5\u30fc
p2674
I3987
sV\u4ed5\u639b\u3051
p2675
I2736
sV\u5341
p2676
I747
sV\u30bf\u30d6\u30ec\u30c3\u30c8
p2677
I313
sViot
p2678
I4397
sVios
p2679
I4398
sV\u624b
p2680
I2741
sV\u81ea\u79f0
p2681
I2742
sV\u80cc
p2682
I2743
sV\u5185\u8535
p2683
I2745
sV\u96e2\u5cf6
p2684
I2746
sV\u89d2
p2685
I2483
sV\u30a2\u30c7\u30df\u30a6\u30bd\u30f3
p2686
I2748
sV\u30a4\u30f3\u30c9
p2687
I542
sV\u795d
p2688
I2513
sV\u30fb
p2689
I2751
sV\u30a4\u30f3\u30c1
p2690
I2752
sV\u308c\u3044
p2691
I2753
sV\u81ea\u8eab
p2692
I2754
sV\u4eba\u7d44
p2693
I2542
sV\u672a\u6e80
p2694
I2757
sV\u8077\u4eba
p2695
I4213
sV\u516d
p2696
I2758
sV\u5230\u7740
p2697
I2759
sV\u30a2\u30eb\u30b3\u30fc\u30eb
p2698
I2760
sV\u5bfe\u6297
p2699
I2761
sV\u5e73
p2700
I2762
sV\u7d75
p2701
I2764
sV\u30b3\u30f3\u30c8\u30ed\u30fc\u30e9\u30fc
p2702
I2765
sV\u8077
p2703
I2594
sV\u795e\u7d4c
p2704
I2245
sV\u30b5\u30a4\u30c8
p2705
I2768
sV\u30b5\u30a4\u30c9
p2706
I2769
sV\u697d
p2707
I2770
sV\u96c6\u4e2d
p2708
I2771
sV\u672c\u4f53
p2709
I4404
sV\u582a\u80fd
p2710
I2773
sV\u5831\u9053
p2711
I2774
sV\u30ab\u6240
p2712
I2638
sV\u30d6\u30eb\u30fc
p2713
I2776
sV\u5185\u6226
p2714
I2262
sV\u5be9\u67fb
p2715
I3591
sV\u660e
p2716
I2778
sV\u7d71\u4e00
p2717
I133
sV\u5f62\u72b6
p2718
I2695
sV\u30cb\u30e5\u30fc\u30e8\u30fc\u30af
p2719
I2781
sVblank
p2720
I1967
sV\u30b3\u30d4\u30fc
p2721
I199
sV\u30c9\u30e9\u30a4\u30d6
p2722
I2784
sV\u601d\u3044\u5165\u308c
p2723
I2786
sV\u591c
p2724
I2787
sV\u898b\u5b66
p2725
I3594
sV\u725b\u4e73
p2726
I2790
sV\u5b58\u5728
p2727
I2791
sV"
p2728
I2792
sV\u540c\u5e02
p2729
I2793
sV\u8b70\u9577
p2730
I2794
sV\u6226\u95d8
p2731
I2797
sV\u63e1\u624b
p2732
I2798
sV1080
p2733
I967
sV\u306b\u3093\u3058\u3093
p2734
I4410
sV180
p2735
I2801
sV\u3072\u3068\u308a
p2736
I2802
sV\u30ec\u30f3\u30b8
p2737
I4411
sV\u5ba3\u4f1d
p2738
I2804
sV\u30e4\u30fc\u30c9
p2739
I2806
sV\u30b5\u30d6
p2740
I4177
sV\u6700\u512a\u79c0
p2741
I2807
sVstore
p2742
I2808
sVgps
p2743
I2809
sV\u4e0d\u52d5\u7523
p2744
I2810
sV\u751f\u307e\u308c
p2745
I2811
sV\u610f\u8b58
p2746
I461
sV\u642d\u8f09
p2747
I2813
sV\u65cf
p2748
I2814
sV\u65b0\u898f
p2749
I4202
sV\u640d\u50b7
p2750
I2815
sV\u6cd5
p2751
I2816
sV\u4fbf\u5229
p2752
I2818
sV\u6574\u7406
p2753
I2819
sV\u30ab\u30c3\u30d7\u30eb
p2754
I2820
sV\u9593\u969b
p2755
I2821
sV\u900f\u660e
p2756
I2822
sV\u5fdc\u63f4
p2757
I2823
sVb
p2758
I2824
sV\u901a\u8ca9
p2759
I2825
sV\u9023\u643a
p2760
I3601
sV\u7dd1\u8272
p2761
I2826
sV\u56fd\u52d9
p2762
I2827
sVyoutu
p2763
I2828
sV\u624b\u524d
p2764
I2829
sV\u9451\u8cde
p2765
I2830
sV\u9032\u5165
p2766
I2832
sV2020
p2767
I2833
sV\u4f4f\u6c11
p2768
I2834
sV\u63a1\u53d6
p2769
I2835
sV\u4f0a\u85e4
p2770
I2836
sV\u6804\u990a\u58eb
p2771
I2837
sV\u7fcc\u671d
p2772
I2838
sV\u88fd
p2773
I2839
sV\u57fc\u7389
p2774
I2840
sV\u60f3\u5b9a
p2775
I2841
sV\u97f3\u58f0
p2776
I2041
sV\u30e1\u30ea\u30c3\u30c8
p2777
I1167
sV\u30b2\u30b9\u30c8
p2778
I2844
sV\u5c55\u793a
p2779
I1223
sV\u6d3b\u767a
p2780
I1257
sVofficial
p2781
I4656
sV\u683d\u57f9
p2782
I2848
sV\u4eee\u88c5
p2783
I2849
sV\u8a13\u7df4
p2784
I2850
sV\u7d19
p2785
I3604
sV\u7f8e\u5bb9
p2786
I4020
sV\u83ef\u3084\u304b
p2787
I2852
sV\u4e2d\u5cf6
p2788
I2731
sV\u6e05\u6f54
p2789
I2854
sV\u53ef\u8996
p2790
I2855
sV\u6642\u4e8b
p2791
I2856
sV\u9023\u8f09
p2792
I2857
sV\u629c\u304d
p2793
I2858
sV\u30a2\u30ca\u30a6\u30f3\u30b5\u30fc
p2794
I2859
sV\u8cc7\u91d1
p2795
I2860
sV\u5009\u5eab
p2796
I2861
sV\u30d2\u30ed\u30a4\u30f3
p2797
I2862
sV\u6642\u77ed
p2798
I2863
sV\u732b
p2799
I2864
sV\u6c7a\u7740
p2800
I2865
sV\u51ac
p2801
I2866
sV\u30ea\u30cf\u30d3\u30ea
p2802
I2867
sV\u76ae
p2803
I2868
sV\u5468\u308a
p2804
I2869
sV\u3059\u3079\u3066
p2805
I2047
sV\u307e\u3068\u3081
p2806
I2871
sV\u9db4
p2807
I2872
sV\u8981\u8acb
p2808
I2873
sV\u6253\u6483
p2809
I2874
sV\u30a2\u30af\u30bb\u30b9
p2810
I3802
sV\u30c1\u30b1\u30c3\u30c8
p2811
I4255
sV\u4e09\u6d66
p2812
I2876
sV\u30d5\u30a9\u30fc\u30de\u30eb
p2813
I2878
sV\u5c4a
p2814
I2879
sV\u4e09\u632f
p2815
I4426
sV\u65b0\u6f6e\u793e
p2816
I2880
sV\u30b1\u30f3\u30ab
p2817
I2881
sV\u611f\u67d3
p2818
I2882
sV\u96c6\u4f1a
p2819
I2883
sV\u554f\u984c
p2820
I2884
sV\u8377\u7269
p2821
I2885
sV\u7dcf\u5408
p2822
I4121
sV\u56db\u7403
p2823
I415
sV76
p2824
I2888
sV\u4f53
p2825
I2889
sV\u30d7\u30ed\u30c7\u30e5\u30fc\u30b9
p2826
I1248
sV72
p2827
I2891
sV70
p2828
I2892
sV\u3055\u3064\u307e\u3044\u3082
p2829
I2893
sV78
p2830
I2894
sV\u65b0\u66f2
p2831
I2895
sV\u6307\u6570
p2832
I3345
sVkg
p2833
I2896
sV\u85e4
p2834
I2897
sV\u73fe\u5b9f
p2835
I2898
sVmobile
p2836
I2899
sV\u767d
p2837
I2900
sV\u4e21\u7acb
p2838
I2901
sV\u8cea
p2839
I2902
sV\u30db\u30c6\u30eb
p2840
I523
sVkm
p2841
I2904
sV\u30ed\u30f3\u30b0
p2842
I2905
sV\u30b9\u30d7\u30ec\u30fc
p2843
I2906
sV\u5c71\u53e3
p2844
I2907
sV\u30e1\u30c3\u30b7
p2845
I531
sV\u6e96\u5099
p2846
I2909
sV\u30b9\u30eb\u30fc
p2847
I2910
sV\u30aa\u30fc\u30b9\u30c8\u30e9\u30ea\u30a2
p2848
I951
sV\u706b\u707d
p2849
I466
sV\u3051\u3093\u5236
p2850
I1027
sV\u56fd\u55b6
p2851
I2914
sV\u80cc\u9762
p2852
I2846
sV\u3072\u3068\u3068\u304d
p2853
I2916
sV\u738b\u8005
p2854
I2917
sV\u8089\u4f53
p2855
I2918
sV\u30e2\u30c7\u30eb
p2856
I2919
sV\u9996\u4f4d
p2857
I2920
sV\u982d\u90e8
p2858
I2921
sV\u660e\u6cbb
p2859
I2922
sV\u30cf\u30ba
p2860
I2923
sV\u30de\u30a4\u30af
p2861
I2924
sV\u5358\u4f53
p2862
I2925
sV\u30b3\u30df\u30c3\u30af
p2863
I1415
sV\u30d1\u30c3\u30c9
p2864
I2927
sV\u5143\u6c17
p2865
I2928
sV\u7814\u7a76\u6240
p2866
I2929
sV67
p2867
I2931
sV\u6642\u671f
p2868
I2933
sV\u5f53\u521d
p2869
I2934
sV\u56de\u5fa9
p2870
I3615
sV\u30d8\u30a2
p2871
I2936
sV\u304a\u5b50\u3055\u3093
p2872
I2937
sV\u304a\u307e\u3048
p2873
I2938
sV\u4e00\u5e2f
p2874
I2940
sV\u30d2\u30e9\u30ea\u30fc
p2875
I483
sV\u30c8\u30e9
p2876
I2942
sV\u6700\u5148\u7aef
p2877
I2943
sV\u5728\u4f4f
p2878
I2944
sV\u51e6\u7406
p2879
I2945
sV\u7ffb\u5f04
p2880
I2946
sV\u7f8e
p2881
I4645
sV8
p2882
I2947
sV\u8cbb
p2883
I2948
sV\u4e3c
p2884
I2949
sV\u624b\u4f5c\u308a
p2885
I2950
sV\u30cf\u30ed
p2886
I621
sV\u571f\u66dc
p2887
I2831
sV\u9244
p2888
I2955
sV\u5bae\u57ce
p2889
I2956
sVpermission
p2890
I2957
sV\u59c9
p2891
I2958
sV\u5927\u56fd
p2892
I2959
sV\u6c11\u9593
p2893
I2960
sV\u614e
p2894
I2961
sV\u4eca\u5f8c
p2895
I2962
sV\u601d\u3044
p2896
I2963
sV\u7b46\u8005
p2897
I2964
sV\u62db\u5f85
p2898
I2965
sV\u8c4a\u5cf6
p2899
I1857
sV\u611f\u60c5
p2900
I2967
sV\u535a
p2901
I2968
sV\u30b9\u30af\u30ea\u30fc\u30f3
p2902
I2969
sV\u62c5\u5f53
p2903
I2970
sV\u795e
p2904
I2971
sV\u2460
p2905
I2973
sV\uff11\uff10\u6708
p2906
I2974
sV="_
p2907
I2975
sV\u53c2\u52a0
p2908
I2976
sV\u8868
p2909
I2978
sV\u6226\u529b
p2910
I2979
sV\u611f\u60f3
p2911
I2980
sV\u6b7b\u4ea1
p2912
I4444
sV\u5e74\u4ee3
p2913
I2982
sV\u7f72
p2914
I2983
sV\u7528\u610f
p2915
I2984
sV\u6570\u5024
p2916
I2985
sVx
p2917
I2987
sV\u975e\u96e3
p2918
I2988
sV\u30d5\u30e9\u30c3\u30b7\u30e5
p2919
I2989
sV\u96e2\u5a5a
p2920
I2991
sV\u5c71\u9802
p2921
I3534
sV\u4fa1\u5024
p2922
I1464
sV\u305d\u3053
p2923
I2993
sV......\u3002
p2924
I1268
sV\u30e9\u30a4\u30d6
p2925
I2995
sV\u30e9\u30a4\u30d5
p2926
I2996
sV\u670d
p2927
I2997
sV\u30b0\u30ea\u30fc\u30f3
p2928
I4705
sV\u30d1\u30cd\u30eb
p2929
I3000
sVare
p2930
I3001
sV\u30e9\u30a4\u30c8
p2931
I3002
sV\u7d44\u7e54
p2932
I3003
sV\u91d1\u5c5e
p2933
I3004
sV\u5e9c
p2934
I3005
sV\u5f93\u6765
p2935
I3006
sV\u76f8\u624b
p2936
I1381
sV#
p2937
I3009
sV\u305d\u3070
p2938
I3011
sV\u30a2\u30f3\u30b3\u30fc\u30eb
p2939
I3012
sV\u6c7a\u52dd
p2940
I4597
sV\u68a8
p2941
I3014
sV\u7269\u4f53
p2942
I3015
sV\u5c0f\u9ea6\u7c89
p2943
I3016
sV\u5c02\u7528
p2944
I52
sV\u30e9\u30a4\u30f3
p2945
I3018
sV\u624b\u9593
p2946
I3019
sV\u4e16\u8a71
p2947
I3020
sV\u5e73\u65b9\u30e1\u30fc\u30c8\u30eb
p2948
I3021
sV\u30ec\u30c3\u30b9\u30f3
p2949
I3022
sV\u81ea\u5f8b
p2950
I3023
sV\u6570\u30ab\u6708
p2951
I3024
sV\u30af\u30fc\u30eb
p2952
I3025
sV\u30a8\u30f3\u30c8\u30ea\u30fc
p2953
I378
sV\u4f1a\u793e
p2954
I2182
sV\u3043
p2955
I3028
sV\u7a7a\u6e2f
p2956
I3029
sV\u8868\u73fe
p2957
I3030
sV\u697d\u66f2
p2958
I3031
sV\u632f\u8208
p2959
I3840
sV\u30a8\u30d4\u30bd\u30fc\u30c9
p2960
I3032
sV\u4fa1
p2961
I3027
sV\u89e3\u9664
p2962
I3034
sV\u898f\u6a21
p2963
I3035
sV\u671f\u9650
p2964
I3036
sV\u5927\u91cf
p2965
I3037
sV\u8853
p2966
I3038
sV\u56de\u53ce
p2967
I2354
sV\u7159
p2968
I3040
sV\u500b\u4eba
p2969
I3041
sV\u69d8\u5b50
p2970
I3042
sV\u6bdb\u5e03
p2971
I1546
sVc
p2972
I2655
sV\u30c6\u30fc\u30d6\u30eb
p2973
I3046
sV\u30aa\u30e9\u30f3\u30c0
p2974
I3047
sV\u30aa\u30a4\u30eb
p2975
I3048
sV\u30e9\u30a4\u30b9
p2976
I3049
sV02
p2977
I4076
sV\u30a4\u30f3\u30d1\u30af\u30c8
p2978
I3050
sV\u5f71\u97ff
p2979
I3051
sV\u3044\u3061\u3070\u3093
p2980
I3053
sV\u5317\u7c73
p2981
I3054
sV\u4e3b\u5c06
p2982
I3055
sV\u6e80\u55ab
p2983
I4456
sV\u30d6\u30e9\u30f3\u30c9
p2984
I3680
sV\u6a21\u69d8
p2985
I2063
sV\u4e3b\u5c0e
p2986
I3057
sV\u30d8\u30c7\u30a3\u30f3\u30b0
p2987
I1331
sV\u767a\u63ee
p2988
I3060
sV\u898b\u76f4\u3057
p2989
I4457
sV\u6c34\u6e96
p2990
I3062
sV03
p2991
I4080
sV\u53f0\u98a8
p2992
I3425
sV\u30bb\u30fc\u30eb
p2993
I3066
sV\u7533\u8acb
p2994
I3067
sV\u6545\u969c
p2995
I3068
sV\u7f70\u91d1
p2996
I2842
sV\u5e30\u5b85
p2997
I2972
sV\u4e0a\u8a18
p2998
I2843
sV\u30c1\u30e7\u30b3
p2999
I3072
sV\u5b9f
p3000
I3073
sV\u671d\u520a
p3001
I3074
sV\u30d1\u30a6\u30c0\u30fc
p3002
I3075
sV\u30a4\u30e9\u30af
p3003
I3501
sV\u4fdd\u8b77
p3004
I1796
sV\u4e2d\u5b66
p3005
I3077
sV\u51fa\u7248
p3006
I3078
sV\u307e\u307e
p3007
I3079
sV\u98fc\u3044\u4e3b
p3008
I3081
sV\u5272\u5408
p3009
I3641
sV\u6a2a
p3010
I3083
sV\u82b8\u80fd\u4eba
p3011
I3228
sV\u53ce\u96c6
p3012
I3084
sV\u9ad8\u753b\u8cea
p3013
I3063
sVpc
p3014
I3086
sV\u30a2\u30a4\u30c6\u30e0
p3015
I3087
sVpa
p3016
I3088
sV\u904b\u8f38\u7701
p3017
I2847
sVpk
p3018
I3090
sV\u5fc5\u7136
p3019
I3091
sV\u5927\u578b
p3020
I3092
sV\u54c1
p3021
I3093
sV\u3084\u308a\u3068\u308a
p3022
I3644
sV\u5642
p3023
I3095
sV\u30bb\u30ea\u30d5
p3024
I3096
sV\u7d30\u80de
p3025
I3097
sV\u5948
p3026
I3098
sV\u304a\u306a\u3058\u307f
p3027
I2091
sV\u65b0\u805e
p3028
I3100
sV\u30e2\u30c6
p3029
I3645
sV\u99b4\u67d3\u307f
p3030
I3102
sV\u30ed\u30fc\u30bd\u30f3
p3031
I3103
sV\u30de\u30f3\u30ac
p3032
I3104
sV\u6025
p3033
I3458
sV\u8a3c\u62e0
p3034
I3105
sV\u512a\u96c5
p3035
I374
sV\u6b6f
p3036
I3107
sV\u6559\u5f92
p3037
I3108
sV\u96bb
p3038
I3109
sV\u30d9\u30fc\u30b9
p3039
I34
sV\u5171\u72af
p3040
I4075
sV\u30d7\u30e9\u30b9\u30c1\u30c3\u30af
p3041
I3252
sV\u5de6\u8155
p3042
I3111
sV\u30d5\u30a1\u30f3\u30bf\u30b8\u30fc
p3043
I3112
sV\u6d66\u548c\u30ec\u30c3\u30ba
p3044
I3113
sV\u30d8\u30c3\u30c9
p3045
I69
sV\u6307\u793a
p3046
I3115
sV\u30bf\u30c3\u30d7
p3047
I2144
sV\u5236\u9650
p3048
I3117
sV\u304a\u5b50\u69d8
p3049
I3118
sV\u7269\u4e8b
p3050
I3119
sV\u505c\u6b62
p3051
I1791
sV\u4e0a\u8cea
p3052
I3122
sV\u30ec\u30dd\u30fc\u30c8
p3053
I1292
sV\u30bf\u30c3\u30c1
p3054
I3124
sV\u4eca\u5ea6
p3055
I3125
sV\u4e00\u5f79
p3056
I3126
sV\u5b9f\u8df5
p3057
I1710
sV\u767b\u5c71
p3058
I4388
sV\u6226\u7565
p3059
I2853
sV\u30a2\u30eb\u30d0\u30e0
p3060
I3129
sV\u3082\u3061
p3061
I4163
sV\u63a1\u7528
p3062
I3131
sV\u6328\u62f6
p3063
I3133
sV\u304a\u91d1
p3064
I3134
sV36
p3065
I3653
sV\u7a76\u6975
p3066
I3135
sV\u30b0\u30e9\u30b9
p3067
I3136
sV\u6027\u5225
p3068
I3137
sV\u6c34\u4e0a
p3069
I3138
sV\u307e\u3061
p3070
I3139
sV\u604b\u4eba
p3071
I222
sV\u77ed\u671f
p3072
I2875
sV34
p3073
I3142
sV\u6bce\u5e74
p3074
I3143
sV\u6570\u91cf
p3075
I3144
sV\u30cf\u30a6\u30b3\u30ec
p3076
I3145
sV\u98db\u884c
p3077
I3146
sV\u30e9\u30b8\u30aa
p3078
I3147
sV\u5317\u671d\u9bae
p3079
I4651
sV\u30a6\u30a7\u30d6\u30b5\u30a4\u30c8
p3080
I257
sV\u7b11\u9854
p3081
I3150
sV\u5165\u624b
p3082
I3151
sV\u4eca\u5e74
p3083
I3152
sV\u4f9d\u983c
p3084
I3153
sV\u30a2\u30d1\u30fc\u30c8
p3085
I2098
sV\u6210\u679c
p3086
I890
sV\u5973\u512a
p3087
I3156
sV\u6c34\u4e2d
p3088
I3157
sV\u548c\u98df
p3089
I3278
sV\u5b8c\u6210
p3090
I3158
sV\u571f\u6728
p3091
I3159
sV9
p3092
I326
sV\u6211\u3005
p3093
I3161
sV\u6d3b
p3094
I335
sV\u8cc7\u672c
p3095
I3163
sV\u901a\u8a71
p3096
I3164
sV\u679c\u7269
p3097
I3165
sV\u30d7\u30ed\u30b8\u30a7\u30af\u30c8
p3098
I289
sV\u4e00\u5fc3
p3099
I3167
sV\u30e9\u30f3\u30bf\u30f3
p3100
I360
sVused
p3101
I366
sV\u304c\u3093
p3102
I3170
sV\u30b0\u30e9\u30e0
p3103
I2224
sVcamera
p3104
I3693
sV\u30ef\u30f3\u30b3
p3105
I3172
sV\u958b\u6f14
p3106
I1793
sV\u53d7\u8cde
p3107
I3983
sV\u901a\u4fe1
p3108
I2376
sV\u8996\u70b9
p3109
I4106
sV\u88c5\u7740
p3110
I4263
sV\u8ed2
p3111
I417
sV\u6bd4
p3112
I426
sV\u76db\u308a\u3060\u304f\u3055\u3093
p3113
I3178
sV\u6210\u7acb
p3114
I3179
sV\u7f8e\u8c8c
p3115
I3180
sV\u6a5f\u5185
p3116
I3181
sV\u53cd\u5bfe
p3117
I16
sV\u30bb\u30ab\u30f3\u30c9
p3118
I3662
sV\u5834\u6240
p3119
I3184
sV\u4e00\u89a7
p3120
I1827
sV\u2461
p3121
I3186
sV\u672c\u6765
p3122
I1804
sV\u30c6\u30af\u30ce\u30ed\u30b8\u30fc
p3123
I4226
sV\u7121\u99c4
p3124
I3188
sV\u304a\u3082\u3066\u306a\u3057
p3125
I3189
sV\u5965\u884c\u304d
p3126
I490
sV\u5409\u7530
p3127
I3192
sV\u7d44\u307f\u5408\u308f\u305b
p3128
I3193
sV\u30b9\u30c8\u30c3\u30d7
p3129
I3194
sV\u7687\u592a\u5b50
p3130
I3195
sV\u30ef\u30a4\u30e4\u30ec\u30b9
p3131
I3196
sV\u5c71
p3132
I3197
sV\u4e8b\u614b
p3133
I3198
sV\u5973
p3134
I3199
sV\u52a0\u71b1
p3135
I4482
sV\u72ed\u5c71
p3136
I3200
sV\u30b1\u30fc\u30b8
p3137
I3201
sV\u30b1\u30fc\u30b9
p3138
I540
sVy
p3139
I3203
sVafpbb
p3140
I551
sV\u8ee2\u63db
p3141
I1677
sV\u9cf4\u304d\u58f0
p3142
I2042
sV\u5206\u6790
p3143
I3664
sV\u30ec\u30e2\u30f3
p3144
I2342
sV\u8981\u6c42
p3145
I3210
sV\u5185
p3146
I3211
sV\u5b89
p3147
I3212
sV\u30b7\u30c6\u30a3
p3148
I3213
sV\u4e8b\u60c5
p3149
I2652
sV\u5b58\u5206
p3150
I3214
sV\u6628\u5e74
p3151
I3216
sV\u8da3\u5473
p3152
I2106
sV\u51fa\u5178
p3153
I3218
sV\u552f
p3154
I3219
sV\u30b9\u30b1\u30b8\u30e5\u30fc\u30eb
p3155
I657
sV\u3054\u89a7
p3156
I2107
sV\u9769\u547d
p3157
I3593
sVpdtfrom
p3158
I3222
sV\u6bcd\u89aa
p3159
I4673
sV\u5473\u564c
p3160
I4085
sV\u5fc3\u5e95
p3161
I3224
sV\u767a\u60f3
p3162
I3225
sV\u308d\u3046
p3163
I3226
sV\u6c96
p3164
I3227
sV\u7279\u6027
p3165
I2744
sV\u90aa\u9b54
p3166
I724
sV\u30aa\u30fc\u30c0\u30fc
p3167
I3231
sV\u5ba3\u8a00
p3168
I3232
sV\u53ef\u80fd
p3169
I3967
sV\uff11\uff11\u6708
p3170
I3234
sV\u81ea\u8ee2\u8eca
p3171
I3235
sVsource
p3172
I756
sV\u7279\u5b9a
p3173
I3238
sV\u5834
p3174
I3239
sV\u6b63\u9762
p3175
I3240
sV\u30af\u30e9\u30d6
p3176
I1901
sV\u3068\u304a\u308a
p3177
I3243
sV\u6d66\u548c
p3178
I3244
sVapp
p3179
I3670
sV\u3063\u3071\u306a\u3057
p3180
I3246
sV\u6709\u6599
p3181
I3247
sV\u30a2\u30d7\u30ea
p3182
I3162
sV\u30ea\u30f3\u30af
p3183
I964
sV\u30b4\u30fc\u30eb\u30c7\u30f3
p3184
I3250
sV\u3044
p3185
I3251
sV\u82b8\u4eba
p3186
I1844
sV\u30ab\u6708
p3187
I3253
sV\uff21\uff26\uff30
p3188
I3737
sV\u767a\u4fe1
p3189
I3672
sV\u304f\u307e
p3190
I860
sV\u653f\u5e9c
p3191
I4490
sV\u98df\u4e8b
p3192
I3256
sV\u5185\u5bb9
p3193
I3352
sV\u30af\u30e9\u30b9
p3194
I2024
sV\u30bd\u30fc\u30b9
p3195
I1236
sV\u5ddd
p3196
I3259
sV%
p3197
I3260
sV\u98df
p3198
I3261
sV\u5927\u4e08\u592b
p3199
I3262
sV\u30c7\u30b6\u30a4\u30f3
p3200
I3674
sV\u88c5\u7f6e
p3201
I3265
sV\u30b8\u30e3\u30fc\u30ca\u30ea\u30b9\u30c8
p3202
I928
sVt\u30b7\u30e3\u30c4
p3203
I3267
sV\u79d1
p3204
I3268
sV\u51fa\u6765\u4e8b
p3205
I3269
sV\u5bb6\u4e8b
p3206
I4547
sV\u82f1\u56fd
p3207
I958
sV\u71b1\u5fc3
p3208
I3272
sV\u6d0b\u670d
p3209
I3273
sV\u540c\u7b49
p3210
I3274
sV\u8102
p3211
I3275
sV\u4ff3\u512a
p3212
I4135
sV\u89b3\u70b9
p3213
I3071
sV\u5bc6\u63a5
p3214
I3277
sV\u30ea\u30f3\u30b0
p3215
I1108
sV\u518d\u751f
p3216
I3279
sV\u4ee5\u5916
p3217
I1002
sV\u79fb\u4f4f
p3218
I1006
sV\u95a2\u4e0e
p3219
I3282
sV\u6642\u523b
p3220
I3283
sV\u7701
p3221
I3284
sV\u30d6\u30fc\u30b9
p3222
I3285
sVgoogle
p3223
I3286
sV\u4ed5\u65b9
p3224
I3287
sV\u30ed\u30fc\u30f3
p3225
I533
sV\u4e0a\u6f14
p3226
I3289
sV\u677e\u5c71
p3227
I3290
sV\u796d\u308a
p3228
I3292
sV\u6e90
p3229
I3293
sV\u30ab\u30e9\u30aa\u30b1
p3230
I3294
sV\u30db\u30ef\u30a4\u30c8
p3231
I3296
sV\u8d77\u52d5
p3232
I3731
sV\u8996\u7dda
p3233
I3297
sV\u306b\u3093\u306b\u304f
p3234
I3298
sV\u5de8\u5927
p3235
I3299
sV\u9650\u308a
p3236
I3300
sV\u95a2\u897f
p3237
I3302
sV\u6b53\u58f0
p3238
I3946
sV\u66f8\u304d
p3239
I3303
sV\u6709\u6570
p3240
I3304
sV\u56fd\u571f
p3241
I297
sV\u89aa
p3242
I3306
sVcast
p3243
I3307
sV\u5f31
p3244
I165
sV\u901a\u8def
p3245
I3309
sV\u69cb\u6210
p3246
I689
sV\u6226\u3044
p3247
I3311
sV(
p3248
I4131
sV\u696d\u8005
p3249
I3207
sV\u8d64
p3250
I4019
sV\u82b8
p3251
I3312
sV\u4e3b
p3252
I3313
sV\u304f\u3093
p3253
I3314
sV\u672a\u9042
p3254
I3315
sVt
p3255
I2123
sV\u5b8c\u4e86
p3256
I2999
sV\u30d7\u30e9\u30a4\u30d9\u30fc\u30c8
p3257
I4475
sV\u7530\u7551
p3258
I3319
sV\u88c1\u5224\u6240
p3259
I2124
sV\u6d25\u6ce2
p3260
I4567
sV\u4ed8\u304d
p3261
I3321
sV\u7b49
p3262
I1040
sV\u3051\u304c
p3263
I3509
sV\u664b
p3264
I1266
sV\u8272
p3265
I3617
sV\u30d5\u30a1\u30c3\u30b7\u30e7\u30f3
p3266
I3324
sV\u76f8\u6027
p3267
I1560
sVmodelpress
p3268
I3326
sV\u91cc
p3269
I3327
sV\u5f37\u5236
p3270
I1291
sV\u71b1\u5531
p3271
I3330
sV\u63a8\u6e2c
p3272
I3332
sVbs
p3273
I3333
sV\u30a2\u30cb\u30e1\u30fc\u30b7\u30e7\u30f3
p3274
I3334
sV\u4ed8\u3051
p3275
I3335
sVby
p3276
I3336
sV\u4e3b\u5e2d
p3277
I3337
sVusb
p3278
I1471
sV\u6761
p3279
I3339
sV\u5b9f\u73fe
p3280
I1339
sV\u5931\u8e2a
p3281
I2998
sV\u5c0f\u578b
p3282
I3342
sV\u30ab\u30dc\u30c1\u30e3
p3283
I3343
sV\u6b69
p3284
I3344
sV\u30c1\u30ea
p3285
I1377
sV75
p3286
I3346
sV\u7d4c\u6e08
p3287
I1376
sV\u5f71
p3288
I3348
sV\u9707\u5ea6
p3289
I3349
sV\u30c1\u30f3
p3290
I3350
sV\u68d2
p3291
I2890
sV\u30cb\u30ad\u30d3
p3292
I3132
sV\u5b98\u623f
p3293
I3353
sV\u4ed5\u4e0a\u304c\u308a
p3294
I3354
sV\u7a7a\u6c17
p3295
I3356
sV\u89e3\u653e
p3296
I3357
sV\u73fe\u5f79
p3297
I1451
sV\u5104
p3298
I1468
sV\u3082\u3082\u8089
p3299
I3361
sViwatani
p3300
I4541
sV\u3044\u3063\u3071\u3044
p3301
I3362
sV\u671f\u9593
p3302
I3363
sV\u6642\u534a
p3303
I1499
sV\u5973\u738b
p3304
I3365
sV\u7269\u8cea
p3305
I3366
sV\u82e6\u7b11\u3044
p3306
I799
sV\u963f\u90e8
p3307
I3368
sV\u30a6\u30a7\u30a4
p3308
I1526
sV\u30b8\u30e3\u30f3\u30eb
p3309
I1254
sV\u65b0\u8208
p3310
I3371
sV\u901a
p3311
I1540
sV\u524d\u65b9
p3312
I3373
sV\u6d77\u5cb8
p3313
I1556
sV\u793e\u4f1a
p3314
I1565
sV\u4f53\u611f
p3315
I3376
sV\u30b8\u30e3\u30f3\u30d7
p3316
I1329
sV\u6d3b\u52d5
p3317
I3378
sV\u6e26
p3318
I3379
sV\u682a
p3319
I3381
sV\u5909\u66f4
p3320
I2493
sV\u3044\u308d\u3044\u308d
p3321
I2675
sV\u3072\u3068\u3064
p3322
I3384
sV\u6cbb\u7642
p3323
I3385
sV\u98a8\u5442
p3324
I3255
sV\uff14\u6708
p3325
I3386
sV\u5897\u7530
p3326
I3387
sV\u9014\u4e0a
p3327
I3694
sV\u652f\u63f4
p3328
I3389
sV\u30aa\u30ea\u30b8\u30ca\u30eb
p3329
I1594
sV\u4e0b
p3330
I4453
sV\u30b3\u30f3\u30d4\u30e5\u30fc\u30bf
p3331
I3392
sV\u30d5\u30a9\u30ed\u30fc
p3332
I1332
sV\u524d\u65e5
p3333
I1676
sV\u30da\u30fc\u30b9\u30c8
p3334
I1681
sV\u8ca1\u56e3
p3335
I3396
sV\u518a
p3336
I4514
sV\u30b0\u30e9\u30f3\u30c9
p3337
I2228
sV\u690d\u7269
p3338
I4515
sV\u8ca9\u58f2
p3339
I3398
sV\u826f\u5fc3
p3340
I3399
sV\u958b\u50ac
p3341
I3400
sV\u6a29\u5a01
p3342
I3401
sV\u5b9a\u671f
p3343
I3403
sVgetty
p3344
I3404
sV\u958b\u696d
p3345
I2930
sV\u8c6a\u5feb
p3346
I1759
sV\u3042\u3044\u3055\u3064
p3347
I25
sV\u4e3b\u7fa9
p3348
I1771
sV\u5224\u660e
p3349
I4015
sV\u660e\u3089\u304b
p3350
I1800
sV\u515a
p3351
I3258
sV\u9003\u8d70
p3352
I3410
sV\u5916\u4ea4
p3353
I3411
sV\u56de\u907f
p3354
I1504
sV\u30dd\u30c3\u30d7
p3355
I3413
sV\u3065\u304f\u308a
p3356
I337
sV\u4e2d\u592e
p3357
I3415
sV\u884c\u4e8b
p3358
I1843
sV\u5f93\u696d
p3359
I4668
sV\u52d5\u304d
p3360
I3417
sVwindows
p3361
I3418
sV\u7d0d\u5f97
p3362
I3419
sV\u3054\u308d
p3363
I3420
sV\u5974
p3364
I1867
sV\u5b9f\u7269
p3365
I1095
sV\u66ff\u3048
p3366
I1876
sV\u7d76\u5999
p3367
I2547
sV\u571f\u65e5
p3368
I3229
sV\u7f8e\u8853
p3369
I244
sV\u91d1\u984d
p3370
I3427
sV\u5e02\u8ca9
p3371
I3382
sV\u6d66\u7530
p3372
I3431
sV\u30c8\u30ec\u30f3\u30c9
p3373
I1024
sV\u4e0d\u660e
p3374
I3433
sV\u5b9f\u529b
p3375
I3434
sV\u30b3\u30de
p3376
I3435
sVmbps
p3377
I4021
sV\u6cd5\u4eba
p3378
I3437
sV\u6b63\u89e3
p3379
I3438
sV\u65e5\u3005
p3380
I3439
sV\u4e0d\u826f
p3381
I1943
sV\u30a2\u30a6\u30c8
p3382
I1947
sV\u30d3\u30c3\u30af\u30ea
p3383
I2903
sV\uff23\uff33
p3384
I2147
sV\u56de\u308a
p3385
I3445
sV\u30b3\u30c8
p3386
I1013
sV\uff27\uff23
p3387
I3447
sV\u53ef
p3388
I3116
sV\u3054\u3068
p3389
I3449
sV\u7d42\u4e86
p3390
I3450
sVcafe
p3391
I3451
sV\uff27\uff2b
p3392
I3452
sV\u7d76\u597d
p3393
I3453
sV\u30b3\u30c4
p3394
I3454
sVfacebook
p3395
I3567
sV\u67a0
p3396
I3455
sV\u53c2\u7167
p3397
I3457
sV\u30b9\u30c8\u30ec\u30fc\u30b8
p3398
I3121
sV\u592b\u5a66
p3399
I3459
sV\u798f\u7949
p3400
I2038
sV\u6b53\u559c
p3401
I3461
sV\u6a29
p3402
I3462
sV\u5f8c\u308d
p3403
I2799
sV\u63d0\u51fa
p3404
I3463
sV\u8efd\u6e1b
p3405
I2068
sV\u4ea4\u6d41
p3406
I3466
sV\u30c7\u30fc\u30c8
p3407
I3467
sV\u8b70\u4f1a
p3408
I3468
sV\u30b3\u30e9\u30e0
p3409
I3469
sV\u30c6\u30a4\u30af\u30a2\u30a6\u30c8
p3410
I3470
sV\u4e88\u6e2c
p3411
I3471
sV\u30b3\u30ec
p3412
I3472
sV\u8239
p3413
I1059
sV\u9ad8\u7530
p3414
I3475
sV\u53d6\u308a\u6271\u3044
p3415
I3476
sV\u6dbc
p3416
I3477
sV\u72ec\u7279
p3417
I3478
sV\u52a9\u624b
p3418
I3479
sV\u7acb\u3061
p3419
I2140
sV\u9078\u629e\u80a2
p3420
I3481
sV\u5177
p3421
I3482
sV\u610f\u7fa9
p3422
I1908
sV\u6574\u5099
p3423
I2156
sV\u5bbf\u6cca
p3424
I2585
sV\u8eca\u4e21
p3425
I3485
sV\u76ee\u6483
p3426
I3486
sV\u6307\u5b9a
p3427
I3487
sV\u8d85
p3428
I2805
sV\u4e00\u7dd2
p3429
I3489
sV\u79fb\u8ee2
p3430
I2188
sV\u30de\u30fc\u30b1\u30c3\u30c8
p3431
I3491
sV\u30b9\u30c8\u30ec\u30fc\u30c8
p3432
I3492
sV\u65e5\u672c\u30c6\u30ec\u30d3
p3433
I3493
sV\u6311\u6226
p3434
I75
sV\u30c8\u30de\u30c8
p3435
I3495
sV\u30da
p3436
I2223
sV\u6b7b
p3437
I3497
sV\u30e1\u30f3\u30c6\u30ca\u30f3\u30b9
p3438
I3498
sV\u5168\u3066
p3439
I2081
sV\u30b3\u30b9
p3440
I3500
sV\u30ed\u30fc\u30c9
p3441
I2142
sVe
p3442
I2253
sV\u30fc\u30fc\u30fc
p3443
I3503
sV\u8a69
p3444
I3504
sVdvd
p3445
I3505
sV\u5357\u4eac
p3446
I3506
sVyoutube
p3447
I3507
sV\u5357\u5927\u6a4b
p3448
I3508
sV\u5c0f\u5b66\u751f
p3449
I2911
sV2002
p3450
I3510
sV2003
p3451
I2297
sV\u9e7f\u5150\u5cf6
p3452
I2301
sV\u30b0\u30eb\u30e1
p3453
I3513
sV\u30b3\u30af
p3454
I3514
sV\u90fd\u77e5\u4e8b
p3455
I2912
sV2005
p3456
I3516
sV\u30b3\u30a2
p3457
I2763
sV2008
p3458
I3518
sV\u8a8d\u5b9a
p3459
I2913
sV\u897f
p3460
I3520
sV\u5f7c\u3089
p3461
I3521
sV\u304a\u3057\u3083\u308c
p3462
I3522
sV\u52dd\u6557
p3463
I3523
sV\u30a2\u30b7\u30b9\u30bf\u30f3\u30c8
p3464
I3524
sV\u30d6\u30e9\u30b8\u30eb
p3465
I3525
sV\u4e00\u5207
p3466
I3526
sV\u6771\u5317
p3467
I3527
sV\u53bb\u5e74
p3468
I2374
sV\u7dca\u6025
p3469
I4584
sV\u888b
p3470
I3529
sV\u4f1a\u8ac7
p3471
I3530
sV\u6ed1\u843d
p3472
I3531
sV\u30b1\u30eb\u30f3
p3473
I2293
sV\u6c60\u7530
p3474
I2411
sV\u30c7\u30a4\u30ea\u30fc
p3475
I1193
sV\u7fd2\u8fd1
p3476
I3535
sV\u6614
p3477
I2421
sV\u5916
p3478
I3537
sVgo
p3479
I3538
sV\u30dc\u30c7\u30a3
p3480
I2435
sV\u3052
p3481
I1642
sV\u30d4\u30f3\u30c1
p3482
I4537
sVgk
p3483
I3540
sV\u4e0b\u8a18
p3484
I4503
sV\u5ddd\u5d0e
p3485
I2487
sV\u7121\u7406
p3486
I3543
sV\u7279\u5fb4
p3487
I3544
sV\u4fdd\u6709
p3488
I3718
sV\u793a\u5506
p3489
I3546
sV\u30a4\u30f3\u30b4\u30eb\u30b7\u30e5\u30bf\u30c3\u30c8
p3490
I3547
sV\u9178\u5473
p3491
I4198
sV\u30cb\u30e5\u30fc\u30b9
p3492
I2501
sV\u71b1
p3493
I3550
sV\u3044\u304f\u3064
p3494
I3690
sV\u30b5\u30dd\u30fc\u30bf\u30fc
p3495
I2459
sV\u30c1\u30fc\u30e0
p3496
I3552
sV\u5f53\u305f\u308a
p3497
I3553
sV\u5e0c\u671b
p3498
I3554
sV\u9577\u5b98
p3499
I3555
sV\u79c1
p3500
I3556
sV\u8457\u8005
p3501
I3557
sV\u30b3\u30ec\u30af\u30b7\u30e7\u30f3
p3502
I3456
sV\u9234\u6728
p3503
I3559
sV\u52c7
p3504
I3560
sV\u5146
p3505
I3561
sV\u8ca2\u732e
p3506
I3562
sV\u6bcd
p3507
I3563
sV\u4ecf
p3508
I3564
sV\u4ea4\u4ee3
p3509
I2939
sV\u6a2a\u65ad
p3510
I1633
sV\u6e0b\u8c37
p3511
I3007
sV\u5165\u53e3
p3512
I3568
sV\u885d\u6483
p3513
I3569
sV\u7de8
p3514
I3570
sV\u51fa\u5f35
p3515
I3571
sV\u6307\u540d
p3516
I2644
sV\u30b2\u30fc\u30e0
p3517
I3574
sV\u30d5\u30e9\u30a4\u30d1\u30f3
p3518
I721
sV\u897f\u5ddd
p3519
I3576
sV\u7a7a\u9593
p3520
I3577
sV\u5de5\u7a0b
p3521
I3578
sV\u53b3\u683c
p3522
I3579
sV\u58eb
p3523
I3580
sV\u30b7
p3524
I3581
sV\u4f1a\u5834
p3525
I3582
sV\u30b8\u30e3\u30ac\u30a4\u30e2
p3526
I3583
sV/\u25a0
p3527
I2718
sV\u53d6\u6271
p3528
I2724
sV\u9078\u6319
p3529
I3586
sV?
p3530
I4550
sV\u3060\u3089\u3051
p3531
I2292
sV\u770b\u8b77
p3532
I3588
sV\u30bb\u30af\u30b7\u30fc
p3533
I4551
sV\u5185\u7530
p3534
I3590
sV\u6c5f\u6238
p3535
I4169
sV\u30cf\u30c3\u30b7\u30e5
p3536
I3257
sV\u30d5\u30ec\u30fc\u30e0
p3537
I3592
sV\uff05
p3538
I68
sV\u5473\u308f\u3044
p3539
I1963
sV\u539f\u6599
p3540
I3429
sV\u5341\u5206
p3541
I224
sV\u9032\u51fa
p3542
I3597
sV\u8a8c
p3543
I3598
sV\u8a2d\u7acb
p3544
I3599
sVlicensed
p3545
I3600
sV\u30b9\u30a2\u30ec\u30b9
p3546
I1974
sV\u4e00\u54c1
p3547
I4554
sV\u9996
p3548
I3603
sV\u539f\u6587
p3549
I2851
sV\u6620\u753b
p3550
I4643
sV\u30c0\u30c3\u30b7\u30e5
p3551
I3605
sV\u9699\u9593
p3552
I3606
sV\u59c9\u59b9
p3553
I3607
sV\u4e2d\u76e4
p3554
I3608
sV\u30b9\u30d1\u30a4\u30b9
p3555
I904
sV\u753a\u5185
p3556
I3610
sV\u5927\u4eba\u6c17
p3557
I3611
sV\u5426\u5b9a
p3558
I1830
sV\u5e2f
p3559
I3613
sV\u30a4\u30f3
p3560
I3614
sV\u30d3\u30e5\u30fc\u30c6\u30a3\u30fc
p3561
I2935
sV\u983b\u7e41
p3562
I3616
sV\u30e2\u30f3\u30b9\u30bf\u30fc
p3563
I2346
sV\u4fdd\u5b58
p3564
I4478
sV\u6b69\u884c
p3565
I3618
sV\u30d4\u30f3
p3566
I3750
sV\u30b0\u30e9\u30c9\u30eb
p3567
I3619
sV\u4e2d\u56fd
p3568
I3620
sV\u30a4\u30ae\u30ea\u30b9
p3569
I3621
sV\u8fba
p3570
I3622
sV\u30a8\u30f3\u30b8\u30f3
p3571
I3128
sV\u4f1a\u8a71
p3572
I2341
sV\u3060\u3057
p3573
I1368
sV\u30c8\u30e9\u30d6\u30eb
p3574
I3626
sV\u5224\u65ad
p3575
I3627
sVled
p3576
I3628
sV\u5145\u96fb
p3577
I3629
sV\u99ac
p3578
I4063
sV\uff26\uff37
p3579
I3630
sV\u30c8\u30ed\u30f3\u30c8
p3580
I3631
sV\u30ea\u30e9\u30c3\u30af\u30b9
p3581
I2288
sV\u52a0\u5165
p3582
I4512
sV\u516c\u958b
p3583
I3633
sV\u3042\u3089
p3584
I3634
sV\u5730\u5143
p3585
I1682
sV\u30a4\u30e4
p3586
I3636
sV\u60f3\u50cf
p3587
I3637
sV\u30e2\u30f3
p3588
I3639
sV\u30ef\u30fc\u30c9
p3589
I3640
sV\u30de\u30a4\u30ca\u30d3\u30a6\u30fc\u30de\u30f3
p3590
I3082
sV\u30b8\u30e7\u30f3
p3591
I3642
sV\u30c8\u30ec\u30fc\u30cb\u30f3\u30b0
p3592
I3094
sV39
p3593
I3101
sV38
p3594
I3646
sV\u6ed1\u3089\u304b
p3595
I1395
sV33
p3596
I1874
sV32
p3597
I3123
sV31
p3598
I2048
sV30
p3599
I3651
sV37
p3600
I3652
sV\u6253
p3601
I370
sV35
p3602
I3654
sV\u5dee
p3603
I2886
sV\u751f\u606f
p3604
I3656
sV\u5473
p3605
I3657
sV\u53f2
p3606
I3658
sV\u30c8\u30e9\u30a4
p3607
I57
sV\u5024\u6bb5
p3608
I3660
sV\u30d5\u30a1\u30ca\u30c6\u30a3\u30c3\u30af
p3609
I3648
sV648
p3610
I3661
sV\u4f01\u753b
p3611
I3183
sV\u713c\u304d
p3612
I3663
sVreds
p3613
I3208
sVapple
p3614
I3666
sV\u7387
p3615
I3667
sV\u9006
p3616
I3668
sV\u30ed\u30f3\u30c9\u30f3
p3617
I3669
sV\u5408\u540c
p3618
I2992
sV\u5171\u901a
p3619
I3671
sV\u52df\u96c6
p3620
I4126
sV\u610f\u6c17\u8fbc\u307f
p3621
I3254
sV\u4f7f\u3044\u52dd\u624b
p3622
I3673
sV\u596e\u95d8
p3623
I3263
sV\u9014\u4e2d
p3624
I3675
sV\u5b97
p3625
I3676
sV\u3046\u3048
p3626
I3677
sV\u7d18
p3627
I3678
sV\u8c6a\u83ef
p3628
I3679
sV\u904a\u3073
p3629
I2941
sV\u25b6
p3630
I4153
sV\u53d7\u4ed8
p3631
I3681
sV\u9001\u4fe1
p3632
I2299
sV\u9078\u624b
p3633
I3683
sV\u4e8b
p3634
I4437
sV\u53cd\u7701
p3635
I3684
sV\u6307
p3636
I1380
sV&
p3637
I1505
sV\u5730\u70b9
p3638
I3359
sV\u6b73\u6708
p3639
I3688
sV\u8ee2\u8f09
p3640
I3689
sV\u80fd\u529b
p3641
I3367
sV\u30d6\u30c3\u30af
p3642
I3691
sV\u3046\u3061
p3643
I3692
sV\uff32
p3644
I3474
sV\u8b1b\u5ea7
p3645
I3388
sV\u4ea4\u63db
p3646
I2353
sV\u56fd\u5883
p3647
I3696
sV\u4ffa
p3648
I3697
sVd
p3649
I3266
sV\u81ea\u5206
p3650
I3699
sV\u6ce8\u6587
p3651
I3700
sV\u9b45\u4e86
p3652
I4594
sV\u5973\u5b50\u9ad8
p3653
I3432
sV\u51fa\u5e2d
p3654
I3702
sV\u30a4\u30b9\u30e9\u30e0
p3655
I3647
sV\u7532\u5b50\u5712
p3656
I2578
sV\u6295\u624b
p3657
I3704
sVon
p3658
I3705
sV\u4e3b\u50ac
p3659
I3575
sV\u6b4c
p3660
I3706
sV\u5b87\u5b99
p3661
I3707
sV\u30af\u30ea\u30fc\u30e0
p3662
I3708
sV\u76ee\u6a19
p3663
I3710
sV\u6bce\u9031
p3664
I4086
sV\u8868\u53c2\u9053
p3665
I2951
sV\u611b\u60c5
p3666
I2089
sV\u89e3\u50cf\u5ea6
p3667
I1754
sV\u308f\u3055\u3073
p3668
I3714
sV\u5965
p3669
I2187
sV\u51db
p3670
I3716
sV\u305d\u308c\u3089
p3671
I3717
sV\u52dd
p3672
I3545
sV\u53ce\u7d0d
p3673
I4572
sV\u6557\u6226
p3674
I3720
sVf
p3675
I3722
sVthis
p3676
I3585
sV\u4e88\u60f3
p3677
I3587
sV\u59eb
p3678
I3725
sV\u266a
p3679
I333
sV\u540d\u8a89
p3680
I3727
sV\u30bf\u30fc\u30b2\u30c3\u30c8
p3681
I3728
sV\u653b\u6483
p3682
I3729
sV\u6f14\u594f
p3683
I3730
sV\u79d8\u66f8
p3684
I1939
sV\u5272
p3685
I3732
sV\u958b\u5e97
p3686
I2352
sV\u9774
p3687
I3734
sV\u30d4\u30ea
p3688
I3756
sV\u793e
p3689
I3736
sV\u7de8\u96c6
p3690
I3649
sV\u67ff
p3691
I3739
sV\uff11\u3064
p3692
I3740
sV\u7948\u9858
p3693
I1020
sV\u5de6\u8db3
p3694
I1177
sV\u89b3\u5bdf
p3695
I3743
sV\u30d1\u30d5\u30a9\u30fc\u30de\u30f3\u30b9
p3696
I3744
sV\u6709\u6a5f
p3697
I3745
sV\u30dd\u30b1\u30e2\u30f3
p3698
I1249
sV\u5409
p3699
I3747
sV\u30e6\u30fc\u30b6\u30fc
p3700
I2817
sV://
p3701
I3888
sV\u5e73\u6210
p3702
I3703
sV\u7fa4\u99ac
p3703
I2953
sV\u4f11\u307f
p3704
I3751
sV\u30b5\u30af\u30c3
p3705
I3752
sV\u4f7f\u3044\u65b9
p3706
I3753
sV\u6442\u53d6
p3707
I3754
sV\u8ca8\u7269
p3708
I1916
sV\u88c5\u5099
p3709
I3735
sV\u6c17\u6301\u3061
p3710
I3757
sV\u7d20\u76f4
p3711
I3758
sV\u30bb\u30ad\u30e5\u30ea\u30c6\u30a3\u30fc
p3712
I3759
sV\u30d7\u30ed\u30c0\u30af\u30c8
p3713
I3760
sV\u6c96\u7e04
p3714
I3761
sV\u521d
p3715
I3762
sV\u5b89\u5fc3
p3716
I1393
sV\u571f
p3717
I3764
sV\u7d42\u76e4
p3718
I2285
sV\u5730\u9762
p3719
I4578
sV\u7d50\u5a5a
p3720
I3767
sV\u30c0\u30d6\u30eb
p3721
I243
sV\u8131\u51fa
p3722
I3770
sV\u691c\u51fa
p3723
I3771
sV\u30df\u30e5\u30f3\u30d8\u30f3
p3724
I3772
sV\u5c0f\u58f2
p3725
I3763
sV\u9031
p3726
I3774
sVcd
p3727
I4275
sV\u512a\u5148
p3728
I3775
sV\u30bd\u30d5\u30c8\u30d0\u30f3\u30af
p3729
I3768
sV\u9762\u5012
p3730
I2796
sV\u4ed9\u53f0
p3731
I3778
sV\u524d\u7dda
p3732
I4260
sVafp
p3733
I3779
sV\u30ab\u30a6\u30f3\u30bf\u30fc
p3734
I3780
sV\u30b3\u30de\u30f3\u30c9
p3735
I3781
sVprofile
p3736
I3782
sV\u6821
p3737
I3765
sV\u81ea\u5df1
p3738
I3325
sV\u3044\u304f\u3089
p3739
I3784
sV\u5e45
p3740
I3785
sV\u5fc3\u914d
p3741
I3786
sV\u30d4\u30b6
p3742
I3787
sV\u30ad\u30e3\u30e9
p3743
I3052
sV\u524d\u6b6f
p3744
I3789
sV\u30c1\u30b1\u30c3\u30c8\u3074\u3042
p3745
I4582
sV\u30ab\u30c3\u30c8
p3746
I554
sV\u897f\u5c71
p3747
I3792
sV\u5927\u5b66
p3748
I3794
sV\u5b89\u6253
p3749
I3795
sV\u76f4\u9762
p3750
I3623
sV\u7686
p3751
I4670
sV\u5b57
p3752
I3796
sV\u9055\u3044
p3753
I2207
sV\u533b\u5e2b
p3754
I3798
sV\u30d3\u30fc\u30d5
p3755
I3799
sV\u964d\u677f
p3756
I3800
sV\u30cf\u30e0
p3757
I3801
sV\u9023\u52dd
p3758
I3320
sV\u8a2d\u5b9a
p3759
I3803
sV\u9152\u4e95
p3760
I3551
sV\u540d\u8a00
p3761
I3805
sV\u5b9a\u4f11
p3762
I4646
sV\u30d3\u30fc\u30eb
p3763
I3806
sV\u30af\u30de
p3764
I3807
sV\u81ea\u52d5
p3765
I3808
sV\u30da\u30fc\u30b9
p3766
I3809
sV\u602a\u6211
p3767
I3810
sV\u5473\u564c\u6c41
p3768
I3811
sV\u97f3\u8cea
p3769
I3812
sV?\u300d
p3770
I3813
sV\u9078\u629e
p3771
I3814
sV\u9078\u629c
p3772
I3815
sV\u5b89\u4fa1
p3773
I3816
sV\u89b3\u5ba2
p3774
I3817
sV\u4eac\u90fd
p3775
I3818
sV\u9023\u6557
p3776
I3819
sV\u6df1\u523b
p3777
I3769
sV\u677f
p3778
I3821
sV\u8eab\u5143
p3779
I3822
sV\u30df\u30e5\u30fc\u30b8\u30b7\u30e3\u30f3
p3780
I3823
sV\u6301\u53c2
p3781
I3738
sV\u30e6\u30fc\u30ed
p3782
I3825
sV\u8abf\u3079
p3783
I3827
sV\u81ea\u7136
p3784
I3829
sV\u6570\u3005
p3785
I2966
sV\u30ab\u30d0\u30fc
p3786
I3831
sV\u30d6\u30eb\u30fc\u30d9\u30ea\u30fc
p3787
I3832
sV\u6210
p3788
I3833
sV130
p3789
I3834
sV\u5897
p3790
I3835
sV\u30bd\u30ed
p3791
I3836
sV\u5b9a\u8a55
p3792
I3837
sV\u529b
p3793
I3838
sV\u5357\u90e8
p3794
I1718
sV\u5c02\u9580
p3795
I2915
sV\u4e00\u9023
p3796
I2304
sV\u8cbb\u7528
p3797
I3843
sV\u30d9\u30c8\u30ca\u30e0
p3798
I3612
sV\u6587
p3799
I3844
sV\u4fdd
p3800
I3845
sV\u30ac\u30a4\u30c9
p3801
I3846
sV\u8abf\u9054
p3802
I3847
sV\u3073\u3063\u304f\u308a
p3803
I1316
sV\u30de\u30c3\u30b5\u30fc\u30b8
p3804
I1905
sV\u30e0\u30fc\u30d3\u30fc
p3805
I1992
sV2018
p3806
I3850
sV\u30a8\u30f3
p3807
I3851
sV\u604b\u611b
p3808
I3665
sV2014
p3809
I3853
sV2017
p3810
I3854
sV\u7aef\u5b50
p3811
I3855
sV2011
p3812
I3856
sV2010
p3813
I3857
sV2013
p3814
I3858
sV2012
p3815
I3859
sV\u30d7\u30ec\u30c3\u30b7\u30e3\u30fc
p3816
I3860
sV\u5efa\u8a2d
p3817
I3861
sV\u5343\u8449
p3818
I3862
sV\u8abf\u6574
p3819
I2210
sV\u500b\u6027
p3820
I3864
sV\u30ab\u30c3\u30b3
p3821
I3264
sV\u53ce\u5bb9
p3822
I3566
sV\u5065\u4e8c
p3823
I3866
sV\u5b9f\u9a13
p3824
I4595
sV\u8a00\u8449
p3825
I3869
sV\u6700\u4f4e
p3826
I3870
sV\u65b0\u6f5f
p3827
I3871
sV\u65b0\u4f5c
p3828
I3872
sV\u72ec\u7acb
p3829
I4596
sV\u7406\u60f3
p3830
I376
sV\u516c\u5712
p3831
I3874
sV\u76f8\u5f53
p3832
I3709
sV\u8eca\u5185
p3833
I1958
sV\u592b
p3834
I3877
sV\u3061\u3083\u3093
p3835
I3308
sVday
p3836
I3878
sV\u5b97\u6559
p3837
I3879
sV\u4ee3
p3838
I3880
sV\u30c0\u30f3\u30b9
p3839
I655
sV\u4e00\u3064
p3840
I3882
sV\u3053\u3068\u3057
p3841
I3883
sV\u4e3b\u529b
p3842
I3884
sV\u4f1a\u8b70
p3843
I3885
sV\u30aa\u30ea\u30fc\u30d6
p3844
I4600
sV\u66f4\u65b0
p3845
I3887
sV\u30cf\u30fc\u30d5\u30bf\u30a4\u30e0
p3846
I711
sV\u5730\u9707
p3847
I3430
sV\u56f3
p3848
I3889
sVsim
p3849
I3891
sV\u3069\u3053\u308d
p3850
I2579
sV\u4fdd\u8a3c
p3851
I3893
sV\u30af\u30e9\u30d5\u30c8
p3852
I2653
sV\u5f53\u5c40
p3853
I3894
sV\u65e2\u5b58
p3854
I3895
sV|
p3855
I3896
sV\u96e2\u8131
p3856
I3898
sV\u6559\u3048
p3857
I3900
sV\u9593\u9055\u3044
p3858
I2954
sV\u6750\u6599
p3859
I3901
sV\u524d\u8db3
p3860
I4602
sV\u5186\u6ed1
p3861
I3783
sV\u6392\u9664
p3862
I3903
sV\u30d5\u30a9\u30c8
p3863
I3904
sV\u584a
p3864
I3905
sV\u5e73\u548c
p3865
I2215
sV700
p3866
I3907
sV\u6c0f
p3867
I3908
sVbluetooth
p3868
I3909
sV\u89e3\u6c7a
p3869
I115
sV89
p3870
I2592
sV\u62b5\u6297
p3871
I4152
sV\uff5e\u300d
p3872
I3912
sV\u30b7\u30eb\u30d0\u30fc
p3873
I3913
sV\u3064\u307e\u308a
p3874
I3206
sV\uff19
p3875
I3915
sV\u5165\u6d74
p3876
I3916
sV\uff5e\u3002
p3877
I3917
sV\u81ea\u4f53
p3878
I643
sV\u5ea6\u76ee
p3879
I3919
sV\u6b21
p3880
I3920
sV\u8aa0
p3881
I3921
sV\u540c\u69d8
p3882
I4425
sV\u65e2\u5a5a
p3883
I4037
sV'
p3884
I3923
sV\u66f8\u7c4d
p3885
I3924
sV\u5730\u533a
p3886
I3925
sV\uff2d\uff26
p3887
I3926
sV\u8cc7\u683c
p3888
I3927
sV\u6539\u88c5
p3889
I3928
sV\u98a8\u5473
p3890
I3089
sV\u4e0d\u6b63
p3891
I4511
sV\u4e0d\u601d\u8b70
p3892
I3931
sV\u30d5\u30a9\u30f3
p3893
I3932
sV\u4eba\u751f
p3894
I3933
sV\u770c
p3895
I3934
sV\u52dd\u624b
p3896
I4608
sV\u75b2\u308c
p3897
I3936
sV\u30ab\u30ec\u30fc
p3898
I3937
sV\u672c\u683c
p3899
I3938
sV\u5e74\u751f
p3900
I2845
sV\u7570\u6027
p3901
I3380
sV\u885b\u751f
p3902
I3940
sV\u30ae\u30bf\u30fc
p3903
I3941
sV\u56de\u7dda
p3904
I76
sV\u3064\u304d
p3905
I3873
sV\u30a2\u30ea\u30fc\u30ca
p3906
I608
sV\u9ad8\u984d
p3907
I3944
sV\u6a4b
p3908
I3945
sV\u904e\u7a0b
p3909
I2455
sV\u4e57\u308a
p3910
I3947
sV\u73fe\u72b6
p3911
I3948
sV\u98f2\u6599
p3912
I3791
sV\u5b66\u9662
p3913
I3951
sV\u6700\u8fd1
p3914
I130
sV\u4ed8\u5c5e
p3915
I2197
sV\u82eb\u5c0f\u7267
p3916
I3954
sV\u725b
p3917
I3955
sV\u7dda
p3918
I3956
sV...
p3919
I3248
sV\u307f\u305d
p3920
I3957
sV\u524d\u56de
p3921
I3958
sV\u4ed5\u69d8
p3922
I3959
sVg
p3923
I3960
sV\u5927\u5b66\u9662
p3924
I4484
sV\u624b\u8377\u7269
p3925
I3215
sV\u30d1\u30c3\u30af
p3926
I3962
sV\u4e00\u90e8
p3927
I3963
sV\u66d6\u6627
p3928
I3328
sV\u307f\u3053
p3929
I214
sV\u30ab\u30c3\u30d7
p3930
I3966
sV\u96f0\u56f2\u6c17
p3931
I235
sVlte
p3932
I3968
sV\u8ffd\u6c42
p3933
I3969
sV\u6f2b\u753b
p3934
I3970
sV\u8ef8
p3935
I256
sV\u30a2\u30c3\u30d7
p3936
I3972
sV\u84c4\u7a4d
p3937
I3974
sV\u7518\u307f
p3938
I3695
sV\u30e9\u30fc\u30e1\u30f3
p3939
I3973
sV\u8aac\u660e
p3940
I306
sV\u30b0\u30ec\u30fc
p3941
I3978
sV\u629c\u7c8b
p3942
I3849
sV\u5929\u7136
p3943
I3980
sV\u30d6\u30ed\u30c3\u30af
p3944
I4553
sV\u591a\u304f
p3945
I3981
sV\u5408\u610f
p3946
I3982
sV\uff18
p3947
I369
sV\u304a\u5ba2\u69d8
p3948
I4620
sV\u53cd\u97ff
p3949
I3985
sV\u30cf\u30ed\u30a6\u30a3\u30f3
p3950
I3986
sV\u78ba\u8a8d
p3951
I391
sV\u6b8b\u308a
p3952
I3724
sV\u30ab\u30eb\u30c1\u30e3\u30fc
p3953
I1749
sV\u304a\u304b\u305a
p3954
I411
sV\u30e9\u30f3\u30ad\u30f3\u30b0
p3955
I2231
sV\u6728
p3956
I3992
sV\uff09\uff5e
p3957
I2994
sV\u30ef\u30fc\u30af
p3958
I3625
sV\u8b1b\u8ac7\u793e
p3959
I2454
sV\u83dc
p3960
I3242
sV\u5909
p3961
I3996
sV1500
p3962
I456
sV\u304b\u3051
p3963
I4028
sV\u51fa\u5c55
p3964
I3998
sV\u6e80\u70b9
p3965
I3999
sV\u5546\u696d
p3966
I3061
sV\u5fc3
p3967
I4001
sV\u4e0b\u90e8
p3968
I4002
sV\u30df\u30e5\u30fc\u30b8\u30c3\u30af
p3969
I4003
sV\u7d44
p3970
I4004
sV\u5de5\u592b
p3971
I4005
sV\u4e00\u53e3
p3972
I3804
sV\u4e5d\u5dde
p3973
I4007
sV\u614e\u91cd
p3974
I4368
sV\u30b9\u30de
p3975
I4008
sV\u9752\u6625
p3976
I4009
sV\u756a\u76ee
p3977
I4010
sV\u6052
p3978
I4011
sV\u305f\u3073
p3979
I4012
sV\u5b66\u751f
p3980
I3773
sV\u60c5\u5831
p3981
I3414
sV\u305d\u306e\u5f8c
p3982
I4014
sV\u9678\u4e0a
p3983
I616
sV\u682a\u5f0f\u4f1a\u793e
p3984
I4016
sV\u8a95\u751f
p3985
I4017
sV\u89e3\u6d88
p3986
I2137
sV\u4e0d\u6e80
p3987
I636
sV\u5316\u7ca7
p3988
I640
sV\u516d\u672c\u6728
p3989
I324
sV\u30b3\u30f3\u30d1\u30af\u30c8
p3990
I4022
sV\u51fa\u73fe
p3991
I4024
sV\u30d8\u30ea\u30b3\u30d7\u30bf\u30fc
p3992
I4025
sV\u53eb\u3073
p3993
I4026
sV\u8fd1\u6240
p3994
I679
sV\u77f3
p3995
I685
sV\u516c\u5f0f
p3996
I4029
sV\u98f2\u98df
p3997
I4030
sV\u30a2\u30a4\u30b3
p3998
I4031
sV\u7206\u5f3e
p3999
I4032
sV\u7d30\u90e8
p4000
I3993
sV\u82e6\u624b
p4001
I4034
sV\u304b\u305f
p4002
I720
sV\u56fd\u7acb
p4003
I588
sV\u30ec\u30b9
p4004
I729
sV\u5229\u70b9
p4005
I4039
sV\u30dc\u30d6
p4006
I4040
sV\u85e4\u672c
p4007
I4041
sV\u5148\u9031
p4008
I2036
sV\uff11\uff12\u6708
p4009
I4043
sV\u30a2\u30a6\u30a7\u30fc
p4010
I4672
sV\u30d3\u30c7\u30aa
p4011
I4044
sV\u30ab\u30ab\u30aa
p4012
I4045
sV\u516c\u76ca
p4013
I4046
sV\u4e00\u89d2
p4014
I2556
sV\u4e8b\u696d
p4015
I4047
sV\u30de\u30a4\u30ca\u30b9
p4016
I2785
sV\u963b\u6b62
p4017
I4049
sV750
p4018
I2703
sV\u30eb\u30a4\u30b9
p4019
I4051
sV\u30de\u30a4\u30af\u30ed
p4020
I812
sV\u30a2\u30ab\u30c7\u30df\u30fc
p4021
I4585
sV\u30b7\u30ca\u30ea\u30aa
p4022
I4054
sV\u5f0f\u5178
p4023
I3906
sV\u30d9\u30b9\u30c8
p4024
I4055
sV\u751f
p4025
I4056
sV\u770c\u5185
p4026
I4057
sV\u3086
p4027
I4058
sV\u8fd4\u91d1
p4028
I4059
sV\u65e9\u671f
p4029
I2691
sV\u65b0\u4eba
p4030
I867
sV\u30aa\u30fc\u30ca\u30fc
p4031
I669
sV\u982d
p4032
I4062
sV\u53ce\u9332
p4033
I2469
sV\u5927\u962a
p4034
I4065
sV\u653f\u7b56
p4035
I4061
sV320
p4036
I4066
sV\u5404\u56fd
p4037
I4067
sV45
p4038
I4688
sV\u81ea\u3089
p4039
I4068
sV\u7d9a\u51fa
p4040
I4069
sV\u30af\u30ea\u30f3\u30c8\u30f3
p4041
I4070
sV\u30b2\u30c3\u30c8
p4042
I1437
sV\u89b3\u5149
p4043
I4072
sV\u30a2\u30b8\u30a2
p4044
I3899
sV=
p4045
I4074
sVhp
p4046
I4636
sV\u5927\u5909
p4047
I945
sV\u7bc0
p4048
I1609
sV\u516c\u7684
p4049
I4077
sV\u3069\u3061\u3089
p4050
I4078
sV\u30b3\u30f3\u30bb\u30d7\u30c8
p4051
I968
sV\u5225\u308c
p4052
I3008
sV00
p4053
I3080
sV\u7279\u6709
p4054
I4082
sV\u52b4\u50cd
p4055
I4083
sV\u4e0a\u624b
p4056
I1018
sV\u7d30\u304b
p4057
I404
sV\u4e00\u5e55
p4058
I3830
sV\u540c\u56fd
p4059
I4088
sV\u4e0d\u8db3
p4060
I4089
sV\u56de
p4061
I4090
sV\u4e16\u8ad6
p4062
I4091
sV\u30d3\u30eb
p4063
I4092
sV\u539a
p4064
I4093
sV\u30d0\u30ea\u30a8\u30fc\u30b7\u30e7\u30f3
p4065
I4094
sV\u81ea\u885b\u968a
p4066
I1066
sV\u6750
p4067
I4639
sV\u2669
p4068
I1074
sV\u5b6b
p4069
I4097
sV05
p4070
I4098
sV\u30eb\u30fc\u30ad\u30fc
p4071
I4099
sV\u4eca\u9031
p4072
I4100
sV\u6df1\u307f
p4073
I4101
sV\u6e29\u6cc9
p4074
I4102
sV\u53f0
p4075
I596
sV\u5f37\u5f15
p4076
I4104
sV\u98a8
p4077
I3355
sV\u6771\u90e8
p4078
I1211
sV\u57fa\u6e96
p4079
I1137
sV\u75b2\u52b4
p4080
I4451
sV08
p4081
I3221
sV\u30d1\u30fc\u30bd\u30ca\u30eb
p4082
I4109
sV\u8e0f\u5207
p4083
I4110
sV\u30ad\u30e5\u30fc\u30c8
p4084
I4111
sV\u5f62
p4085
I1817
sV\u5fc5\u9808
p4086
I4113
sV\u611f
p4087
I4114
sV\u5e02\u5185
p4088
I1446
sV\u30ad\u30e3\u30c3\u30c1
p4089
I4116
sVtext
p4090
I1148
sV\u30ab\u30e1\u30e9
p4091
I1191
sV\u6e56
p4092
I2251
sV\u79c1\u670d
p4093
I4119
sV\u6b4c\u624b
p4094
I4120
sVwatch
p4095
I3788
sV\u56fd\u5bb6
p4096
I3824
sV\u4e8b\u4ef6
p4097
I4122
sV\u5e97
p4098
I1232
sV\u8af8\u56fd
p4099
I4124
sV\u5999
p4100
I239
sV\u53cb\u4eba
p4101
I1388
sV\u751f\u304d\u7269
p4102
I4127
sV\u610f\u5473
p4103
I2085
sV\u982c
p4104
I3848
sV\u5b50\u80b2\u3066
p4105
I4129
sV\u5171\u5b58
p4106
I4130
sV\u697d\u3057\u307f
p4107
I2528
sV\u9ad8\u5ea6
p4108
I4132
sV\u76f8\u8ac7
p4109
I4133
sV\u65e5\u6642
p4110
I4134
sV\u5f97\u610f
p4111
I1799
sV\u30b3
p4112
I4136
sV\u5b50\u72ac
p4113
I4137
sV\u516c\u5171
p4114
I4138
sV\u30e2\u30ce
p4115
I3650
sV\u30d4\u30fc\u30b9
p4116
I1352
sV\u7dba\u9e97
p4117
I4141
sV\u65b9\u6cd5
p4118
I2618
sV\u663c
p4119
I3065
sV\u5e7d\u970a
p4120
I1371
sV\u60b2\u9cf4
p4121
I2877
sV\u6295\u7a3f
p4122
I4146
sV\u30c9\u30c3\u30c8
p4123
I2739
sV\u30d7\u30ed\u30b0\u30e9\u30e0
p4124
I4148
sV\u89e3\u8aac
p4125
I4149
sV\u30a4\u30d9\u30f3\u30c8
p4126
I4150
sV\u7279\u5225
p4127
I4151
sVtbs
p4128
I1529
sV\u534a
p4129
I1411
sV\u56de\u7b54
p4130
I4154
sV\u4eba\u53e3
p4131
I4155
sV120
p4132
I4156
sV122
p4133
I4157
sV123
p4134
I4158
sV125
p4135
I4159
sV\u30d1\u30fc\u30c8\u30ca\u30fc
p4136
I4160
sV\u4e00\u751f
p4137
I4607
sV\u82f1\u8a9e
p4138
I1457
sV\u884c\u65b9
p4139
I1485
sV\u6c60
p4140
I4164
sV\u30e6\u30cd\u30b9\u30b3
p4141
I4165
sV\u4e0d\u8981
p4142
I4166
sV\u5370\u5237
p4143
I4167
sV\u97f3\u697d
p4144
I4168
sV\u30b7\u30a7\u30a2
p4145
I1198
sV\u9759\u5ca1
p4146
I4170
sV\u5973\u6027
p4147
I606
sV\u8857\u982d
p4148
I4172
sV\u767a\u898b
p4149
I4173
sV\u30ae\u30e3\u30e9\u30ea\u30fc
p4150
I4174
sV\u7aef
p4151
I4175
sV\u5ea7\u308a
p4152
I3026
sV\u4e0a\u65ec
p4153
I1538
sV\u30f3
p4154
I4178
sV\u30c7\u30b6\u30fc\u30c8
p4155
I4179
sV\u8fd4\u6e08
p4156
I1562
sV\u3068\u3053
p4157
I4654
sV\u64cd\u4f5c
p4158
I4181
sV\u9031\u672b
p4159
I4182
sV\u69cb\u7bc9
p4160
I4183
sV\u610f\u5411
p4161
I4184
sV\u8b1d\u7f6a
p4162
I4185
sV\u5bb9\u5668
p4163
I1598
sV\u9803
p4164
I4187
sV\u5185\u91ce
p4165
I1072
sV\u30d2\u30f3\u30c8
p4166
I2688
sV\u30c4\u30c3\u30b3\u30df
p4167
I4190
sV\u30b9\u30c8\u30a2
p4168
I4191
sV\u5c11\u306a\u3081
p4169
I1626
sV\u4e0d\u5b89\u5b9a
p4170
I3711
sV\u5fc3\u7406
p4171
I493
sV\u30d0\u30c3\u30af\u30a2\u30c3\u30d7
p4172
I1462
sV\u2013
p4173
I4195
sV\u3078\u3093
p4174
I1747
sV\u533b\u5b66
p4175
I4196
sV\u5bc4\u4ed8
p4176
I4197
sV\u30cf\u30fc\u30c9\u30a6\u30a7\u30a2
p4177
I2387
sV\u5378\u58f2
p4178
I4199
sV\u541b
p4179
I4200
sV\u30de\u30c3\u30c1
p4180
I4201
sV\u66ae\u3089\u3057
p4181
I3573
sV\u6599\u91d1
p4182
I3532
sV\u7d1a
p4183
I3839
sV\u30ec
p4184
I4206
sV\u53ce\u5165
p4185
I2711
sV\u5316\u5b66
p4186
I4207
sV\u51fa\u529b
p4187
I3202
sV\u819d
p4188
I4209
sV\u5168\u56fd
p4189
I4210
sV\u30b9\u30bf\u30c3\u30d5
p4190
I4211
sV\u53f3
p4191
I4658
sV\u30d0\u30c3\u30af
p4192
I3316
sV\u53cd\u8ee2
p4193
I4214
sV\u74b0
p4194
I1780
sV\u6d17\u7df4
p4195
I4659
sVgalaxy
p4196
I4217
sV\u6717\u5831
p4197
I1798
sV\u30dc\u30eb\u30b7\u30a2
p4198
I4219
sV\u30e1\u30a4\u30af
p4199
I4220
sV\u6751\u4e0a
p4200
I4221
sV\u4e2d\u5b66\u751f
p4201
I4222
sV\u30c0\u30a4\u30ec\u30af\u30c8
p4202
I4223
sV\u30e2\u30fc\u30cb\u30f3\u30b0
p4203
I4224
sV\u7a74
p4204
I4225
sV\u914d\u616e
p4205
I3033
sV\u53f7\u6ce3
p4206
I1003
sV\u5fc5\u6b7b
p4207
I4227
sV\u9060\u85e4
p4208
I4228
sV\u512a\u52dd
p4209
I3842
sV\u30d5\u30ea\u30fc
p4210
I2554
sV\u90ca\u5916
p4211
I4231
sV\u4f4d\u7f6e
p4212
I4232
sV\u4f4d
p4213
I4233
sV\u30d3\u30bf\u30df\u30f3
p4214
I4234
sV\u666e\u53ca
p4215
I4235
sV\u8868\u7d19
p4216
I4236
sV\u3053\u308c\u3089
p4217
I4237
sV\u5076\u7136
p4218
I4238
sV\u3042\u3061\u3053\u3061
p4219
I4239
sV\u8d70\u308a
p4220
I4240
sV\u884c\u653f
p4221
I2135
sV\u5927\u9678
p4222
I3347
sV\u30d0\u30b9\u30b1\u30c3\u30c8\u30dc\u30fc\u30eb
p4223
I4530
sV\u30e1\u30a4\u30c9
p4224
I4243
sV\u6e80\u9762
p4225
I4244
sV\u8863
p4226
I4245
sV\u6050\u6016
p4227
I4246
sV\u30e1\u30a4\u30f3
p4228
I4247
sV\u5e97\u54e1
p4229
I4248
sV\u6238\u7c4d
p4230
I4249
sV\u88fd\u4f5c
p4231
I4250
sV\u80cc\u5f8c
p4232
I1978
sV\u4e8b\u52d9\u6240
p4233
I4252
sV\u30d5\u30a1\u30fc\u30b9\u30c8
p4234
I1986
sV\u91cd\u8996
p4235
I4375
sV\u5927\u5e45
p4236
I4254
sV\u682a\u5f0f
p4237
I2339
sV\u9375
p4238
I1087
sV\u88dc\u6b63
p4239
I4257
sV\u5149\u666f
p4240
I2021
sV\u98fc\u80b2
p4241
I4633
sV\u88f8
p4242
I4259
sV\u30aa\u30fc\u30c7\u30a3\u30a8\u30f3\u30b9
p4243
I2273
sV\u30e9\u30c3\u30d7
p4244
I2040
sV\u628a\u63e1
p4245
I2431
sVck
p4246
I4264
sV\u7e01
p4247
I575
sV\u5e02
p4248
I4266
sVco
p4249
I4267
sV\u30d4\u30fc\u30ca\u30c3\u30c4
p4250
I3039
sV\u4f5c\u6210
p4251
I86
sV\u7406
p4252
I4270
sV\u3089
p4253
I778
sV\u79f0\u8cdb
p4254
I4272
sV\u520a
p4255
I4273
sV\u5c11\u5973
p4256
I4274
sV\u30b9\u30dd\u30f3\u30b8
p4257
I2109
sV\u6c34\u7523
p4258
I4276
sV\u30b8\u30f3
p4259
I4241
sV\u7d99\u7d9a
p4260
I4277
sV\u30af\u30ea\u30a2
p4261
I2127
sV\u62db\u96c6
p4262
I4279
sV\u5f97
p4263
I4280
sVnews
p4264
I4281
sV\u30b3\u30e9\u30dc\u30ec\u30fc\u30b7\u30e7\u30f3
p4265
I4282
sV\u671f\u5f85
p4266
I4283
sV\u30c8\u30e9\u30c3\u30af
p4267
I4284
sV\u5171\u540c
p4268
I4285
sV\u539f
p4269
I4286
sV\u6469\u64e6
p4270
I2163
sV\u4ee5\u524d
p4271
I4288
sV\u304a\u3059\u3059\u3081
p4272
I2170
sV\u30d0\u30e9
p4273
I4523
sV\u5927\u5b66\u751f
p4274
I4290
sV
p4275
I2195
sV\u822a
p4276
I132
sV\u5ead
p4277
I4293
sV\u5e78\u3044
p4278
I2249
sV\u30b9\u30bf\u30b8\u30a2\u30e0
p4279
I2217
sV\u4f5c\u6226
p4280
I4296
sV\u5e78\u305b
p4281
I4297
sV\u304a\u6e6f
p4282
I3059
sV\u9762\u7a4d
p4283
I4299
sV\u30af\u30c1\u30b3\u30df
p4284
I4300
sV\u6bce\u56de
p4285
I4301
sV\u9ad8\u5fb3
p4286
I1101
sV\u30e9\u30a6
p4287
I4303
sV\u753b\u50cf
p4288
I4304
sV\u30b5\u30e0\u30b9\u30f3
p4289
I3881
sV\u7591\u3044
p4290
I4305
sV\u4eba\u3005
p4291
I4686
sV\u7279\u756a
p4292
I4306
sV\u8a08\u6e2c
p4293
I4307
sVleague
p4294
I3044
sV\u5148
p4295
I2306
sV\u6551\u51fa
p4296
I2313
sV\u8ecd
p4297
I2316
sV\u6559\u5e2b
p4298
I3045
sV\u4e57\u7528\u8eca
p4299
I2323
sV\u30c6\u30af\u30cb\u30c3\u30af
p4300
I4314
sV\u53d6\u6750
p4301
I4315
sV2015
p4302
I3852
sV\u30a2\u30b7\u30b9\u30c8
p4303
I4317
sV\u5b9f\u5bb6
p4304
I4558
sV\u590f
p4305
I3868
sV\u5fd7
p4306
I3
sV\u4e38
p4307
I4320
sV\u5cb3\u5f66
p4308
I4321
sV\u8981\u671b
p4309
I4322
sV\u98df\u6750
p4310
I3233
sV\u63a8\u85a6
p4311
I4324
sV\u5f92\u6b69
p4312
I2377
sV\u30d1\u30e9\u30ea\u30f3\u30d4\u30c3\u30af
p4313
I4326
sV\u307f\u305f\u3044
p4314
I4327
sV\u30c8\u30e9\u30c3\u30d7
p4315
I4328
sV\u30c7\u30fc\u30bf\u901a\u4fe1
p4316
I4329
sV\u5168\u4f53
p4317
I771
sV\u3076\u308a
p4318
I4331
sV\u6607\u683c
p4319
I2424
sV\u30c6\u30a3\u30fc
p4320
I4333
sV\u30e1\u30b8\u30e3\u30fc
p4321
I373
sV\u4f4f\u6240
p4322
I2485
sV\u5e97\u9577
p4323
I2440
sV\u30ad\u30ea\u30f3
p4324
I4626
sV\u3076\u3093
p4325
I4337
sV\u52e4\u52d9
p4326
I2460
sV\u611f\u89e6
p4327
I4340
sV\u4eba\u9593
p4328
I4341
sVameblo
p4329
I4342
sV\u30c8\u30fc\u30af
p4330
I4343
sV\u30ea\u30b9\u30af
p4331
I4050
sV\u30c9\u30e9\u30d5\u30c8
p4332
I4344
sV\u5236\u5ea6
p4333
I4345
sV\u30a2\u30c3\u30d7\u30eb
p4334
I4347
sV\u7570\u69d8
p4335
I2522
sV\u3082\u3093
p4336
I2289
sV\u5148\u65e5
p4337
I4350
sV\u7b11\u307f
p4338
I4351
sV\u30aa\u30f3
p4339
I4352
sV\u72a0\u7272
p4340
I4353
sV\u5730\u7403
p4341
I4354
sVvr
p4342
I4355
sV\u76f4\u524d
p4343
I1938
sV\u9818\u57df
p4344
I4357
sV\uff17
p4345
I4358
sV\u51b7\u51cd
p4346
I4108
sV\u30bf\u30a4\u30df\u30f3\u30b0
p4347
I2565
sV\u914d\u4fe1
p4348
I3950
sV\u91d1\u92ad
p4349
I4361
sV\u4ed5\u4e0a\u3052
p4350
I4517
sV\u8fd4\u4fe1
p4351
I666
sV\u30de\u30b8
p4352
I4363
sV\u30de\u30b9
p4353
I4364
sV\u8208\u596e
p4354
I4365
sV\u771f\u4f3c
p4355
I4366
sV\u91cd\u8981
p4356
I4367
sV\u5185\u90e8
p4357
I3442
sV\u30d5\u30e9\u30f3\u30af\u30d5\u30eb\u30c8
p4358
I2777
sV\u9283
p4359
I3209
sV\u30aa\u30d5
p4360
I4370
sV\u7d2b
p4361
I1665
sV\u5e2d
p4362
I4372
sV\u8863\u88c5
p4363
I2639
sV\u308a\u3093\u3054
p4364
I4374
sV\u53cd\u8ad6
p4365
I3638
sV\u50d5\u3089
p4366
I4376
sV\u6ce8\u610f
p4367
I816
sV\u4ed5\u4e8b
p4368
I4378
sV\u5317\u7530
p4369
I4379
sV\u8c4a\u304b
p4370
I2121
sV\u3068\u3093\u3067\u3082
p4371
I4381
sVandroid
p4372
I4382
sV\u30bb\u30f3\u30b9
p4373
I1012
sV\u5b63\u7bc0
p4374
I3154
sV\u30ad\u30fc\u30ef\u30fc\u30c9
p4375
I4385
sV\u767b\u7c73
p4376
I4386
sV\u81ea\u56fd
p4377
I4387
sV\u5c06\u6765
p4378
I3064
sVmaterial
p4379
I4389
sV\u8a98\u5c0e
p4380
I315
sV\u4eba\u7269
p4381
I4391
sV\u30de\u30de
p4382
I4392
sV\u5074\u9762
p4383
I3390
sV\u3049
p4384
I4394
sV\u983c\u307f
p4385
I1981
sV\u30c4\u30a2\u30fc
p4386
I4396
sV\u4fb5\u5165
p4387
I980
sV\u30bf\u30ec\u30f3\u30c8
p4388
I2740
sV\u3042\u3063\u3061
p4389
I4399
sV\u907a\u7523
p4390
I4400
sV\u822a\u7a7a\u6a5f
p4391
I4401
sV\u6a19\u9ad8
p4392
I4402
sV\u9577\u5e74
p4393
I4403
sV\u904b\u52d5
p4394
I4079
sV\u62d8\u675f
p4395
I2772
sV\u30d5\u30eb
p4396
I4405
sV\u80f8
p4397
I3056
sV\u8a18\u9332
p4398
I4407
sV\u725b\u8089
p4399
I4408
sV\u30ec\u30f3\u30ba
p4400
I4409
sV\u89aa\u5fa1
p4401
I2800
sV\u304b\u56fd
p4402
I2803
sV\u30d9\u30fc\u30ab\u30ea\u30fc
p4403
I4412
sV\u5730\u5473
p4404
I4413
sV\u8ee2
p4405
I4414
sV\u30c8\u30fc\u30bf\u30eb
p4406
I3712
sV\u4e2d\u9014\u534a\u7aef
p4407
I4415
sVi
p4408
I3930
sV\u897f\u6d0b
p4409
I4417
sV\u30de\u30f3
p4410
I4418
sV\u523a\u6fc0
p4411
I1419
sV\u6642\u70b9
p4412
I4420
sV\u4e88\u9632
p4413
I2298
sV\u5ca9\u624b
p4414
I4422
sV\u96f2
p4415
I2870
sV\u5275
p4416
I4424
sV\u30d5\u30a1\u30a4\u30ca\u30eb
p4417
I3058
sV\u96fb\u6c60
p4418
I3988
sV47
p4419
I4427
sV\u4e3b\u5f35
p4420
I3483
sV\u9031\u520a
p4421
I3542
sV\u592a
p4422
I4468
sV\u540c\u50da
p4423
I4429
sV\u52a9\u3051
p4424
I4430
sV\u5927\u6839
p4425
I4431
sV\u8868\u793a
p4426
I4432
sV\u624b\u6301\u3061
p4427
I4433
sV\u30e2\u30fc\u30bf\u30fc
p4428
I2300
sV\u5f7c\u5973
p4429
I4435
sV\u7389
p4430
I4436
sV42
p4431
I4689
sV\u30ae\u30d5\u30c8
p4432
I2069
sV\u7b56
p4433
I3875
sV\u8abf\u5473
p4434
I4439
sV\u72d9\u3044
p4435
I875
sV\u6d6e\u6c17
p4436
I4441
sV\u8b0e
p4437
I4442
sV\u71b1\u6c17
p4438
I3943
sV\u5229\u7528
p4439
I2977
sV\u30d0\u30c3\u30c8
p4440
I2981
sV\u30b3\u30fc\u30c8
p4441
I4445
sV\u5de5\u5834
p4442
I3876
sV\u5e30\u308a
p4443
I4447
sV\u5a18
p4444
I4448
sV\u969b
p4445
I1576
sV41
p4446
I4692
sV\u5b66\u7fd2
p4447
I4450
sV\u6df1\u591c
p4448
I2246
sVweb
p4449
I4452
sV\u5404\u5730
p4450
I2545
sV\u9ad8\u9f62
p4451
I4416
sV\u8868\u660e
p4452
I4454
sV\u958b\u59cb
p4453
I4455
sV\u5f37\u70c8
p4454
I3191
sV\u7652
p4455
I2343
sV\u8d64\u3061\u3083\u3093
p4456
I3426
sV\u534a\u6570
p4457
I2643
sV\u30c1\u30ad\u30f3
p4458
I4033
sV\u30b5\u30d7\u30e9\u30a4\u30ba
p4459
I4485
sV\u627f\u8a8d
p4460
I4460
sV\u54b2
p4461
I4695
sV\u8eab\u9577
p4462
I2636
sV\u5674\u706b
p4463
I4463
sV\u7d4c\u7def
p4464
I4464
sV\u9031\u9593
p4465
I4465
sV280
p4466
I1130
sV\u30c7\u30ab
p4467
I4467
sV\u9032\u5c55
p4468
I3130
sV\u723d\u3084\u304b
p4469
I3490
sV\u99c5
p4470
I4469
sV\u6839\u672c
p4471
I4470
sV\u30b8\u30a7\u30fc\u30e0\u30ba
p4472
I4471
sV\u63d0\u793a
p4473
I4472
sV\u7248
p4474
I4473
sV\u4ecb
p4475
I4474
sV\u756a\u53f7
p4476
I3318
sV\u5730\u57df
p4477
I3175
sV\u5192\u967a
p4478
I3177
sV\u30b1\u30fc\u30ad
p4479
I3187
sV\u8f38\u51fa
p4480
I4479
sV\u5c0a\u91cd
p4481
I4480
sV\u62d3
p4482
I4481
sV\u52c9\u5f37
p4483
I4294
sV\u544a\u77e5
p4484
I4483
sV\u30ed\u30b7\u30a2
p4485
I4466
sV\u56db
p4486
I3223
sV\u4e16
p4487
I2659
sV\u8272\u5408\u3044
p4488
I4487
sV\u6d78\u900f
p4489
I1508
sV\u91e3\u308a
p4490
I4489
sV\u8a2d\u7f6e
p4491
I4292
sV\u5fc3\u5730
p4492
I1015
sV\u4e0d\u4fbf
p4493
I4491
sV\u30a6\u30bd
p4494
I4492
sV\u30d5\u30a7\u30a2
p4495
I4493
sV\u30d0\u30c3\u30b0
p4496
I4494
sV\u307e\u308d\u3084\u304b
p4497
I2575
sV\u88d5\u5b50
p4498
I4496
sV\u90fd\u5408
p4499
I4497
sV\u78ba\u4fdd
p4500
I3010
sV\u30d5\u30a7\u30b9
p4501
I4499
sV\u6d3e\u624b
p4502
I4500
sV\u5074
p4503
I472
sV\u8abf\u7406
p4504
I4502
sV\u96fb\u5b50
p4505
I4018
sV\u5e73\u65e5
p4506
I4504
sV\u53d6\u5f15
p4507
I4505
sV\u5f01
p4508
I4506
sV\u99c6\u9010
p4509
I4704
sV\u30b3\u30f3\u30d7\u30ec\u30c3\u30af\u30b9
p4510
I4395
sV\u30d5\u30ed\u30f3\u30c8
p4511
I4508
sV\u7d05\u8449
p4512
I2265
sV\u5927\u597d\u304d
p4513
I4510
sV\u5bae\u5d0e
p4514
I3377
sV\u3084\u308b\u6c17
p4515
I2367
sV980
p4516
I3391
sV\u5150\u7ae5
p4517
I3070
sV\u5375
p4518
I4256
sV\u30b8\u30e3\u30e0
p4519
I2312
sV\u30d0\u30fc
p4520
I3405
sV\u8d77\u7528
p4521
I4518
sV\u672c\u6c17
p4522
I4519
sV\u521d\u3081
p4523
I4520
sV110
p4524
I800
sV\u76ee\u7dda
p4525
I2143
sVhome
p4526
I4522
sV\u63d0\u4f9b
p4527
I3148
sV\u30b3\u30e1\u30f3\u30c8
p4528
I4525
sV\u767a\u884c
p4529
I372
sV\u8b66\u6212
p4530
I4527
sV\u3059\u304e
p4531
I3687
sV\u5c4b\u5185
p4532
I4529
sV\u30c6\u30f3\u30b7\u30e7\u30f3
p4533
I1304
sV\u96e2\u308c
p4534
I3464
sV\u9577\u5d0e
p4535
I4532
sV\u5e2b
p4536
I3519
sV\u5f62\u5f0f
p4537
I4534
sV\u4e2d\u90e8
p4538
I4535
sV\u30e0\u30fc\u30b9
p4539
I4536
sV\u6700\u901f
p4540
I2509
sV\u9060\u616e
p4541
I4538
sV\u75c5\u9662
p4542
I1507
sV\u4e00\u74b0
p4543
I4540
sV\u66f8\u985e
p4544
I3069
sV\u7d76\u5bfe
p4545
I4542
sV\u6c37
p4546
I4543
sV\u30b9\u30c8\u30ec\u30c3\u30c1
p4547
I4544
sV\u5927\u5c0f
p4548
I4545
sV\u30b7\u30f3\u30b0\u30eb
p4549
I4546
sV\u5411\u304d
p4550
I4548
sV\u30ab\u30fc\u30c9
p4551
I4549
sV\u6238\u7530
p4552
I4023
sV\u8457\u66f8
p4553
I3589
sV\u30d4\u30f3\u30af
p4554
I1227
sV\u6d6e\u4e0a
p4555
I3160
sV\u3055\u307e
p4556
I3602
sV\u30b5\u30a6\u30f3\u30c9
p4557
I4555
sV\u7d44\u5408
p4558
I4556
sV\u3042\u308c
p4559
I1360
sV\u76f4\u4eba
p4560
I1208
sV\u30d0\u30b9
p4561
I4559
sV\u79fb\u6c11
p4562
I3076
sV\u6751
p4563
I4561
sV\u5148\u6708
p4564
I1034
sV\u30c4\u30a4\u30c3\u30bf\u30fc
p4565
I4563
sV\u8155
p4566
I4564
sV\u82b8\u8853
p4567
I3301
sV\u9ad8
p4568
I4566
sV\u8e8d\u52d5
p4569
I2403
sV\u5e30\u56fd
p4570
I4568
sV\u8003\u616e
p4571
I3826
sV\u30c0\u30e1\u30fc\u30b8
p4572
I4570
sV\u4e8c\u9178\u5316\u70ad\u7d20
p4573
I3715
sV\u305d\u308c\u305e\u308c
p4574
I3719
sV\u5358\u72ec
p4575
I3721
sV\u4fdd\u80b2
p4576
I4574
sV\u4ee5\u5185
p4577
I4575
sV\u4e2d\u6b62
p4578
I3291
sVhttp
p4579
I4390
sV\u7279\u96c6
p4580
I4577
sV\u3055\u304d
p4581
I3766
sV\u6761\u4ef6
p4582
I4579
sV\u30c8\u30fc\u30b9\u30c8
p4583
I4580
sV\u4e45\u3057\u3076\u308a
p4584
I4581
sV\u554f\u5408\u305b
p4585
I3790
sV\u3046\u307e\u307f
p4586
I4583
sV\u30d5\u30a7\u30a4\u30b9
p4587
I1620
sV\u666f\u8272
p4588
I229
sV\u78ba\u4fe1
p4589
I4476
sV!!
p4590
I4587
sV\u6563\u6b69
p4591
I4588
sV\u30b9\u30ea
p4592
I4589
sV\u6570\u5b57
p4593
I3841
sV\u540d\u53e4\u5c4b
p4594
I4591
sV\u63a5\u7d9a
p4595
I4592
sV\u4f8b
p4596
I707
sV\u305f\u3053\u713c\u304d
p4597
I3863
sV\u7df4\u7fd2
p4598
I3867
sV\u3053\u3061\u3089
p4599
I3409
sV\u624b\u5e33
p4600
I4598
sV\u3054\u98ef
p4601
I4599
sV\u30ec\u30fc\u30b9
p4602
I3886
sV\u6295\u7968
p4603
I4601
sV\u9999
p4604
I4125
sV\u58c1
p4605
I3701
sV\u30af\u30eb\u30de
p4606
I4604
sV\u753b\u7d20
p4607
I4605
sV\u30e2\u30f3\u30d6\u30e9\u30f3
p4608
I2737
sV\u3069\u304a\u308a
p4609
I2327
sV!?
p4610
I3935
sV\u30d1\u30fc\u30c6\u30a3\u30fc
p4611
I4609
sV\u718a\u672c
p4612
I3085
sV\u30ea\u30a2\u30eb
p4613
I4330
sV\u9805\u76ee
p4614
I4612
sV\u79cb\u8449\u539f
p4615
I4613
sV1980
p4616
I4614
sV\u30b9\u30bf\u30f3\u30c0\u30fc\u30c9
p4617
I693
sV\u30ab\u30e9\u30d5\u30eb
p4618
I4616
sV\u7b11\u3044
p4619
I4617
sV*
p4620
I4618
sV\u53ce\u7a6b
p4621
I3742
sV\u30bb\u30fc\u30d6
p4622
I4619
sV\u7a2e
p4623
I1818
sVhiwa
p4624
I4621
sV\u30ed\u30b4
p4625
I4384
sV\u30d7\u30ec\u30fc\u30c8
p4626
I3236
sV\u30ed\u30b1
p4627
I4624
sV\u5c55\u958b
p4628
I4625
sV\u53d6\u308a\u7d44\u307f
p4629
I3428
sV\u901f\u5ea6
p4630
I4013
sV\u7236\u89aa
p4631
I3436
sV\u7591\u554f
p4632
I4629
sV\u30d5\u30a3\u30eb\u30bf\u30fc
p4633
I4630
sV\u898b\u8fbc\u307f
p4634
I4631
sV\u3084\u308a\u53d6\u308a
p4635
I4632
sV\u30b9\u30ad
p4636
I4053
sV\u75c7
p4637
I4634
sV\u73fe\u5730
p4638
I4635
sV\u6bba\u4eba
p4639
I3220
sV\u30b0\u30e9\u30d3\u30a2
p4640
I4637
sV\u73fe\u5728
p4641
I4638
sV)\u3001
p4642
I766
sV\u4f55\u4e8b
p4643
I4640
sV\u6700\u5f8c
p4644
I4338
sV\u51fa\u5834
p4645
I4642
sV\u65b0\u6a4b
p4646
I1821
sVbe
p4647
I3317
sV\u4e26\u307f
p4648
I1524
sV\u30aa\u30d5\u30a3\u30b7\u30e3\u30eb
p4649
I2755
sVhd
p4650
I4647
sV\u6848\u5185
p4651
I4648
sV\u5f53\u305f\u308a\u524d
p4652
I4308
sV\u5730\u56f3
p4653
I4649
sV\u5354\u5b9a
p4654
I4650
sV\u56fa\u6709
p4655
I3890
sV\u753b\u9762
p4656
I3910
sV\u4e00\u756a
p4657
I4653
sV\u4e0b\u308a
p4658
I4339
sV\u5feb\u9069
p4659
I4655
sVj
p4660
I2581
sV\u5b98\u516c\u5e81
p4661
I4657
sV\u5909\u8eab
p4662
I4212
sV\u8cea\u554f
p4663
I4216
sV\u6301\u3061\u8fbc\u307f
p4664
I4660
sV\u6c7a\u5b9a
p4665
I4084
sV\u3068\u304d
p4666
I1009
sV\u5bb9\u7591
p4667
I4663
sV\u304a\u5bb6
p4668
I4728
sV\u98df\u3079\u7269
p4669
I3595
sV\u8a8d\u77e5
p4670
I1132
sV\u8a3a\u65ad
p4671
I4666
sV\u611f\u8b1d
p4672
I4667
sV\u6817
p4673
I2480
sV\u5507
p4674
I4669
sV\u8a66\u3057
p4675
I3914
sV\u4e2d\u91ce
p4676
I4671
sV\u8a08\u7b97
p4677
I4346
sV\u3068\u3053\u308d
p4678
I1871
sV\u9ad8\u7d1a
p4679
I2952
sV\u30cf\u30ed\u30a6\u30a3\u30f3\u30b3\u30b9\u30d7\u30ec
p4680
I3166
sV\u514d\u8a31
p4681
I1061
sV\u521d\u56de
p4682
I3632
sV\u7acb\u5834
p4683
I4349
sV\u5b98
p4684
I4677
sV\u4e0a\u6607
p4685
I4678
sV80
p4686
I4679
sVinc
p4687
I4680
sVcchan
p4688
I4681
sV\u30ad\u30fc\u30d7
p4689
I4682
sV48
p4690
I4683
sV49
p4691
I2986
sV46
p4692
I4685
sV\u6240\u5c5e
p4693
I2441
sV44
p4694
I4687
sV\u8f38\u9001
p4695
I4434
sV\u30d9\u30f3\u30c1
p4696
I4302
sV43
p4697
I4690
sV40
p4698
I4691
sV\u7acb\u6d3e
p4699
I1535
sV\u8650\u6bba
p4700
I4693
sV\u7d50\u5c40
p4701
I4694
sV\u691c\u77e5
p4702
I4461
sV\u672c\u65e5
p4703
I4696
sV\u65ac\u65b0
p4704
I4697
sV\u3068\u3082
p4705
I4698
sV\u4ed6\u4eba
p4706
I4699
sV\u30a2\u30ec\u30f3\u30b8
p4707
I1016
sV\u30a2\u30ed\u30de
p4708
I824
sV\u8ce0\u511f
p4709
I4702
sV\u75c7\u72b6
p4710
I4295
sV\u8a18\u5ff5
p4711
I4703
sV\u79cb\u5b63
p4712
I4507
sV\u8179\u90e8
p4713
I4205
sV(*
p4714
I4706
sV\u5ba4\u862d
p4715
I4707
sVstar
p4716
I4708
sV\u6d77
p4717
I4734
sV\u30b9\u30c8\u30fc\u30ea\u30fc
p4718
I4528
sV\u96c6
p4719
I2005
sV\u671d\u98df
p4720
I4711
sV\u5973\u5b50
p4721
I4712
sV\u5b8c\u58f2
p4722
I4713
sV\u4eee\u60f3
p4723
I4073
sV\u9280\u884c
p4724
I4715
sV\u307b\u304b
p4725
I4736
sV\u57fa\u8abf
p4726
I4717
sV\u30a2\u30a6\u30a7\u30a4
p4727
I4718
sV\u958b\u5834
p4728
I4719
sV\u4f38\u3073
p4729
I4720
sV8000
p4730
I357
sV\u30db\u30f3
p4731
I4722
sV\u6b63
p4732
I4723
sV\u6ce2
p4733
I4724
sV\u6027
p4734
I4725
sV\u672c\u97f3
p4735
I103
sV\u547d
p4736
I4727
sV\u304a\u7b11\u3044
p4737
I4664
sV\u6642\u4ee3
p4738
I2192
sV\u5e0c
p4739
I4730
sV\u6bb5\u968e
p4740
I4731
sV\u7fd2\u6163
p4741
I4732
sV\u307b\u3046
p4742
I4733
sV\u660e\u65e5
p4743
I4312
sV\u4ef6
p4744
I4735
sV\u58f0\u512a
p4745
I4716
sV\u52d5\u7269
p4746
I4737
sV\u30ae\u30e3\u30c3\u30d7
p4747
I4738
sV\u52a0\u901f
p4748
I4739
sV\u304a\u5ba2
p4749
I4740
ssS'dfs'
p4750
(dp4751
I0
I4
sI1
I12
sI2
I4
sI3
I5
sI4
I6
sI5
I4
sI6
I10
sI7
I4
sI8
I4
sI9
I5
sI10
I4
sI11
I4
sI12
I8
sI13
I9
sI14
I4
sI15
I24
sI16
I10
sI17
I11
sI18
I18
sI19
I6
sI20
I9
sI21
I4
sI22
I7
sI23
I23
sI24
I5
sI25
I10
sI26
I27
sI27
I8
sI28
I11
sI29
I6
sI30
I5
sI31
I5
sI32
I4
sI33
I20
sI34
I14
sI35
I5
sI36
I4
sI37
I7
sI38
I12
sI39
I15
sI40
I6
sI41
I4
sI42
I4
sI43
I6
sI44
I11
sI45
I4
sI46
I4
sI47
I4
sI48
I6
sI49
I7
sI50
I6
sI51
I6
sI52
I25
sI53
I31
sI54
I32
sI55
I22
sI56
I4
sI57
I4
sI58
I7
sI59
I5
sI60
I6
sI61
I5
sI62
I4
sI63
I9
sI64
I13
sI65
I27
sI66
I4
sI67
I5
sI68
I53
sI69
I10
sI70
I8
sI71
I4
sI72
I5
sI73
I21
sI74
I5
sI75
I29
sI76
I5
sI77
I4
sI78
I14
sI79
I5
sI80
I156
sI81
I6
sI82
I11
sI83
I44
sI84
I27
sI85
I6
sI86
I13
sI87
I5
sI88
I10
sI89
I37
sI90
I6
sI91
I19
sI92
I8
sI93
I4
sI94
I33
sI95
I14
sI96
I6
sI97
I7
sI98
I4
sI99
I9
sI100
I8
sI101
I5
sI102
I4
sI103
I8
sI104
I10
sI105
I4
sI106
I15
sI107
I15
sI108
I7
sI109
I6
sI110
I4
sI111
I7
sI112
I4
sI113
I12
sI114
I8
sI115
I18
sI116
I58
sI117
I12
sI118
I5
sI119
I4
sI120
I7
sI121
I5
sI122
I5
sI123
I12
sI124
I9
sI125
I25
sI126
I19
sI127
I10
sI128
I5
sI129
I4
sI130
I61
sI131
I4
sI132
I5
sI133
I5
sI134
I4
sI135
I24
sI136
I8
sI137
I8
sI138
I12
sI139
I5
sI140
I42
sI141
I4
sI142
I7
sI143
I128
sI144
I6
sI145
I4
sI146
I5
sI147
I4
sI148
I4
sI149
I127
sI150
I19
sI151
I14
sI152
I4
sI153
I4
sI154
I16
sI155
I4
sI156
I4
sI157
I4
sI158
I4
sI159
I4
sI160
I4
sI161
I44
sI162
I11
sI163
I6
sI164
I8
sI165
I4
sI166
I4
sI167
I17
sI168
I7
sI169
I8
sI170
I4
sI171
I30
sI172
I5
sI173
I8
sI174
I4
sI175
I17
sI176
I8
sI177
I4
sI178
I4
sI179
I4
sI180
I5
sI181
I5
sI182
I38
sI183
I13
sI184
I5
sI185
I6
sI186
I5
sI187
I27
sI188
I5
sI189
I4
sI190
I4
sI191
I5
sI192
I19
sI193
I4
sI194
I25
sI195
I11
sI196
I65
sI197
I123
sI198
I10
sI199
I7
sI200
I4
sI201
I4
sI202
I13
sI203
I12
sI204
I21
sI205
I26
sI206
I19
sI207
I4
sI208
I27
sI209
I7
sI210
I5
sI211
I13
sI212
I10
sI213
I4
sI214
I4
sI215
I16
sI216
I7
sI217
I4
sI218
I9
sI219
I6
sI220
I9
sI221
I10
sI222
I15
sI223
I4
sI224
I32
sI225
I5
sI226
I9
sI227
I5
sI228
I5
sI229
I7
sI230
I4
sI231
I36
sI232
I8
sI233
I12
sI234
I4
sI235
I34
sI236
I12
sI237
I4
sI238
I5
sI239
I5
sI240
I10
sI241
I17
sI242
I4
sI243
I8
sI244
I6
sI245
I4
sI246
I4
sI247
I6
sI248
I4
sI249
I19
sI250
I114
sI251
I5
sI252
I7
sI253
I6
sI254
I6
sI255
I9
sI256
I9
sI257
I5
sI258
I22
sI259
I23
sI260
I4
sI261
I6
sI262
I34
sI263
I5
sI264
I25
sI265
I10
sI266
I11
sI267
I10
sI268
I6
sI269
I5
sI270
I37
sI271
I5
sI272
I6
sI273
I6
sI274
I24
sI275
I5
sI276
I4
sI277
I9
sI278
I4
sI279
I16
sI280
I15
sI281
I4
sI282
I58
sI283
I18
sI284
I23
sI285
I12
sI286
I12
sI287
I24
sI288
I5
sI289
I15
sI290
I6
sI291
I8
sI292
I4
sI293
I10
sI294
I19
sI295
I6
sI296
I51
sI297
I4
sI298
I10
sI299
I4
sI300
I15
sI301
I4
sI302
I6
sI303
I4
sI304
I71
sI305
I6
sI306
I48
sI307
I24
sI308
I51
sI309
I4
sI310
I8
sI311
I6
sI312
I9
sI313
I7
sI314
I4
sI315
I4
sI316
I6
sI317
I141
sI318
I5
sI319
I35
sI320
I17
sI321
I5
sI322
I26
sI323
I10
sI324
I10
sI325
I5
sI326
I124
sI327
I21
sI328
I4
sI329
I4
sI330
I4
sI331
I24
sI332
I6
sI333
I38
sI334
I5
sI335
I4
sI336
I6
sI337
I7
sI338
I16
sI339
I4
sI340
I7
sI341
I4
sI342
I6
sI343
I7
sI344
I8
sI345
I4
sI346
I5
sI347
I11
sI348
I5
sI349
I4
sI350
I7
sI351
I5
sI352
I5
sI353
I26
sI354
I16
sI355
I4
sI356
I20
sI357
I5
sI358
I5
sI359
I4
sI360
I4
sI361
I6
sI362
I7
sI363
I57
sI364
I13
sI365
I15
sI366
I5
sI367
I4
sI368
I24
sI369
I78
sI370
I10
sI371
I5
sI372
I13
sI373
I5
sI374
I4
sI375
I7
sI376
I10
sI377
I10
sI378
I4
sI379
I4
sI380
I4
sI381
I50
sI382
I7
sI383
I4
sI384
I8
sI385
I7
sI386
I66
sI387
I8
sI388
I6
sI389
I4
sI390
I22
sI391
I72
sI392
I6
sI393
I6
sI394
I4
sI395
I10
sI396
I6
sI397
I34
sI398
I17
sI399
I23
sI400
I9
sI401
I7
sI402
I59
sI403
I4
sI404
I4
sI405
I16
sI406
I4
sI407
I9
sI408
I8
sI409
I5
sI410
I26
sI411
I7
sI412
I7
sI413
I4
sI414
I21
sI415
I7
sI416
I7
sI417
I5
sI418
I31
sI419
I56
sI420
I7
sI421
I17
sI422
I4
sI423
I13
sI424
I4
sI425
I6
sI426
I9
sI427
I6
sI428
I7
sI429
I5
sI430
I4
sI431
I11
sI432
I5
sI433
I9
sI434
I6
sI435
I4
sI436
I4
sI437
I37
sI438
I5
sI439
I28
sI440
I6
sI441
I42
sI442
I12
sI443
I4
sI444
I6
sI445
I5
sI446
I18
sI447
I17
sI448
I10
sI449
I4
sI450
I4
sI451
I35
sI452
I6
sI453
I10
sI454
I5
sI455
I5
sI456
I6
sI457
I4
sI458
I31
sI459
I10
sI460
I7
sI461
I35
sI462
I25
sI463
I17
sI464
I6
sI465
I17
sI466
I6
sI467
I6
sI468
I4
sI469
I4
sI470
I5
sI471
I15
sI472
I49
sI473
I35
sI474
I4
sI475
I14
sI476
I5
sI477
I4
sI478
I4
sI479
I4
sI480
I8
sI481
I12
sI482
I18
sI483
I5
sI484
I34
sI485
I4
sI486
I5
sI487
I37
sI488
I5
sI489
I11
sI490
I4
sI491
I8
sI492
I8
sI493
I9
sI494
I7
sI495
I4
sI496
I8
sI497
I4
sI498
I5
sI499
I4
sI500
I4
sI501
I4
sI502
I9
sI503
I70
sI504
I4
sI505
I41
sI506
I4
sI507
I4
sI508
I24
sI509
I25
sI510
I20
sI511
I4
sI512
I143
sI513
I5
sI514
I16
sI515
I103
sI516
I8
sI517
I4
sI518
I4
sI519
I8
sI520
I4
sI521
I7
sI522
I20
sI523
I19
sI524
I8
sI525
I35
sI526
I7
sI527
I15
sI528
I4
sI529
I83
sI530
I11
sI531
I7
sI532
I10
sI533
I7
sI534
I22
sI535
I10
sI536
I17
sI537
I5
sI538
I8
sI539
I8
sI540
I27
sI541
I45
sI542
I13
sI543
I9
sI544
I4
sI545
I15
sI546
I5
sI547
I8
sI548
I28
sI549
I60
sI550
I4
sI551
I16
sI552
I13
sI553
I5
sI554
I20
sI555
I12
sI556
I4
sI557
I7
sI558
I4
sI559
I6
sI560
I28
sI561
I4
sI562
I5
sI563
I4
sI564
I51
sI565
I5
sI566
I37
sI567
I30
sI568
I6
sI569
I5
sI570
I14
sI571
I6
sI572
I5
sI573
I14
sI574
I7
sI575
I6
sI576
I24
sI577
I23
sI578
I22
sI579
I4
sI580
I10
sI581
I9
sI582
I14
sI583
I16
sI584
I13
sI585
I18
sI586
I17
sI587
I39
sI588
I13
sI589
I8
sI590
I8
sI591
I7
sI592
I11
sI593
I4
sI594
I5
sI595
I4
sI596
I23
sI597
I27
sI598
I4
sI599
I6
sI600
I7
sI601
I6
sI602
I18
sI603
I21
sI604
I10
sI605
I6
sI606
I106
sI607
I4
sI608
I5
sI609
I4
sI610
I4
sI611
I47
sI612
I5
sI613
I6
sI614
I6
sI615
I4
sI616
I6
sI617
I4
sI618
I4
sI619
I18
sI620
I11
sI621
I4
sI622
I10
sI623
I5
sI624
I7
sI625
I26
sI626
I7
sI627
I4
sI628
I4
sI629
I20
sI630
I6
sI631
I4
sI632
I18
sI633
I10
sI634
I4
sI635
I11
sI636
I13
sI637
I39
sI638
I12
sI639
I4
sI640
I12
sI641
I7
sI642
I73
sI643
I20
sI644
I4
sI645
I19
sI646
I41
sI647
I20
sI648
I68
sI649
I20
sI650
I11
sI651
I6
sI652
I5
sI653
I8
sI654
I9
sI655
I11
sI656
I15
sI657
I9
sI658
I113
sI659
I8
sI660
I8
sI661
I5
sI662
I4
sI663
I4
sI664
I20
sI665
I8
sI666
I4
sI667
I6
sI668
I5
sI669
I7
sI670
I5
sI671
I25
sI672
I6
sI673
I6
sI674
I57
sI675
I19
sI676
I13
sI677
I21
sI678
I6
sI679
I4
sI680
I6
sI681
I13
sI682
I16
sI683
I18
sI684
I7
sI685
I5
sI686
I4
sI687
I4
sI688
I14
sI689
I12
sI690
I4
sI691
I14
sI692
I6
sI693
I6
sI694
I4
sI695
I18
sI696
I8
sI697
I5
sI698
I7
sI699
I6
sI700
I5
sI701
I54
sI702
I6
sI703
I9
sI704
I24
sI705
I7
sI706
I8
sI707
I16
sI708
I10
sI709
I13
sI710
I4
sI711
I4
sI712
I4
sI713
I24
sI714
I41
sI715
I7
sI716
I8
sI717
I5
sI718
I4
sI719
I52
sI720
I5
sI721
I8
sI722
I18
sI723
I12
sI724
I9
sI725
I20
sI726
I40
sI727
I7
sI728
I21
sI729
I5
sI730
I56
sI731
I5
sI732
I16
sI733
I5
sI734
I16
sI735
I4
sI736
I5
sI737
I20
sI738
I9
sI739
I10
sI740
I4
sI741
I4
sI742
I6
sI743
I8
sI744
I21
sI745
I7
sI746
I7
sI747
I20
sI748
I20
sI749
I6
sI750
I18
sI751
I6
sI752
I4
sI753
I24
sI754
I4
sI755
I23
sI756
I9
sI757
I9
sI758
I11
sI759
I4
sI760
I59
sI761
I11
sI762
I19
sI763
I7
sI764
I4
sI765
I10
sI766
I11
sI767
I9
sI768
I13
sI769
I6
sI770
I7
sI771
I45
sI772
I5
sI773
I4
sI774
I37
sI775
I11
sI776
I4
sI777
I5
sI778
I67
sI779
I43
sI780
I11
sI781
I5
sI782
I5
sI783
I6
sI784
I4
sI785
I10
sI786
I4
sI787
I7
sI788
I30
sI789
I8
sI790
I5
sI791
I29
sI792
I4
sI793
I8
sI794
I9
sI795
I50
sI796
I4
sI797
I7
sI798
I10
sI799
I5
sI800
I6
sI801
I5
sI802
I42
sI803
I9
sI804
I5
sI805
I4
sI806
I11
sI807
I10
sI808
I4
sI809
I4
sI810
I11
sI811
I56
sI812
I6
sI813
I9
sI814
I6
sI815
I38
sI816
I31
sI817
I4
sI818
I16
sI819
I8
sI820
I4
sI821
I9
sI822
I7
sI823
I51
sI824
I4
sI825
I5
sI826
I9
sI827
I48
sI828
I8
sI829
I5
sI830
I5
sI831
I51
sI832
I4
sI833
I7
sI834
I8
sI835
I5
sI836
I10
sI837
I8
sI838
I11
sI839
I4
sI840
I105
sI841
I5
sI842
I4
sI843
I12
sI844
I4
sI845
I14
sI846
I4
sI847
I8
sI848
I20
sI849
I4
sI850
I21
sI851
I4
sI852
I4
sI853
I7
sI854
I7
sI855
I11
sI856
I9
sI857
I12
sI858
I4
sI859
I8
sI860
I4
sI861
I22
sI862
I22
sI863
I5
sI864
I31
sI865
I18
sI866
I4
sI867
I6
sI868
I5
sI869
I5
sI870
I6
sI871
I7
sI872
I13
sI873
I30
sI874
I10
sI875
I13
sI876
I6
sI877
I4
sI878
I6
sI879
I4
sI880
I6
sI881
I9
sI882
I12
sI883
I4
sI884
I41
sI885
I6
sI886
I5
sI887
I5
sI888
I10
sI889
I6
sI890
I12
sI891
I5
sI892
I9
sI893
I17
sI894
I4
sI895
I14
sI896
I21
sI897
I13
sI898
I7
sI899
I5
sI900
I8
sI901
I4
sI902
I5
sI903
I26
sI904
I7
sI905
I5
sI906
I5
sI907
I12
sI908
I6
sI909
I5
sI910
I4
sI911
I8
sI912
I7
sI913
I30
sI914
I15
sI915
I7
sI916
I8
sI917
I10
sI918
I4
sI919
I5
sI920
I5
sI921
I45
sI922
I4
sI923
I5
sI924
I14
sI925
I4
sI926
I4
sI927
I4
sI928
I4
sI929
I17
sI930
I41
sI931
I11
sI932
I11
sI933
I4
sI934
I75
sI935
I8
sI936
I8
sI937
I4
sI938
I11
sI939
I11
sI940
I36
sI941
I10
sI942
I13
sI943
I12
sI944
I6
sI945
I23
sI946
I4
sI947
I14
sI948
I9
sI949
I5
sI950
I6
sI951
I10
sI952
I14
sI953
I9
sI954
I58
sI955
I6
sI956
I8
sI957
I25
sI958
I9
sI959
I13
sI960
I33
sI961
I10
sI962
I5
sI963
I84
sI964
I13
sI965
I4
sI966
I9
sI967
I6
sI968
I19
sI969
I5
sI970
I4
sI971
I7
sI972
I7
sI973
I5
sI974
I16
sI975
I6
sI976
I7
sI977
I5
sI978
I10
sI979
I7
sI980
I8
sI981
I25
sI982
I95
sI983
I4
sI984
I5
sI985
I38
sI986
I4
sI987
I5
sI988
I4
sI989
I4
sI990
I36
sI991
I24
sI992
I8
sI993
I4
sI994
I6
sI995
I23
sI996
I42
sI997
I4
sI998
I24
sI999
I4
sI1000
I6
sI1001
I5
sI1002
I51
sI1003
I4
sI1004
I7
sI1005
I49
sI1006
I7
sI1007
I5
sI1008
I12
sI1009
I113
sI1010
I4
sI1011
I7
sI1012
I9
sI1013
I5
sI1014
I24
sI1015
I7
sI1016
I5
sI1017
I4
sI1018
I9
sI1019
I5
sI1020
I4
sI1021
I5
sI1022
I9
sI1023
I123
sI1024
I13
sI1025
I5
sI1026
I11
sI1027
I4
sI1028
I13
sI1029
I5
sI1030
I5
sI1031
I8
sI1032
I49
sI1033
I4
sI1034
I17
sI1035
I4
sI1036
I5
sI1037
I10
sI1038
I6
sI1039
I8
sI1040
I31
sI1041
I6
sI1042
I15
sI1043
I26
sI1044
I30
sI1045
I17
sI1046
I8
sI1047
I4
sI1048
I8
sI1049
I5
sI1050
I5
sI1051
I4
sI1052
I36
sI1053
I8
sI1054
I10
sI1055
I4
sI1056
I15
sI1057
I43
sI1058
I4
sI1059
I12
sI1060
I48
sI1061
I4
sI1062
I4
sI1063
I20
sI1064
I17
sI1065
I5
sI1066
I8
sI1067
I45
sI1068
I4
sI1069
I8
sI1070
I10
sI1071
I5
sI1072
I5
sI1073
I25
sI1074
I4
sI1075
I10
sI1076
I27
sI1077
I23
sI1078
I4
sI1079
I5
sI1080
I4
sI1081
I26
sI1082
I7
sI1083
I57
sI1084
I4
sI1085
I15
sI1086
I10
sI1087
I4
sI1088
I6
sI1089
I55
sI1090
I7
sI1091
I8
sI1092
I5
sI1093
I5
sI1094
I4
sI1095
I6
sI1096
I5
sI1097
I6
sI1098
I6
sI1099
I15
sI1100
I24
sI1101
I4
sI1102
I5
sI1103
I16
sI1104
I8
sI1105
I4
sI1106
I11
sI1107
I4
sI1108
I7
sI1109
I4
sI1110
I8
sI1111
I28
sI1112
I8
sI1113
I5
sI1114
I7
sI1115
I5
sI1116
I40
sI1117
I5
sI1118
I9
sI1119
I11
sI1120
I5
sI1121
I4
sI1122
I5
sI1123
I8
sI1124
I17
sI1125
I4
sI1126
I4
sI1127
I5
sI1128
I4
sI1129
I6
sI1130
I4
sI1131
I28
sI1132
I7
sI1133
I14
sI1134
I4
sI1135
I4
sI1136
I4
sI1137
I16
sI1138
I7
sI1139
I6
sI1140
I12
sI1141
I4
sI1142
I6
sI1143
I5
sI1144
I12
sI1145
I6
sI1146
I8
sI1147
I79
sI1148
I5
sI1149
I22
sI1150
I4
sI1151
I5
sI1152
I4
sI1153
I6
sI1154
I32
sI1155
I5
sI1156
I13
sI1157
I8
sI1158
I9
sI1159
I5
sI1160
I16
sI1161
I6
sI1162
I24
sI1163
I5
sI1164
I38
sI1165
I15
sI1166
I16
sI1167
I10
sI1168
I79
sI1169
I12
sI1170
I13
sI1171
I9
sI1172
I5
sI1173
I9
sI1174
I8
sI1175
I11
sI1176
I9
sI1177
I10
sI1178
I5
sI1179
I60
sI1180
I12
sI1181
I6
sI1182
I56
sI1183
I27
sI1184
I5
sI1185
I7
sI1186
I11
sI1187
I12
sI1188
I4
sI1189
I5
sI1190
I4
sI1191
I27
sI1192
I8
sI1193
I5
sI1194
I31
sI1195
I8
sI1196
I7
sI1197
I5
sI1198
I12
sI1199
I6
sI1200
I9
sI1201
I11
sI1202
I4
sI1203
I8
sI1204
I12
sI1205
I6
sI1206
I8
sI1207
I5
sI1208
I4
sI1209
I5
sI1210
I5
sI1211
I7
sI1212
I8
sI1213
I8
sI1214
I11
sI1215
I69
sI1216
I12
sI1217
I21
sI1218
I4
sI1219
I5
sI1220
I8
sI1221
I4
sI1222
I7
sI1223
I17
sI1224
I8
sI1225
I43
sI1226
I11
sI1227
I12
sI1228
I4
sI1229
I6
sI1230
I19
sI1231
I65
sI1232
I79
sI1233
I6
sI1234
I7
sI1235
I4
sI1236
I18
sI1237
I15
sI1238
I7
sI1239
I4
sI1240
I9
sI1241
I7
sI1242
I5
sI1243
I6
sI1244
I8
sI1245
I14
sI1246
I16
sI1247
I6
sI1248
I9
sI1249
I4
sI1250
I59
sI1251
I5
sI1252
I10
sI1253
I38
sI1254
I8
sI1255
I7
sI1256
I12
sI1257
I5
sI1258
I5
sI1259
I11
sI1260
I17
sI1261
I6
sI1262
I4
sI1263
I9
sI1264
I7
sI1265
I11
sI1266
I4
sI1267
I5
sI1268
I4
sI1269
I10
sI1270
I4
sI1271
I5
sI1272
I5
sI1273
I9
sI1274
I10
sI1275
I6
sI1276
I20
sI1277
I6
sI1278
I36
sI1279
I6
sI1280
I6
sI1281
I4
sI1282
I7
sI1283
I5
sI1284
I41
sI1285
I16
sI1286
I9
sI1287
I10
sI1288
I4
sI1289
I8
sI1290
I6
sI1291
I5
sI1292
I8
sI1293
I13
sI1294
I4
sI1295
I4
sI1296
I6
sI1297
I10
sI1298
I6
sI1299
I8
sI1300
I6
sI1301
I9
sI1302
I8
sI1303
I10
sI1304
I16
sI1305
I6
sI1306
I7
sI1307
I24
sI1308
I4
sI1309
I11
sI1310
I12
sI1311
I80
sI1312
I9
sI1313
I7
sI1314
I22
sI1315
I8
sI1316
I13
sI1317
I5
sI1318
I4
sI1319
I10
sI1320
I4
sI1321
I4
sI1322
I6
sI1323
I9
sI1324
I66
sI1325
I5
sI1326
I31
sI1327
I69
sI1328
I17
sI1329
I6
sI1330
I11
sI1331
I8
sI1332
I8
sI1333
I31
sI1334
I5
sI1335
I14
sI1336
I10
sI1337
I5
sI1338
I11
sI1339
I37
sI1340
I5
sI1341
I44
sI1342
I6
sI1343
I4
sI1344
I8
sI1345
I9
sI1346
I4
sI1347
I13
sI1348
I11
sI1349
I15
sI1350
I18
sI1351
I10
sI1352
I6
sI1353
I4
sI1354
I6
sI1355
I8
sI1356
I6
sI1357
I6
sI1358
I7
sI1359
I11
sI1360
I11
sI1361
I7
sI1362
I4
sI1363
I9
sI1364
I7
sI1365
I46
sI1366
I5
sI1367
I5
sI1368
I5
sI1369
I4
sI1370
I15
sI1371
I4
sI1372
I24
sI1373
I9
sI1374
I37
sI1375
I4
sI1376
I27
sI1377
I5
sI1378
I4
sI1379
I18
sI1380
I13
sI1381
I71
sI1382
I4
sI1383
I4
sI1384
I30
sI1385
I11
sI1386
I9
sI1387
I24
sI1388
I21
sI1389
I10
sI1390
I10
sI1391
I20
sI1392
I5
sI1393
I33
sI1394
I12
sI1395
I4
sI1396
I13
sI1397
I7
sI1398
I6
sI1399
I8
sI1400
I6
sI1401
I6
sI1402
I9
sI1403
I5
sI1404
I4
sI1405
I4
sI1406
I21
sI1407
I33
sI1408
I9
sI1409
I6
sI1410
I6
sI1411
I10
sI1412
I6
sI1413
I13
sI1414
I5
sI1415
I8
sI1416
I23
sI1417
I4
sI1418
I7
sI1419
I13
sI1420
I4
sI1421
I26
sI1422
I35
sI1423
I5
sI1424
I6
sI1425
I10
sI1426
I4
sI1427
I6
sI1428
I9
sI1429
I7
sI1430
I19
sI1431
I13
sI1432
I7
sI1433
I14
sI1434
I5
sI1435
I6
sI1436
I4
sI1437
I9
sI1438
I7
sI1439
I50
sI1440
I4
sI1441
I9
sI1442
I5
sI1443
I5
sI1444
I9
sI1445
I5
sI1446
I21
sI1447
I11
sI1448
I12
sI1449
I7
sI1450
I5
sI1451
I5
sI1452
I5
sI1453
I16
sI1454
I9
sI1455
I21
sI1456
I4
sI1457
I12
sI1458
I33
sI1459
I4
sI1460
I8
sI1461
I15
sI1462
I6
sI1463
I4
sI1464
I21
sI1465
I6
sI1466
I10
sI1467
I6
sI1468
I40
sI1469
I6
sI1470
I26
sI1471
I11
sI1472
I11
sI1473
I18
sI1474
I7
sI1475
I16
sI1476
I4
sI1477
I5
sI1478
I18
sI1479
I9
sI1480
I10
sI1481
I9
sI1482
I5
sI1483
I5
sI1484
I11
sI1485
I12
sI1486
I41
sI1487
I4
sI1488
I24
sI1489
I25
sI1490
I29
sI1491
I4
sI1492
I30
sI1493
I21
sI1494
I16
sI1495
I4
sI1496
I6
sI1497
I9
sI1498
I61
sI1499
I7
sI1500
I5
sI1501
I8
sI1502
I4
sI1503
I15
sI1504
I8
sI1505
I17
sI1506
I4
sI1507
I20
sI1508
I6
sI1509
I4
sI1510
I11
sI1511
I5
sI1512
I32
sI1513
I4
sI1514
I4
sI1515
I7
sI1516
I6
sI1517
I22
sI1518
I28
sI1519
I4
sI1520
I5
sI1521
I4
sI1522
I4
sI1523
I12
sI1524
I8
sI1525
I4
sI1526
I6
sI1527
I9
sI1528
I39
sI1529
I7
sI1530
I12
sI1531
I5
sI1532
I4
sI1533
I4
sI1534
I5
sI1535
I6
sI1536
I4
sI1537
I8
sI1538
I4
sI1539
I4
sI1540
I6
sI1541
I4
sI1542
I6
sI1543
I4
sI1544
I4
sI1545
I31
sI1546
I4
sI1547
I5
sI1548
I8
sI1549
I7
sI1550
I5
sI1551
I4
sI1552
I76
sI1553
I21
sI1554
I20
sI1555
I13
sI1556
I4
sI1557
I5
sI1558
I9
sI1559
I8
sI1560
I15
sI1561
I31
sI1562
I5
sI1563
I9
sI1564
I8
sI1565
I32
sI1566
I11
sI1567
I10
sI1568
I4
sI1569
I4
sI1570
I13
sI1571
I4
sI1572
I8
sI1573
I30
sI1574
I22
sI1575
I5
sI1576
I57
sI1577
I11
sI1578
I5
sI1579
I6
sI1580
I9
sI1581
I10
sI1582
I11
sI1583
I8
sI1584
I10
sI1585
I9
sI1586
I8
sI1587
I34
sI1588
I6
sI1589
I8
sI1590
I6
sI1591
I8
sI1592
I10
sI1593
I26
sI1594
I25
sI1595
I44
sI1596
I18
sI1597
I9
sI1598
I10
sI1599
I14
sI1600
I7
sI1601
I74
sI1602
I5
sI1603
I4
sI1604
I8
sI1605
I5
sI1606
I18
sI1607
I13
sI1608
I5
sI1609
I35
sI1610
I8
sI1611
I5
sI1612
I9
sI1613
I5
sI1614
I11
sI1615
I11
sI1616
I5
sI1617
I6
sI1618
I5
sI1619
I30
sI1620
I8
sI1621
I5
sI1622
I4
sI1623
I4
sI1624
I14
sI1625
I5
sI1626
I5
sI1627
I4
sI1628
I6
sI1629
I8
sI1630
I7
sI1631
I36
sI1632
I26
sI1633
I6
sI1634
I4
sI1635
I4
sI1636
I4
sI1637
I8
sI1638
I6
sI1639
I5
sI1640
I4
sI1641
I8
sI1642
I7
sI1643
I6
sI1644
I12
sI1645
I6
sI1646
I4
sI1647
I5
sI1648
I5
sI1649
I5
sI1650
I12
sI1651
I5
sI1652
I111
sI1653
I12
sI1654
I8
sI1655
I101
sI1656
I6
sI1657
I108
sI1658
I5
sI1659
I5
sI1660
I55
sI1661
I56
sI1662
I7
sI1663
I5
sI1664
I10
sI1665
I4
sI1666
I21
sI1667
I6
sI1668
I11
sI1669
I9
sI1670
I6
sI1671
I35
sI1672
I5
sI1673
I4
sI1674
I15
sI1675
I14
sI1676
I10
sI1677
I6
sI1678
I15
sI1679
I4
sI1680
I6
sI1681
I6
sI1682
I25
sI1683
I26
sI1684
I116
sI1685
I8
sI1686
I20
sI1687
I24
sI1688
I4
sI1689
I5
sI1690
I19
sI1691
I27
sI1692
I5
sI1693
I4
sI1694
I10
sI1695
I13
sI1696
I4
sI1697
I4
sI1698
I5
sI1699
I5
sI1700
I11
sI1701
I24
sI1702
I4
sI1703
I6
sI1704
I4
sI1705
I10
sI1706
I5
sI1707
I5
sI1708
I5
sI1709
I61
sI1710
I11
sI1711
I6
sI1712
I14
sI1713
I4
sI1714
I8
sI1715
I4
sI1716
I5
sI1717
I12
sI1718
I11
sI1719
I34
sI1720
I5
sI1721
I9
sI1722
I4
sI1723
I17
sI1724
I5
sI1725
I8
sI1726
I6
sI1727
I5
sI1728
I28
sI1729
I5
sI1730
I4
sI1731
I7
sI1732
I5
sI1733
I9
sI1734
I10
sI1735
I33
sI1736
I22
sI1737
I5
sI1738
I26
sI1739
I4
sI1740
I5
sI1741
I4
sI1742
I20
sI1743
I5
sI1744
I6
sI1745
I4
sI1746
I7
sI1747
I5
sI1748
I4
sI1749
I7
sI1750
I4
sI1751
I64
sI1752
I36
sI1753
I4
sI1754
I4
sI1755
I4
sI1756
I15
sI1757
I5
sI1758
I7
sI1759
I12
sI1760
I6
sI1761
I30
sI1762
I5
sI1763
I5
sI1764
I9
sI1765
I10
sI1766
I4
sI1767
I16
sI1768
I7
sI1769
I21
sI1770
I4
sI1771
I8
sI1772
I13
sI1773
I4
sI1774
I15
sI1775
I15
sI1776
I6
sI1777
I14
sI1778
I54
sI1779
I37
sI1780
I4
sI1781
I31
sI1782
I5
sI1783
I4
sI1784
I9
sI1785
I6
sI1786
I5
sI1787
I13
sI1788
I6
sI1789
I5
sI1790
I4
sI1791
I8
sI1792
I29
sI1793
I5
sI1794
I7
sI1795
I4
sI1796
I25
sI1797
I18
sI1798
I5
sI1799
I6
sI1800
I50
sI1801
I5
sI1802
I11
sI1803
I37
sI1804
I23
sI1805
I5
sI1806
I4
sI1807
I5
sI1808
I31
sI1809
I7
sI1810
I5
sI1811
I8
sI1812
I4
sI1813
I6
sI1814
I4
sI1815
I10
sI1816
I7
sI1817
I50
sI1818
I26
sI1819
I9
sI1820
I28
sI1821
I4
sI1822
I65
sI1823
I4
sI1824
I10
sI1825
I5
sI1826
I4
sI1827
I9
sI1828
I19
sI1829
I15
sI1830
I12
sI1831
I5
sI1832
I17
sI1833
I9
sI1834
I5
sI1835
I8
sI1836
I10
sI1837
I15
sI1838
I10
sI1839
I75
sI1840
I39
sI1841
I4
sI1842
I14
sI1843
I5
sI1844
I8
sI1845
I5
sI1846
I5
sI1847
I55
sI1848
I14
sI1849
I15
sI1850
I4
sI1851
I27
sI1852
I7
sI1853
I7
sI1854
I13
sI1855
I19
sI1856
I26
sI1857
I4
sI1858
I6
sI1859
I4
sI1860
I4
sI1861
I6
sI1862
I14
sI1863
I5
sI1864
I17
sI1865
I4
sI1866
I11
sI1867
I4
sI1868
I6
sI1869
I6
sI1870
I4
sI1871
I147
sI1872
I9
sI1873
I5
sI1874
I23
sI1875
I20
sI1876
I4
sI1877
I45
sI1878
I5
sI1879
I11
sI1880
I5
sI1881
I4
sI1882
I4
sI1883
I43
sI1884
I24
sI1885
I114
sI1886
I17
sI1887
I11
sI1888
I12
sI1889
I4
sI1890
I5
sI1891
I10
sI1892
I7
sI1893
I5
sI1894
I8
sI1895
I10
sI1896
I10
sI1897
I119
sI1898
I4
sI1899
I4
sI1900
I11
sI1901
I14
sI1902
I25
sI1903
I37
sI1904
I9
sI1905
I8
sI1906
I5
sI1907
I30
sI1908
I5
sI1909
I10
sI1910
I4
sI1911
I8
sI1912
I9
sI1913
I21
sI1914
I9
sI1915
I6
sI1916
I5
sI1917
I10
sI1918
I18
sI1919
I7
sI1920
I5
sI1921
I28
sI1922
I5
sI1923
I9
sI1924
I5
sI1925
I6
sI1926
I9
sI1927
I4
sI1928
I4
sI1929
I6
sI1930
I5
sI1931
I4
sI1932
I8
sI1933
I7
sI1934
I5
sI1935
I14
sI1936
I6
sI1937
I4
sI1938
I5
sI1939
I7
sI1940
I19
sI1941
I4
sI1942
I28
sI1943
I5
sI1944
I37
sI1945
I5
sI1946
I4
sI1947
I6
sI1948
I8
sI1949
I17
sI1950
I38
sI1951
I9
sI1952
I19
sI1953
I9
sI1954
I13
sI1955
I5
sI1956
I11
sI1957
I14
sI1958
I5
sI1959
I13
sI1960
I14
sI1961
I6
sI1962
I12
sI1963
I15
sI1964
I31
sI1965
I18
sI1966
I6
sI1967
I4
sI1968
I5
sI1969
I115
sI1970
I5
sI1971
I27
sI1972
I4
sI1973
I15
sI1974
I4
sI1975
I6
sI1976
I8
sI1977
I72
sI1978
I8
sI1979
I10
sI1980
I27
sI1981
I4
sI1982
I48
sI1983
I8
sI1984
I7
sI1985
I7
sI1986
I7
sI1987
I5
sI1988
I4
sI1989
I97
sI1990
I158
sI1991
I5
sI1992
I7
sI1993
I4
sI1994
I7
sI1995
I26
sI1996
I9
sI1997
I5
sI1998
I4
sI1999
I4
sI2000
I5
sI2001
I10
sI2002
I6
sI2003
I13
sI2004
I6
sI2005
I15
sI2006
I8
sI2007
I4
sI2008
I37
sI2009
I6
sI2010
I6
sI2011
I6
sI2012
I7
sI2013
I4
sI2014
I12
sI2015
I6
sI2016
I6
sI2017
I28
sI2018
I12
sI2019
I7
sI2020
I9
sI2021
I6
sI2022
I9
sI2023
I5
sI2024
I7
sI2025
I10
sI2026
I7
sI2027
I9
sI2028
I4
sI2029
I13
sI2030
I5
sI2031
I16
sI2032
I16
sI2033
I28
sI2034
I13
sI2035
I4
sI2036
I11
sI2037
I6
sI2038
I11
sI2039
I8
sI2040
I11
sI2041
I8
sI2042
I4
sI2043
I12
sI2044
I10
sI2045
I12
sI2046
I6
sI2047
I69
sI2048
I40
sI2049
I9
sI2050
I4
sI2051
I4
sI2052
I55
sI2053
I7
sI2054
I6
sI2055
I17
sI2056
I5
sI2057
I14
sI2058
I141
sI2059
I5
sI2060
I5
sI2061
I18
sI2062
I36
sI2063
I17
sI2064
I5
sI2065
I6
sI2066
I6
sI2067
I4
sI2068
I7
sI2069
I4
sI2070
I11
sI2071
I10
sI2072
I9
sI2073
I74
sI2074
I6
sI2075
I15
sI2076
I4
sI2077
I4
sI2078
I6
sI2079
I5
sI2080
I17
sI2081
I25
sI2082
I5
sI2083
I6
sI2084
I13
sI2085
I40
sI2086
I5
sI2087
I8
sI2088
I7
sI2089
I7
sI2090
I4
sI2091
I10
sI2092
I4
sI2093
I54
sI2094
I19
sI2095
I4
sI2096
I11
sI2097
I7
sI2098
I7
sI2099
I8
sI2100
I4
sI2101
I7
sI2102
I4
sI2103
I4
sI2104
I5
sI2105
I16
sI2106
I10
sI2107
I30
sI2108
I4
sI2109
I4
sI2110
I16
sI2111
I4
sI2112
I6
sI2113
I4
sI2114
I4
sI2115
I16
sI2116
I7
sI2117
I4
sI2118
I9
sI2119
I4
sI2120
I27
sI2121
I16
sI2122
I4
sI2123
I9
sI2124
I9
sI2125
I31
sI2126
I4
sI2127
I10
sI2128
I4
sI2129
I5
sI2130
I8
sI2131
I4
sI2132
I9
sI2133
I4
sI2134
I5
sI2135
I10
sI2136
I4
sI2137
I7
sI2138
I6
sI2139
I4
sI2140
I5
sI2141
I6
sI2142
I4
sI2143
I5
sI2144
I10
sI2145
I118
sI2146
I18
sI2147
I5
sI2148
I5
sI2149
I4
sI2150
I4
sI2151
I4
sI2152
I5
sI2153
I13
sI2154
I5
sI2155
I5
sI2156
I8
sI2157
I17
sI2158
I4
sI2159
I6
sI2160
I10
sI2161
I5
sI2162
I11
sI2163
I4
sI2164
I11
sI2165
I14
sI2166
I5
sI2167
I114
sI2168
I9
sI2169
I4
sI2170
I38
sI2171
I5
sI2172
I5
sI2173
I55
sI2174
I30
sI2175
I9
sI2176
I5
sI2177
I39
sI2178
I53
sI2179
I7
sI2180
I5
sI2181
I5
sI2182
I41
sI2183
I24
sI2184
I5
sI2185
I5
sI2186
I5
sI2187
I7
sI2188
I4
sI2189
I13
sI2190
I40
sI2191
I9
sI2192
I52
sI2193
I5
sI2194
I15
sI2195
I4
sI2196
I11
sI2197
I8
sI2198
I9
sI2199
I4
sI2200
I18
sI2201
I12
sI2202
I5
sI2203
I4
sI2204
I26
sI2205
I5
sI2206
I12
sI2207
I25
sI2208
I11
sI2209
I12
sI2210
I16
sI2211
I6
sI2212
I17
sI2213
I5
sI2214
I5
sI2215
I9
sI2216
I7
sI2217
I17
sI2218
I30
sI2219
I4
sI2220
I10
sI2221
I6
sI2222
I53
sI2223
I4
sI2224
I6
sI2225
I5
sI2226
I4
sI2227
I4
sI2228
I5
sI2229
I5
sI2230
I4
sI2231
I19
sI2232
I10
sI2233
I12
sI2234
I10
sI2235
I15
sI2236
I4
sI2237
I32
sI2238
I4
sI2239
I6
sI2240
I13
sI2241
I12
sI2242
I32
sI2243
I54
sI2244
I5
sI2245
I5
sI2246
I9
sI2247
I4
sI2248
I4
sI2249
I5
sI2250
I26
sI2251
I6
sI2252
I7
sI2253
I9
sI2254
I8
sI2255
I6
sI2256
I7
sI2257
I11
sI2258
I4
sI2259
I5
sI2260
I7
sI2261
I4
sI2262
I5
sI2263
I27
sI2264
I5
sI2265
I4
sI2266
I7
sI2267
I5
sI2268
I18
sI2269
I7
sI2270
I5
sI2271
I34
sI2272
I4
sI2273
I4
sI2274
I4
sI2275
I11
sI2276
I6
sI2277
I11
sI2278
I5
sI2279
I22
sI2280
I11
sI2281
I10
sI2282
I5
sI2283
I16
sI2284
I5
sI2285
I8
sI2286
I5
sI2287
I8
sI2288
I9
sI2289
I8
sI2290
I23
sI2291
I21
sI2292
I4
sI2293
I6
sI2294
I63
sI2295
I5
sI2296
I84
sI2297
I4
sI2298
I8
sI2299
I7
sI2300
I5
sI2301
I5
sI2302
I16
sI2303
I81
sI2304
I6
sI2305
I11
sI2306
I53
sI2307
I11
sI2308
I5
sI2309
I34
sI2310
I4
sI2311
I27
sI2312
I7
sI2313
I5
sI2314
I6
sI2315
I8
sI2316
I25
sI2317
I4
sI2318
I7
sI2319
I9
sI2320
I50
sI2321
I4
sI2322
I16
sI2323
I7
sI2324
I5
sI2325
I82
sI2326
I14
sI2327
I4
sI2328
I6
sI2329
I23
sI2330
I7
sI2331
I12
sI2332
I10
sI2333
I12
sI2334
I8
sI2335
I5
sI2336
I7
sI2337
I9
sI2338
I45
sI2339
I6
sI2340
I7
sI2341
I13
sI2342
I9
sI2343
I6
sI2344
I9
sI2345
I6
sI2346
I4
sI2347
I9
sI2348
I15
sI2349
I7
sI2350
I4
sI2351
I18
sI2352
I4
sI2353
I14
sI2354
I7
sI2355
I6
sI2356
I21
sI2357
I7
sI2358
I7
sI2359
I6
sI2360
I4
sI2361
I5
sI2362
I4
sI2363
I4
sI2364
I15
sI2365
I13
sI2366
I4
sI2367
I5
sI2368
I6
sI2369
I7
sI2370
I46
sI2371
I11
sI2372
I4
sI2373
I9
sI2374
I7
sI2375
I4
sI2376
I20
sI2377
I8
sI2378
I38
sI2379
I12
sI2380
I4
sI2381
I4
sI2382
I8
sI2383
I144
sI2384
I4
sI2385
I4
sI2386
I33
sI2387
I5
sI2388
I4
sI2389
I5
sI2390
I6
sI2391
I19
sI2392
I6
sI2393
I25
sI2394
I17
sI2395
I7
sI2396
I6
sI2397
I19
sI2398
I7
sI2399
I35
sI2400
I13
sI2401
I21
sI2402
I7
sI2403
I5
sI2404
I4
sI2405
I9
sI2406
I4
sI2407
I4
sI2408
I8
sI2409
I4
sI2410
I9
sI2411
I6
sI2412
I46
sI2413
I40
sI2414
I90
sI2415
I7
sI2416
I45
sI2417
I8
sI2418
I4
sI2419
I9
sI2420
I7
sI2421
I13
sI2422
I94
sI2423
I26
sI2424
I6
sI2425
I6
sI2426
I14
sI2427
I12
sI2428
I5
sI2429
I12
sI2430
I8
sI2431
I4
sI2432
I4
sI2433
I7
sI2434
I5
sI2435
I14
sI2436
I12
sI2437
I4
sI2438
I10
sI2439
I9
sI2440
I7
sI2441
I30
sI2442
I4
sI2443
I8
sI2444
I4
sI2445
I10
sI2446
I7
sI2447
I10
sI2448
I47
sI2449
I34
sI2450
I6
sI2451
I14
sI2452
I7
sI2453
I4
sI2454
I4
sI2455
I4
sI2456
I5
sI2457
I9
sI2458
I9
sI2459
I5
sI2460
I8
sI2461
I7
sI2462
I6
sI2463
I9
sI2464
I4
sI2465
I4
sI2466
I153
sI2467
I5
sI2468
I20
sI2469
I7
sI2470
I8
sI2471
I29
sI2472
I35
sI2473
I5
sI2474
I5
sI2475
I4
sI2476
I14
sI2477
I39
sI2478
I44
sI2479
I6
sI2480
I9
sI2481
I69
sI2482
I54
sI2483
I8
sI2484
I10
sI2485
I13
sI2486
I22
sI2487
I5
sI2488
I4
sI2489
I4
sI2490
I16
sI2491
I8
sI2492
I4
sI2493
I27
sI2494
I9
sI2495
I11
sI2496
I7
sI2497
I4
sI2498
I4
sI2499
I15
sI2500
I4
sI2501
I33
sI2502
I5
sI2503
I7
sI2504
I4
sI2505
I5
sI2506
I4
sI2507
I4
sI2508
I4
sI2509
I8
sI2510
I25
sI2511
I7
sI2512
I6
sI2513
I9
sI2514
I10
sI2515
I8
sI2516
I4
sI2517
I4
sI2518
I141
sI2519
I5
sI2520
I4
sI2521
I9
sI2522
I4
sI2523
I7
sI2524
I4
sI2525
I4
sI2526
I14
sI2527
I12
sI2528
I26
sI2529
I9
sI2530
I12
sI2531
I4
sI2532
I11
sI2533
I5
sI2534
I5
sI2535
I134
sI2536
I5
sI2537
I5
sI2538
I7
sI2539
I103
sI2540
I15
sI2541
I11
sI2542
I5
sI2543
I7
sI2544
I9
sI2545
I22
sI2546
I18
sI2547
I11
sI2548
I12
sI2549
I10
sI2550
I5
sI2551
I72
sI2552
I15
sI2553
I6
sI2554
I23
sI2555
I8
sI2556
I7
sI2557
I45
sI2558
I11
sI2559
I6
sI2560
I30
sI2561
I6
sI2562
I4
sI2563
I9
sI2564
I5
sI2565
I15
sI2566
I7
sI2567
I6
sI2568
I8
sI2569
I34
sI2570
I6
sI2571
I7
sI2572
I49
sI2573
I6
sI2574
I18
sI2575
I5
sI2576
I13
sI2577
I4
sI2578
I5
sI2579
I5
sI2580
I5
sI2581
I20
sI2582
I4
sI2583
I18
sI2584
I4
sI2585
I6
sI2586
I6
sI2587
I10
sI2588
I5
sI2589
I27
sI2590
I14
sI2591
I4
sI2592
I4
sI2593
I22
sI2594
I14
sI2595
I24
sI2596
I27
sI2597
I5
sI2598
I8
sI2599
I16
sI2600
I11
sI2601
I4
sI2602
I16
sI2603
I23
sI2604
I160
sI2605
I7
sI2606
I6
sI2607
I4
sI2608
I7
sI2609
I19
sI2610
I4
sI2611
I45
sI2612
I10
sI2613
I4
sI2614
I5
sI2615
I40
sI2616
I4
sI2617
I4
sI2618
I60
sI2619
I4
sI2620
I5
sI2621
I14
sI2622
I4
sI2623
I45
sI2624
I7
sI2625
I25
sI2626
I20
sI2627
I8
sI2628
I4
sI2629
I4
sI2630
I4
sI2631
I12
sI2632
I6
sI2633
I8
sI2634
I12
sI2635
I4
sI2636
I5
sI2637
I31
sI2638
I4
sI2639
I7
sI2640
I4
sI2641
I11
sI2642
I5
sI2643
I7
sI2644
I5
sI2645
I38
sI2646
I50
sI2647
I46
sI2648
I35
sI2649
I34
sI2650
I107
sI2651
I58
sI2652
I11
sI2653
I6
sI2654
I14
sI2655
I41
sI2656
I5
sI2657
I41
sI2658
I5
sI2659
I8
sI2660
I6
sI2661
I4
sI2662
I6
sI2663
I6
sI2664
I5
sI2665
I7
sI2666
I5
sI2667
I5
sI2668
I4
sI2669
I34
sI2670
I5
sI2671
I4
sI2672
I4
sI2673
I4
sI2674
I4
sI2675
I12
sI2676
I6
sI2677
I27
sI2678
I4
sI2679
I34
sI2680
I21
sI2681
I4
sI2682
I4
sI2683
I10
sI2684
I4
sI2685
I31
sI2686
I105
sI2687
I15
sI2688
I4
sI2689
I20
sI2690
I6
sI2691
I10
sI2692
I5
sI2693
I8
sI2694
I5
sI2695
I5
sI2696
I4
sI2697
I100
sI2698
I8
sI2699
I43
sI2700
I80
sI2701
I4
sI2702
I4
sI2703
I5
sI2704
I5
sI2705
I6
sI2706
I18
sI2707
I15
sI2708
I19
sI2709
I52
sI2710
I4
sI2711
I7
sI2712
I6
sI2713
I4
sI2714
I20
sI2715
I4
sI2716
I110
sI2717
I6
sI2718
I5
sI2719
I9
sI2720
I8
sI2721
I9
sI2722
I4
sI2723
I4
sI2724
I4
sI2725
I5
sI2726
I8
sI2727
I25
sI2728
I5
sI2729
I5
sI2730
I8
sI2731
I7
sI2732
I143
sI2733
I14
sI2734
I5
sI2735
I10
sI2736
I5
sI2737
I4
sI2738
I17
sI2739
I5
sI2740
I11
sI2741
I102
sI2742
I4
sI2743
I4
sI2744
I4
sI2745
I13
sI2746
I4
sI2747
I4
sI2748
I4
sI2749
I9
sI2750
I7
sI2751
I23
sI2752
I8
sI2753
I8
sI2754
I73
sI2755
I5
sI2756
I5
sI2757
I5
sI2758
I5
sI2759
I12
sI2760
I7
sI2761
I6
sI2762
I7
sI2763
I5
sI2764
I13
sI2765
I4
sI2766
I20
sI2767
I26
sI2768
I63
sI2769
I23
sI2770
I13
sI2771
I17
sI2772
I4
sI2773
I15
sI2774
I38
sI2775
I4
sI2776
I9
sI2777
I4
sI2778
I6
sI2779
I44
sI2780
I5
sI2781
I19
sI2782
I17
sI2783
I14
sI2784
I6
sI2785
I13
sI2786
I7
sI2787
I46
sI2788
I7
sI2789
I13
sI2790
I5
sI2791
I59
sI2792
I18
sI2793
I7
sI2794
I4
sI2795
I11
sI2796
I8
sI2797
I7
sI2798
I5
sI2799
I14
sI2800
I4
sI2801
I10
sI2802
I21
sI2803
I6
sI2804
I6
sI2805
I8
sI2806
I10
sI2807
I5
sI2808
I12
sI2809
I4
sI2810
I5
sI2811
I12
sI2812
I4
sI2813
I30
sI2814
I4
sI2815
I4
sI2816
I22
sI2817
I50
sI2818
I35
sI2819
I8
sI2820
I8
sI2821
I5
sI2822
I11
sI2823
I7
sI2824
I21
sI2825
I4
sI2826
I6
sI2827
I4
sI2828
I4
sI2829
I9
sI2830
I8
sI2831
I6
sI2832
I5
sI2833
I4
sI2834
I12
sI2835
I8
sI2836
I6
sI2837
I6
sI2838
I5
sI2839
I17
sI2840
I34
sI2841
I10
sI2842
I11
sI2843
I17
sI2844
I10
sI2845
I9
sI2846
I9
sI2847
I6
sI2848
I7
sI2849
I8
sI2850
I10
sI2851
I14
sI2852
I13
sI2853
I8
sI2854
I6
sI2855
I4
sI2856
I30
sI2857
I22
sI2858
I6
sI2859
I8
sI2860
I14
sI2861
I5
sI2862
I6
sI2863
I6
sI2864
I27
sI2865
I5
sI2866
I16
sI2867
I4
sI2868
I10
sI2869
I22
sI2870
I4
sI2871
I14
sI2872
I4
sI2873
I6
sI2874
I4
sI2875
I5
sI2876
I7
sI2877
I4
sI2878
I4
sI2879
I4
sI2880
I6
sI2881
I6
sI2882
I4
sI2883
I5
sI2884
I92
sI2885
I10
sI2886
I34
sI2887
I27
sI2888
I5
sI2889
I52
sI2890
I9
sI2891
I6
sI2892
I12
sI2893
I9
sI2894
I5
sI2895
I6
sI2896
I6
sI2897
I5
sI2898
I21
sI2899
I6
sI2900
I20
sI2901
I4
sI2902
I14
sI2903
I4
sI2904
I11
sI2905
I12
sI2906
I5
sI2907
I7
sI2908
I9
sI2909
I30
sI2910
I7
sI2911
I9
sI2912
I8
sI2913
I6
sI2914
I4
sI2915
I43
sI2916
I5
sI2917
I7
sI2918
I4
sI2919
I42
sI2920
I14
sI2921
I7
sI2922
I8
sI2923
I4
sI2924
I8
sI2925
I5
sI2926
I22
sI2927
I5
sI2928
I12
sI2929
I7
sI2930
I4
sI2931
I4
sI2932
I4
sI2933
I43
sI2934
I9
sI2935
I4
sI2936
I5
sI2937
I4
sI2938
I4
sI2939
I12
sI2940
I5
sI2941
I15
sI2942
I5
sI2943
I6
sI2944
I11
sI2945
I11
sI2946
I4
sI2947
I131
sI2948
I13
sI2949
I7
sI2950
I7
sI2951
I4
sI2952
I17
sI2953
I4
sI2954
I33
sI2955
I8
sI2956
I15
sI2957
I4
sI2958
I7
sI2959
I6
sI2960
I11
sI2961
I4
sI2962
I56
sI2963
I32
sI2964
I24
sI2965
I5
sI2966
I9
sI2967
I20
sI2968
I9
sI2969
I14
sI2970
I34
sI2971
I7
sI2972
I8
sI2973
I5
sI2974
I7
sI2975
I4
sI2976
I43
sI2977
I59
sI2978
I13
sI2979
I5
sI2980
I10
sI2981
I4
sI2982
I16
sI2983
I5
sI2984
I31
sI2985
I8
sI2986
I5
sI2987
I11
sI2988
I7
sI2989
I7
sI2990
I7
sI2991
I4
sI2992
I6
sI2993
I71
sI2994
I7
sI2995
I28
sI2996
I7
sI2997
I8
sI2998
I4
sI2999
I15
sI3000
I4
sI3001
I4
sI3002
I11
sI3003
I21
sI3004
I6
sI3005
I12
sI3006
I12
sI3007
I9
sI3008
I8
sI3009
I6
sI3010
I13
sI3011
I11
sI3012
I6
sI3013
I6
sI3014
I5
sI3015
I4
sI3016
I8
sI3017
I7
sI3018
I25
sI3019
I18
sI3020
I6
sI3021
I4
sI3022
I5
sI3023
I4
sI3024
I5
sI3025
I6
sI3026
I4
sI3027
I6
sI3028
I5
sI3029
I9
sI3030
I26
sI3031
I11
sI3032
I11
sI3033
I4
sI3034
I5
sI3035
I28
sI3036
I4
sI3037
I19
sI3038
I4
sI3039
I5
sI3040
I6
sI3041
I29
sI3042
I70
sI3043
I4
sI3044
I4
sI3045
I5
sI3046
I18
sI3047
I5
sI3048
I14
sI3049
I5
sI3050
I5
sI3051
I48
sI3052
I14
sI3053
I4
sI3054
I6
sI3055
I5
sI3056
I24
sI3057
I11
sI3058
I9
sI3059
I4
sI3060
I9
sI3061
I6
sI3062
I5
sI3063
I4
sI3064
I16
sI3065
I11
sI3066
I4
sI3067
I8
sI3068
I4
sI3069
I5
sI3070
I8
sI3071
I4
sI3072
I12
sI3073
I8
sI3074
I14
sI3075
I6
sI3076
I4
sI3077
I4
sI3078
I9
sI3079
I66
sI3080
I35
sI3081
I19
sI3082
I12
sI3083
I11
sI3084
I8
sI3085
I11
sI3086
I15
sI3087
I25
sI3088
I7
sI3089
I15
sI3090
I20
sI3091
I4
sI3092
I12
sI3093
I34
sI3094
I6
sI3095
I5
sI3096
I6
sI3097
I7
sI3098
I5
sI3099
I7
sI3100
I30
sI3101
I12
sI3102
I4
sI3103
I10
sI3104
I9
sI3105
I11
sI3106
I9
sI3107
I8
sI3108
I5
sI3109
I5
sI3110
I7
sI3111
I4
sI3112
I4
sI3113
I11
sI3114
I6
sI3115
I6
sI3116
I4
sI3117
I12
sI3118
I4
sI3119
I4
sI3120
I19
sI3121
I6
sI3122
I4
sI3123
I28
sI3124
I10
sI3125
I19
sI3126
I4
sI3127
I5
sI3128
I10
sI3129
I4
sI3130
I4
sI3131
I18
sI3132
I4
sI3133
I4
sI3134
I27
sI3135
I4
sI3136
I6
sI3137
I4
sI3138
I5
sI3139
I4
sI3140
I4
sI3141
I6
sI3142
I19
sI3143
I14
sI3144
I7
sI3145
I4
sI3146
I5
sI3147
I11
sI3148
I74
sI3149
I57
sI3150
I25
sI3151
I11
sI3152
I76
sI3153
I8
sI3154
I29
sI3155
I7
sI3156
I17
sI3157
I4
sI3158
I34
sI3159
I5
sI3160
I14
sI3161
I7
sI3162
I49
sI3163
I4
sI3164
I8
sI3165
I7
sI3166
I4
sI3167
I4
sI3168
I39
sI3169
I4
sI3170
I8
sI3171
I19
sI3172
I9
sI3173
I20
sI3174
I22
sI3175
I38
sI3176
I23
sI3177
I5
sI3178
I5
sI3179
I5
sI3180
I4
sI3181
I11
sI3182
I6
sI3183
I28
sI3184
I61
sI3185
I7
sI3186
I5
sI3187
I21
sI3188
I8
sI3189
I5
sI3190
I15
sI3191
I6
sI3192
I5
sI3193
I5
sI3194
I8
sI3195
I5
sI3196
I6
sI3197
I15
sI3198
I17
sI3199
I20
sI3200
I6
sI3201
I4
sI3202
I4
sI3203
I5
sI3204
I8
sI3205
I6
sI3206
I7
sI3207
I12
sI3208
I4
sI3209
I4
sI3210
I9
sI3211
I95
sI3212
I6
sI3213
I12
sI3214
I5
sI3215
I6
sI3216
I43
sI3217
I10
sI3218
I45
sI3219
I4
sI3220
I10
sI3221
I18
sI3222
I5
sI3223
I7
sI3224
I4
sI3225
I6
sI3226
I4
sI3227
I4
sI3228
I6
sI3229
I6
sI3230
I8
sI3231
I5
sI3232
I8
sI3233
I15
sI3234
I6
sI3235
I4
sI3236
I7
sI3237
I5
sI3238
I11
sI3239
I47
sI3240
I6
sI3241
I4
sI3242
I4
sI3243
I6
sI3244
I22
sI3245
I13
sI3246
I5
sI3247
I8
sI3248
I6
sI3249
I33
sI3250
I5
sI3251
I7
sI3252
I4
sI3253
I15
sI3254
I5
sI3255
I15
sI3256
I31
sI3257
I4
sI3258
I6
sI3259
I10
sI3260
I14
sI3261
I42
sI3262
I31
sI3263
I4
sI3264
I5
sI3265
I6
sI3266
I25
sI3267
I8
sI3268
I4
sI3269
I7
sI3270
I19
sI3271
I5
sI3272
I6
sI3273
I8
sI3274
I4
sI3275
I6
sI3276
I13
sI3277
I6
sI3278
I4
sI3279
I34
sI3280
I19
sI3281
I4
sI3282
I4
sI3283
I6
sI3284
I19
sI3285
I6
sI3286
I13
sI3287
I22
sI3288
I5
sI3289
I4
sI3290
I4
sI3291
I9
sI3292
I9
sI3293
I5
sI3294
I4
sI3295
I9
sI3296
I10
sI3297
I4
sI3298
I4
sI3299
I8
sI3300
I20
sI3301
I6
sI3302
I4
sI3303
I5
sI3304
I4
sI3305
I5
sI3306
I10
sI3307
I8
sI3308
I42
sI3309
I5
sI3310
I18
sI3311
I9
sI3312
I4
sI3313
I27
sI3314
I10
sI3315
I7
sI3316
I11
sI3317
I8
sI3318
I15
sI3319
I4
sI3320
I10
sI3321
I24
sI3322
I18
sI3323
I5
sI3324
I10
sI3325
I23
sI3326
I8
sI3327
I8
sI3328
I4
sI3329
I18
sI3330
I5
sI3331
I7
sI3332
I4
sI3333
I4
sI3334
I9
sI3335
I8
sI3336
I33
sI3337
I5
sI3338
I10
sI3339
I10
sI3340
I13
sI3341
I4
sI3342
I5
sI3343
I6
sI3344
I16
sI3345
I4
sI3346
I9
sI3347
I4
sI3348
I6
sI3349
I5
sI3350
I4
sI3351
I13
sI3352
I47
sI3353
I5
sI3354
I8
sI3355
I31
sI3356
I16
sI3357
I11
sI3358
I6
sI3359
I5
sI3360
I4
sI3361
I5
sI3362
I16
sI3363
I41
sI3364
I24
sI3365
I5
sI3366
I8
sI3367
I11
sI3368
I4
sI3369
I14
sI3370
I6
sI3371
I4
sI3372
I34
sI3373
I4
sI3374
I7
sI3375
I4
sI3376
I4
sI3377
I7
sI3378
I51
sI3379
I4
sI3380
I5
sI3381
I4
sI3382
I5
sI3383
I45
sI3384
I50
sI3385
I9
sI3386
I7
sI3387
I5
sI3388
I6
sI3389
I22
sI3390
I7
sI3391
I4
sI3392
I4
sI3393
I4
sI3394
I4
sI3395
I6
sI3396
I4
sI3397
I7
sI3398
I84
sI3399
I5
sI3400
I78
sI3401
I4
sI3402
I7
sI3403
I9
sI3404
I17
sI3405
I15
sI3406
I4
sI3407
I4
sI3408
I11
sI3409
I137
sI3410
I6
sI3411
I6
sI3412
I25
sI3413
I6
sI3414
I99
sI3415
I32
sI3416
I9
sI3417
I27
sI3418
I5
sI3419
I14
sI3420
I26
sI3421
I10
sI3422
I9
sI3423
I12
sI3424
I12
sI3425
I8
sI3426
I5
sI3427
I14
sI3428
I11
sI3429
I4
sI3430
I14
sI3431
I4
sI3432
I5
sI3433
I23
sI3434
I5
sI3435
I5
sI3436
I4
sI3437
I15
sI3438
I4
sI3439
I27
sI3440
I9
sI3441
I23
sI3442
I8
sI3443
I9
sI3444
I19
sI3445
I5
sI3446
I6
sI3447
I6
sI3448
I6
sI3449
I21
sI3450
I33
sI3451
I4
sI3452
I5
sI3453
I5
sI3454
I7
sI3455
I12
sI3456
I8
sI3457
I38
sI3458
I11
sI3459
I13
sI3460
I29
sI3461
I4
sI3462
I15
sI3463
I12
sI3464
I4
sI3465
I4
sI3466
I16
sI3467
I12
sI3468
I5
sI3469
I12
sI3470
I4
sI3471
I7
sI3472
I10
sI3473
I6
sI3474
I6
sI3475
I5
sI3476
I5
sI3477
I4
sI3478
I15
sI3479
I4
sI3480
I13
sI3481
I13
sI3482
I7
sI3483
I20
sI3484
I27
sI3485
I7
sI3486
I8
sI3487
I22
sI3488
I18
sI3489
I76
sI3490
I7
sI3491
I6
sI3492
I5
sI3493
I8
sI3494
I104
sI3495
I11
sI3496
I7
sI3497
I13
sI3498
I4
sI3499
I30
sI3500
I12
sI3501
I7
sI3502
I4
sI3503
I4
sI3504
I4
sI3505
I13
sI3506
I4
sI3507
I49
sI3508
I5
sI3509
I9
sI3510
I7
sI3511
I4
sI3512
I5
sI3513
I11
sI3514
I7
sI3515
I4
sI3516
I4
sI3517
I5
sI3518
I6
sI3519
I13
sI3520
I13
sI3521
I29
sI3522
I4
sI3523
I5
sI3524
I7
sI3525
I6
sI3526
I12
sI3527
I9
sI3528
I7
sI3529
I16
sI3530
I9
sI3531
I4
sI3532
I19
sI3533
I8
sI3534
I4
sI3535
I6
sI3536
I11
sI3537
I49
sI3538
I9
sI3539
I10
sI3540
I22
sI3541
I19
sI3542
I7
sI3543
I20
sI3544
I46
sI3545
I21
sI3546
I10
sI3547
I4
sI3548
I5
sI3549
I39
sI3550
I10
sI3551
I4
sI3552
I62
sI3553
I10
sI3554
I16
sI3555
I9
sI3556
I90
sI3557
I6
sI3558
I6
sI3559
I8
sI3560
I6
sI3561
I5
sI3562
I17
sI3563
I7
sI3564
I5
sI3565
I4
sI3566
I5
sI3567
I17
sI3568
I4
sI3569
I20
sI3570
I10
sI3571
I7
sI3572
I30
sI3573
I7
sI3574
I35
sI3575
I16
sI3576
I14
sI3577
I22
sI3578
I4
sI3579
I4
sI3580
I12
sI3581
I4
sI3582
I42
sI3583
I6
sI3584
I10
sI3585
I4
sI3586
I10
sI3587
I26
sI3588
I4
sI3589
I9
sI3590
I6
sI3591
I6
sI3592
I5
sI3593
I4
sI3594
I7
sI3595
I11
sI3596
I4
sI3597
I15
sI3598
I16
sI3599
I9
sI3600
I4
sI3601
I12
sI3602
I9
sI3603
I11
sI3604
I29
sI3605
I4
sI3606
I4
sI3607
I6
sI3608
I10
sI3609
I4
sI3610
I4
sI3611
I10
sI3612
I4
sI3613
I11
sI3614
I18
sI3615
I15
sI3616
I5
sI3617
I62
sI3618
I6
sI3619
I4
sI3620
I65
sI3621
I17
sI3622
I5
sI3623
I4
sI3624
I6
sI3625
I4
sI3626
I12
sI3627
I24
sI3628
I6
sI3629
I12
sI3630
I4
sI3631
I4
sI3632
I6
sI3633
I59
sI3634
I4
sI3635
I11
sI3636
I4
sI3637
I20
sI3638
I7
sI3639
I4
sI3640
I5
sI3641
I4
sI3642
I9
sI3643
I6
sI3644
I5
sI3645
I10
sI3646
I12
sI3647
I10
sI3648
I11
sI3649
I112
sI3650
I13
sI3651
I88
sI3652
I13
sI3653
I17
sI3654
I23
sI3655
I4
sI3656
I4
sI3657
I51
sI3658
I5
sI3659
I21
sI3660
I13
sI3661
I4
sI3662
I4
sI3663
I15
sI3664
I12
sI3665
I27
sI3666
I17
sI3667
I25
sI3668
I23
sI3669
I13
sI3670
I5
sI3671
I12
sI3672
I14
sI3673
I5
sI3674
I39
sI3675
I34
sI3676
I5
sI3677
I12
sI3678
I4
sI3679
I7
sI3680
I25
sI3681
I14
sI3682
I46
sI3683
I51
sI3684
I7
sI3685
I6
sI3686
I6
sI3687
I7
sI3688
I4
sI3689
I5
sI3690
I20
sI3691
I9
sI3692
I71
sI3693
I4
sI3694
I5
sI3695
I6
sI3696
I5
sI3697
I24
sI3698
I16
sI3699
I160
sI3700
I13
sI3701
I18
sI3702
I17
sI3703
I5
sI3704
I5
sI3705
I11
sI3706
I13
sI3707
I9
sI3708
I17
sI3709
I10
sI3710
I18
sI3711
I5
sI3712
I6
sI3713
I28
sI3714
I4
sI3715
I4
sI3716
I5
sI3717
I11
sI3718
I5
sI3719
I57
sI3720
I5
sI3721
I11
sI3722
I19
sI3723
I5
sI3724
I23
sI3725
I4
sI3726
I25
sI3727
I4
sI3728
I4
sI3729
I23
sI3730
I5
sI3731
I8
sI3732
I21
sI3733
I6
sI3734
I7
sI3735
I8
sI3736
I35
sI3737
I6
sI3738
I5
sI3739
I4
sI3740
I13
sI3741
I20
sI3742
I10
sI3743
I7
sI3744
I15
sI3745
I4
sI3746
I94
sI3747
I6
sI3748
I4
sI3749
I10
sI3750
I5
sI3751
I7
sI3752
I6
sI3753
I16
sI3754
I8
sI3755
I11
sI3756
I4
sI3757
I73
sI3758
I8
sI3759
I4
sI3760
I4
sI3761
I5
sI3762
I38
sI3763
I13
sI3764
I37
sI3765
I5
sI3766
I4
sI3767
I24
sI3768
I6
sI3769
I7
sI3770
I7
sI3771
I8
sI3772
I4
sI3773
I13
sI3774
I23
sI3775
I8
sI3776
I7
sI3777
I14
sI3778
I7
sI3779
I15
sI3780
I14
sI3781
I4
sI3782
I5
sI3783
I4
sI3784
I5
sI3785
I15
sI3786
I36
sI3787
I5
sI3788
I16
sI3789
I4
sI3790
I4
sI3791
I5
sI3792
I6
sI3793
I4
sI3794
I37
sI3795
I10
sI3796
I9
sI3797
I5
sI3798
I6
sI3799
I4
sI3800
I4
sI3801
I8
sI3802
I15
sI3803
I39
sI3804
I4
sI3805
I4
sI3806
I16
sI3807
I5
sI3808
I13
sI3809
I4
sI3810
I4
sI3811
I4
sI3812
I4
sI3813
I4
sI3814
I24
sI3815
I5
sI3816
I7
sI3817
I11
sI3818
I17
sI3819
I6
sI3820
I10
sI3821
I7
sI3822
I4
sI3823
I4
sI3824
I18
sI3825
I9
sI3826
I6
sI3827
I14
sI3828
I34
sI3829
I41
sI3830
I4
sI3831
I15
sI3832
I4
sI3833
I12
sI3834
I7
sI3835
I6
sI3836
I7
sI3837
I5
sI3838
I91
sI3839
I10
sI3840
I6
sI3841
I10
sI3842
I40
sI3843
I15
sI3844
I48
sI3845
I7
sI3846
I7
sI3847
I10
sI3848
I4
sI3849
I4
sI3850
I6
sI3851
I5
sI3852
I33
sI3853
I20
sI3854
I23
sI3855
I5
sI3856
I9
sI3857
I10
sI3858
I17
sI3859
I11
sI3860
I4
sI3861
I17
sI3862
I15
sI3863
I4
sI3864
I16
sI3865
I4
sI3866
I4
sI3867
I10
sI3868
I18
sI3869
I52
sI3870
I7
sI3871
I8
sI3872
I7
sI3873
I14
sI3874
I11
sI3875
I15
sI3876
I10
sI3877
I13
sI3878
I4
sI3879
I5
sI3880
I31
sI3881
I7
sI3882
I39
sI3883
I4
sI3884
I6
sI3885
I22
sI3886
I6
sI3887
I17
sI3888
I81
sI3889
I4
sI3890
I4
sI3891
I7
sI3892
I5
sI3893
I5
sI3894
I14
sI3895
I9
sI3896
I6
sI3897
I75
sI3898
I7
sI3899
I15
sI3900
I5
sI3901
I19
sI3902
I6
sI3903
I4
sI3904
I10
sI3905
I5
sI3906
I6
sI3907
I9
sI3908
I59
sI3909
I6
sI3910
I25
sI3911
I5
sI3912
I15
sI3913
I4
sI3914
I9
sI3915
I57
sI3916
I5
sI3917
I7
sI3918
I8
sI3919
I17
sI3920
I55
sI3921
I13
sI3922
I6
sI3923
I13
sI3924
I5
sI3925
I14
sI3926
I4
sI3927
I7
sI3928
I4
sI3929
I30
sI3930
I12
sI3931
I8
sI3932
I28
sI3933
I19
sI3934
I86
sI3935
I18
sI3936
I5
sI3937
I12
sI3938
I23
sI3939
I4
sI3940
I7
sI3941
I4
sI3942
I5
sI3943
I4
sI3944
I4
sI3945
I5
sI3946
I16
sI3947
I5
sI3948
I25
sI3949
I4
sI3950
I13
sI3951
I5
sI3952
I4
sI3953
I4
sI3954
I4
sI3955
I5
sI3956
I22
sI3957
I5
sI3958
I10
sI3959
I17
sI3960
I44
sI3961
I4
sI3962
I7
sI3963
I49
sI3964
I42
sI3965
I22
sI3966
I24
sI3967
I124
sI3968
I6
sI3969
I6
sI3970
I10
sI3971
I4
sI3972
I44
sI3973
I11
sI3974
I4
sI3975
I5
sI3976
I151
sI3977
I5
sI3978
I5
sI3979
I4
sI3980
I8
sI3981
I82
sI3982
I15
sI3983
I23
sI3984
I4
sI3985
I7
sI3986
I15
sI3987
I14
sI3988
I8
sI3989
I18
sI3990
I11
sI3991
I71
sI3992
I24
sI3993
I6
sI3994
I13
sI3995
I10
sI3996
I9
sI3997
I4
sI3998
I5
sI3999
I6
sI4000
I8
sI4001
I50
sI4002
I5
sI4003
I5
sI4004
I27
sI4005
I11
sI4006
I8
sI4007
I12
sI4008
I29
sI4009
I6
sI4010
I7
sI4011
I4
sI4012
I8
sI4013
I13
sI4014
I74
sI4015
I16
sI4016
I13
sI4017
I21
sI4018
I24
sI4019
I16
sI4020
I18
sI4021
I4
sI4022
I8
sI4023
I4
sI4024
I7
sI4025
I4
sI4026
I4
sI4027
I4
sI4028
I4
sI4029
I36
sI4030
I15
sI4031
I8
sI4032
I6
sI4033
I4
sI4034
I12
sI4035
I7
sI4036
I25
sI4037
I6
sI4038
I4
sI4039
I7
sI4040
I7
sI4041
I7
sI4042
I5
sI4043
I5
sI4044
I14
sI4045
I4
sI4046
I6
sI4047
I20
sI4048
I33
sI4049
I4
sI4050
I8
sI4051
I4
sI4052
I42
sI4053
I4
sI4054
I4
sI4055
I19
sI4056
I25
sI4057
I10
sI4058
I9
sI4059
I4
sI4060
I8
sI4061
I9
sI4062
I54
sI4063
I7
sI4064
I9
sI4065
I43
sI4066
I6
sI4067
I12
sI4068
I25
sI4069
I7
sI4070
I5
sI4071
I5
sI4072
I26
sI4073
I7
sI4074
I28
sI4075
I5
sI4076
I15
sI4077
I5
sI4078
I22
sI4079
I26
sI4080
I14
sI4081
I155
sI4082
I6
sI4083
I12
sI4084
I31
sI4085
I6
sI4086
I15
sI4087
I18
sI4088
I12
sI4089
I13
sI4090
I85
sI4091
I4
sI4092
I16
sI4093
I6
sI4094
I9
sI4095
I12
sI4096
I7
sI4097
I4
sI4098
I16
sI4099
I5
sI4100
I14
sI4101
I4
sI4102
I9
sI4103
I4
sI4104
I4
sI4105
I8
sI4106
I6
sI4107
I11
sI4108
I7
sI4109
I4
sI4110
I4
sI4111
I8
sI4112
I19
sI4113
I4
sI4114
I105
sI4115
I4
sI4116
I4
sI4117
I41
sI4118
I8
sI4119
I4
sI4120
I13
sI4121
I11
sI4122
I28
sI4123
I5
sI4124
I7
sI4125
I5
sI4126
I6
sI4127
I9
sI4128
I5
sI4129
I6
sI4130
I4
sI4131
I143
sI4132
I4
sI4133
I20
sI4134
I12
sI4135
I12
sI4136
I6
sI4137
I4
sI4138
I4
sI4139
I7
sI4140
I7
sI4141
I14
sI4142
I21
sI4143
I31
sI4144
I24
sI4145
I22
sI4146
I48
sI4147
I14
sI4148
I9
sI4149
I14
sI4150
I57
sI4151
I34
sI4152
I7
sI4153
I12
sI4154
I29
sI4155
I7
sI4156
I11
sI4157
I5
sI4158
I5
sI4159
I9
sI4160
I12
sI4161
I10
sI4162
I5
sI4163
I7
sI4164
I4
sI4165
I4
sI4166
I12
sI4167
I4
sI4168
I28
sI4169
I4
sI4170
I5
sI4171
I7
sI4172
I4
sI4173
I22
sI4174
I9
sI4175
I5
sI4176
I33
sI4177
I6
sI4178
I16
sI4179
I6
sI4180
I8
sI4181
I27
sI4182
I7
sI4183
I10
sI4184
I7
sI4185
I9
sI4186
I5
sI4187
I38
sI4188
I11
sI4189
I10
sI4190
I4
sI4191
I4
sI4192
I10
sI4193
I48
sI4194
I13
sI4195
I12
sI4196
I6
sI4197
I5
sI4198
I8
sI4199
I5
sI4200
I8
sI4201
I9
sI4202
I9
sI4203
I28
sI4204
I41
sI4205
I4
sI4206
I22
sI4207
I7
sI4208
I24
sI4209
I5
sI4210
I50
sI4211
I28
sI4212
I5
sI4213
I5
sI4214
I4
sI4215
I5
sI4216
I28
sI4217
I4
sI4218
I8
sI4219
I4
sI4220
I13
sI4221
I4
sI4222
I8
sI4223
I7
sI4224
I5
sI4225
I12
sI4226
I4
sI4227
I10
sI4228
I12
sI4229
I26
sI4230
I16
sI4231
I4
sI4232
I34
sI4233
I55
sI4234
I4
sI4235
I11
sI4236
I5
sI4237
I26
sI4238
I4
sI4239
I5
sI4240
I4
sI4241
I4
sI4242
I5
sI4243
I4
sI4244
I5
sI4245
I6
sI4246
I8
sI4247
I26
sI4248
I7
sI4249
I5
sI4250
I15
sI4251
I11
sI4252
I12
sI4253
I13
sI4254
I13
sI4255
I19
sI4256
I13
sI4257
I4
sI4258
I6
sI4259
I8
sI4260
I9
sI4261
I4
sI4262
I4
sI4263
I12
sI4264
I11
sI4265
I8
sI4266
I87
sI4267
I25
sI4268
I23
sI4269
I13
sI4270
I4
sI4271
I7
sI4272
I8
sI4273
I4
sI4274
I11
sI4275
I5
sI4276
I6
sI4277
I8
sI4278
I7
sI4279
I7
sI4280
I7
sI4281
I24
sI4282
I8
sI4283
I45
sI4284
I5
sI4285
I11
sI4286
I7
sI4287
I4
sI4288
I22
sI4289
I16
sI4290
I13
sI4291
I10
sI4292
I19
sI4293
I4
sI4294
I9
sI4295
I6
sI4296
I11
sI4297
I24
sI4298
I5
sI4299
I4
sI4300
I6
sI4301
I5
sI4302
I22
sI4303
I4
sI4304
I102
sI4305
I8
sI4306
I4
sI4307
I5
sI4308
I16
sI4309
I8
sI4310
I5
sI4311
I6
sI4312
I18
sI4313
I20
sI4314
I6
sI4315
I52
sI4316
I9
sI4317
I10
sI4318
I5
sI4319
I46
sI4320
I8
sI4321
I6
sI4322
I4
sI4323
I42
sI4324
I4
sI4325
I4
sI4326
I6
sI4327
I55
sI4328
I6
sI4329
I5
sI4330
I13
sI4331
I41
sI4332
I10
sI4333
I7
sI4334
I7
sI4335
I5
sI4336
I10
sI4337
I7
sI4338
I69
sI4339
I4
sI4340
I5
sI4341
I46
sI4342
I6
sI4343
I14
sI4344
I5
sI4345
I6
sI4346
I11
sI4347
I8
sI4348
I7
sI4349
I11
sI4350
I19
sI4351
I9
sI4352
I4
sI4353
I6
sI4354
I11
sI4355
I10
sI4356
I6
sI4357
I5
sI4358
I90
sI4359
I4
sI4360
I4
sI4361
I4
sI4362
I15
sI4363
I4
sI4364
I5
sI4365
I10
sI4366
I4
sI4367
I37
sI4368
I4
sI4369
I138
sI4370
I9
sI4371
I5
sI4372
I27
sI4373
I8
sI4374
I4
sI4375
I13
sI4376
I8
sI4377
I4
sI4378
I47
sI4379
I7
sI4380
I26
sI4381
I8
sI4382
I17
sI4383
I6
sI4384
I8
sI4385
I9
sI4386
I4
sI4387
I6
sI4388
I6
sI4389
I4
sI4390
I44
sI4391
I13
sI4392
I14
sI4393
I9
sI4394
I4
sI4395
I5
sI4396
I19
sI4397
I4
sI4398
I20
sI4399
I4
sI4400
I9
sI4401
I9
sI4402
I6
sI4403
I10
sI4404
I10
sI4405
I23
sI4406
I7
sI4407
I24
sI4408
I4
sI4409
I8
sI4410
I5
sI4411
I10
sI4412
I4
sI4413
I5
sI4414
I4
sI4415
I4
sI4416
I7
sI4417
I9
sI4418
I9
sI4419
I6
sI4420
I19
sI4421
I4
sI4422
I6
sI4423
I27
sI4424
I5
sI4425
I39
sI4426
I5
sI4427
I6
sI4428
I7
sI4429
I4
sI4430
I4
sI4431
I6
sI4432
I52
sI4433
I4
sI4434
I6
sI4435
I50
sI4436
I4
sI4437
I31
sI4438
I4
sI4439
I5
sI4440
I33
sI4441
I9
sI4442
I15
sI4443
I8
sI4444
I31
sI4445
I5
sI4446
I83
sI4447
I9
sI4448
I15
sI4449
I10
sI4450
I5
sI4451
I5
sI4452
I30
sI4453
I51
sI4454
I9
sI4455
I51
sI4456
I8
sI4457
I4
sI4458
I55
sI4459
I5
sI4460
I4
sI4461
I4
sI4462
I27
sI4463
I5
sI4464
I5
sI4465
I38
sI4466
I11
sI4467
I5
sI4468
I8
sI4469
I17
sI4470
I8
sI4471
I4
sI4472
I5
sI4473
I55
sI4474
I5
sI4475
I7
sI4476
I4
sI4477
I26
sI4478
I19
sI4479
I8
sI4480
I4
sI4481
I4
sI4482
I6
sI4483
I4
sI4484
I5
sI4485
I7
sI4486
I4
sI4487
I6
sI4488
I15
sI4489
I4
sI4490
I46
sI4491
I6
sI4492
I4
sI4493
I6
sI4494
I9
sI4495
I5
sI4496
I4
sI4497
I4
sI4498
I8
sI4499
I4
sI4500
I7
sI4501
I5
sI4502
I10
sI4503
I8
sI4504
I8
sI4505
I7
sI4506
I5
sI4507
I6
sI4508
I4
sI4509
I5
sI4510
I38
sI4511
I9
sI4512
I6
sI4513
I51
sI4514
I4
sI4515
I8
sI4516
I7
sI4517
I6
sI4518
I9
sI4519
I4
sI4520
I11
sI4521
I24
sI4522
I4
sI4523
I4
sI4524
I6
sI4525
I62
sI4526
I34
sI4527
I8
sI4528
I17
sI4529
I6
sI4530
I6
sI4531
I11
sI4532
I8
sI4533
I5
sI4534
I10
sI4535
I5
sI4536
I5
sI4537
I11
sI4538
I4
sI4539
I18
sI4540
I6
sI4541
I4
sI4542
I33
sI4543
I5
sI4544
I4
sI4545
I5
sI4546
I10
sI4547
I5
sI4548
I9
sI4549
I24
sI4550
I24
sI4551
I15
sI4552
I5
sI4553
I6
sI4554
I16
sI4555
I5
sI4556
I5
sI4557
I4
sI4558
I4
sI4559
I16
sI4560
I9
sI4561
I10
sI4562
I10
sI4563
I16
sI4564
I18
sI4565
I4
sI4566
I19
sI4567
I4
sI4568
I7
sI4569
I19
sI4570
I7
sI4571
I4
sI4572
I6
sI4573
I10
sI4574
I6
sI4575
I9
sI4576
I6
sI4577
I14
sI4578
I6
sI4579
I9
sI4580
I4
sI4581
I4
sI4582
I4
sI4583
I4
sI4584
I9
sI4585
I5
sI4586
I4
sI4587
I6
sI4588
I4
sI4589
I5
sI4590
I30
sI4591
I10
sI4592
I11
sI4593
I6
sI4594
I9
sI4595
I10
sI4596
I8
sI4597
I30
sI4598
I4
sI4599
I13
sI4600
I10
sI4601
I7
sI4602
I4
sI4603
I6
sI4604
I6
sI4605
I5
sI4606
I6
sI4607
I4
sI4608
I7
sI4609
I13
sI4610
I6
sI4611
I5
sI4612
I7
sI4613
I4
sI4614
I4
sI4615
I18
sI4616
I7
sI4617
I16
sI4618
I5
sI4619
I9
sI4620
I6
sI4621
I4
sI4622
I51
sI4623
I15
sI4624
I4
sI4625
I54
sI4626
I4
sI4627
I10
sI4628
I8
sI4629
I10
sI4630
I4
sI4631
I11
sI4632
I6
sI4633
I7
sI4634
I5
sI4635
I34
sI4636
I7
sI4637
I8
sI4638
I81
sI4639
I7
sI4640
I4
sI4641
I4
sI4642
I44
sI4643
I43
sI4644
I7
sI4645
I11
sI4646
I9
sI4647
I4
sI4648
I7
sI4649
I9
sI4650
I5
sI4651
I8
sI4652
I44
sI4653
I53
sI4654
I5
sI4655
I11
sI4656
I7
sI4657
I8
sI4658
I49
sI4659
I4
sI4660
I7
sI4661
I7
sI4662
I6
sI4663
I11
sI4664
I8
sI4665
I11
sI4666
I12
sI4667
I22
sI4668
I10
sI4669
I8
sI4670
I8
sI4671
I5
sI4672
I4
sI4673
I6
sI4674
I4
sI4675
I5
sI4676
I5
sI4677
I20
sI4678
I5
sI4679
I19
sI4680
I6
sI4681
I6
sI4682
I9
sI4683
I16
sI4684
I11
sI4685
I9
sI4686
I19
sI4687
I15
sI4688
I20
sI4689
I11
sI4690
I12
sI4691
I36
sI4692
I9
sI4693
I4
sI4694
I18
sI4695
I4
sI4696
I17
sI4697
I5
sI4698
I14
sI4699
I9
sI4700
I8
sI4701
I12
sI4702
I6
sI4703
I41
sI4704
I4
sI4705
I6
sI4706
I4
sI4707
I4
sI4708
I5
sI4709
I6
sI4710
I15
sI4711
I6
sI4712
I46
sI4713
I6
sI4714
I5
sI4715
I6
sI4716
I4
sI4717
I5
sI4718
I4
sI4719
I5
sI4720
I4
sI4721
I8
sI4722
I4
sI4723
I4
sI4724
I5
sI4725
I138
sI4726
I14
sI4727
I10
sI4728
I4
sI4729
I9
sI4730
I6
sI4731
I23
sI4732
I11
sI4733
I27
sI4734
I14
sI4735
I26
sI4736
I92
sI4737
I19
sI4738
I4
sI4739
I4
sI4740
I14
ssS'num_nnz'
p4752
I98159
sS'id2token'
p4753
(dp4754
sS'num_pos'
p4755
I176606
sb.