ccopy_reg
_reconstructor
p0
(cgensim.corpora.dictionary
Dictionary
p1
c__builtin__
object
p2
Ntp3
Rp4
(dp5
S'num_docs'
p6
I2400
sS'token2id'
p7
(dp8
V\u30bd\u30ea\u30e5\u30fc\u30b7\u30e7\u30f3
p9
I0
sV\u4e00\u8a00
p10
I1
sV\u6a21\u7d22
p11
I2
sV\u8a3c\u62e0
p12
I3286
sV\u30ed\u30a4\u30bf\u30fc\u901a\u4fe1
p13
I5
sV\u30a4\u30f3\u30c9\u30cd\u30b7\u30a2
p14
I6
sV\u51fa\u6765
p15
I7
sV\u30e2\u30c3\u30c8\u30fc
p16
I4969
sV\u30ce\u30ea
p17
I2483
sV\u514d\u75ab
p18
I11
sV\u76f4\u8fd1
p19
I56
sV\u9593\u8fd1
p20
I4495
sV\u660e\u78ba
p21
I13
sV\u5909\u66f4
p22
I3576
sV\u30df\u30cb
p23
I14
sV\u30e8\u30ac
p24
I15
sV\u8c4a\u304b
p25
I16
sV\u6599
p26
I17
sV\u62e0\u70b9
p27
I19
sV\u4f59\u88d5
p28
I20
sV\u30a4\u30bf\u30ea\u30a2
p29
I22
sV\u30a2\u30ec\u30f3\u30b8
p30
I4957
sV\u53b3\u9078
p31
I24
sV\u56fd\u9023
p32
I2716
sV\u897f\u65e5\u672c
p33
I26
sV\u30b9\u30e0\u30fc\u30ba
p34
I27
sVrpg
p35
I4515
sV\u9b54\u6cd5
p36
I28
sV\u306a\u3081\u3089\u304b
p37
I4601
sV\u672c\u5834
p38
I1631
sV\u30ec\u30ae\u30e5\u30e9\u30fc
p39
I3282
sV\u65e5\u672c\u4eba
p40
I30
sV\u6765\u65e5
p41
I2489
sV\u592a\u90ce
p42
I32
sV\u61b2
p43
I1632
sV\u73fe\u884c
p44
I34
sV\u30df\u30ea
p45
I35
sV\u4e8b\u52d9
p46
I36
sV\u985e
p47
I3289
sV\u598a\u5a20
p48
I38
sV\u30c7\u30b6\u30a4\u30ca\u30fc
p49
I39
sV\u7d14\u7c8b
p50
I1634
sV\u3053\u3060\u308f\u308a
p51
I4757
sV@
p52
I41
sV\uff18\u6708
p53
I42
sV\u9055\u548c\u611f
p54
I43
sV\u98df\u6599
p55
I4546
sV-\u300d
p56
I45
sV\u4fe1\u7528
p57
I46
sV\u53f3\u8155
p58
I48
sV\u9632\u885b
p59
I49
sV\u30e8\u30fc\u30b0\u30eb\u30c8
p60
I50
sV45
p61
I4673
sV\u6b63\u5e38
p62
I474
sV\u5c02\u7528
p63
I3186
sV\u5348\u5f8c
p64
I53
sV\u5927\u7d71\u9818
p65
I54
sV\u8a18\u8f09
p66
I4273
sV\u30a2\u30af\u30c6\u30a3\u30d6
p67
I12
sV\u30b9\u30c8\u30ec\u30fc\u30b8
p68
I3659
sV\u611b\u79f0
p69
I57
sV\u30c8\u30e9\u30a4
p70
I3861
sV\u30df\u30b9
p71
I58
sV\u8131\u51fa
p72
I3977
sV\u7f6a
p73
I60
sV\u30b4\u30fc\u30eb\u30c9
p74
I61
sV\u30ab\u30ec\u30f3\u30c0\u30fc
p75
I62
sV000
p76
I3364
sV\u5317\u7def
p77
I3292
sV\u6700\u9577
p78
I417
sV\u30af\u30aa\u30ea\u30c6\u30a3
p79
I66
sV\u30d0\u30f3\u30c7\u30f3\u30cf\u30fc\u30af
p80
I67
sV\u5f53\u6642
p81
I68
sV\u5bfe\u8ac7
p82
I4154
sV\u63a5\u8fd1
p83
I69
sV\u304a\u306b\u304e\u308a
p84
I70
sV\u7403\u5834
p85
I71
sV\u5e83\u544a
p86
I72
sV\u30ca\u30b7
p87
I1718
sV\u614b\u5ea6
p88
I76
sV\u81ea\u6bba
p89
I77
sV\u65e5\u672c\u4e00
p90
I78
sV\u4e21\u89aa
p91
I79
sV\u6b8b\u696d
p92
I80
sV\u89e3\u9664
p93
I81
sV\u5927\u6226
p94
I82
sV\uff15
p95
I83
sV\u7528\u9014
p96
I84
sV\u7b87\u6240
p97
I85
sV\u30d7\u30ea\u30f3
p98
I3826
sV\u679a
p99
I87
sV\u59d4\u54e1
p100
I88
sV\u5168\u529b
p101
I89
sV\u5b9f\u65bd
p102
I90
sV\u30b7\u30fc\u30ba\u30f3
p103
I92
sV\u3047
p104
I4157
sV\u307f\u306a\u3055\u3093
p105
I94
sV\u6d88\u9632
p106
I95
sV\u50be\u5411
p107
I96
sV\u6b69\u9053
p108
I97
sVpsvr
p109
I98
sV\u5f15\u3051
p110
I99
sV\u6210\u529f
p111
I100
sV\u4e8b\u524d
p112
I101
sV\u99c6\u4f7f
p113
I102
sV\u5f15\u304d
p114
I103
sV\u5fa9\u8208
p115
I104
sV\u30ad\u30e3\u30ea\u30a2
p116
I105
sV\u30b7\u30f3\u30dc\u30eb
p117
I106
sV\u767a\u96fb
p118
I107
sVnew
p119
I108
sVnet
p120
I109
sV\u4e21\u793e
p121
I1396
sV\u60c5\u71b1
p122
I111
sV\u6a4b
p123
I4159
sV\u4ef2\u826f\u3057
p124
I690
sV\u30b7\u30fc\u30c8
p125
I113
sV\u30b7\u30fc\u30c9
p126
I708
sV\u4e8c\u3064
p127
I115
sV\u30d5\u30fc\u30c9
p128
I116
sV\u5165\u529b
p129
I118
sV\u30c1\u30a7\u30fc\u30f3
p130
I119
sV\u5927\u5e45
p131
I4487
sV\u904b
p132
I120
sV\u4e57\u308a
p133
I4162
sV\u30e2\u30cb\u30bf\u30fc
p134
I122
sV\u30dc\u30ae\u30fc
p135
I123
sV\u4e16\u4ee3
p136
I2508
sV\u7279\u88fd
p137
I125
sV\u6751\u4e0a
p138
I4453
sV\u89e3\u6c7a
p139
I4124
sV100
p140
I126
sV\u30b3\u30fc\u30d2\u30fc
p141
I1649
sV\u98df\u5802
p142
I128
sV\u4e5f
p143
I129
sV\u30c0\u30a4\u30a8\u30c3\u30c8
p144
I130
sV\u3046\u3069\u3093
p145
I131
sV\u898b\u901a\u3057
p146
I132
sV\u7740\u7528
p147
I135
sV\u65b9\u3005
p148
I136
sV\u30c0\u30a6\u30f3\u30ed\u30fc\u30c9
p149
I137
sV\u4e2d\u8eab
p150
I138
sV\u4e16\u5e2f
p151
I139
sV\u9078\u5b9a
p152
I140
sV\u21d2
p153
I4165
sV\u5b87\u5b99
p154
I3917
sV\u521d\u4ee3
p155
I143
sV\u4ed8\u5c5e
p156
I3034
sV\u4e86\u627f
p157
I4562
sV\u5927\u3055\u3058
p158
I146
sV\u771f\u5263
p159
I147
sV\u5f15\u9000
p160
I148
sV\u30ce\u30fc\u30d9\u30eb
p161
I149
sV\u30ac\u30fc\u30eb
p162
I150
sV\u63a8\u79fb
p163
I151
sV\u300c#
p164
I152
sV\u9580
p165
I3311
sV\u4e0a
p166
I154
sV\u6211\u6162
p167
I3964
sV\u6b21\u7b2c
p168
I155
sV\u5165\u56e3
p169
I156
sV\u901a\u4fe1
p170
I2517
sV\u5e95
p171
I159
sV\uff14
p172
I160
sV\u30ab\u30d5\u30a7
p173
I161
sV\u30c8\u30a4\u30ec
p174
I162
sV\u725b
p175
I4169
sV\u5bfe\u7167
p176
I164
sV\u535a
p177
I3136
sV\u7981\u6b62
p178
I166
sV\u3076\u3069\u3046
p179
I167
sV\u82e5\u624b
p180
I168
sV\u4eba\u4e8b
p181
I169
sV\u30d0\u30fc
p182
I4758
sV\u540c\u6c0f
p183
I171
sV\u4e16\u306e\u4e2d
p184
I172
sV\u5f80\u5fa9
p185
I173
sV\u30b9\u30a4\u30f3\u30b0
p186
I174
sV\u30b9\u30dd\u30c3\u30c8
p187
I175
sV\u9023\u7d9a
p188
I176
sV\u30b9\u30c8\u30ec\u30b9
p189
I177
sV\u30c8\u30e9\u30f3\u30d7
p190
I178
sVmusic
p191
I179
sV\u8b66\u5099
p192
I1873
sV\u6b63\u5f53
p193
I181
sV\u6210\u5206
p194
I182
sV\u59bb
p195
I183
sV\u30df\u30b5\u30a4\u30eb
p196
I184
sV\u9ec4\u8272
p197
I185
sV\u9b3c
p198
I186
sV\u30d6\u30ed\u30b0
p199
I187
sV\u770c\u8b66
p200
I188
sV\u6c7a\u65ad
p201
I189
sV\u906d\u9047
p202
I190
sV\u7dd1\u8272
p203
I191
sV\u30b5\u30c3\u30ab\u30fc
p204
I192
sV\u53cb\u3060\u3061
p205
I1660
sV\u6d88\u5316
p206
I870
sV\u6df1\u523b
p207
I3976
sV\u308f\u308c\u308f\u308c
p208
I194
sV99
p209
I195
sV98
p210
I546
sV\u30a2\u30e1\u30ea\u30ab
p211
I197
sV\u30de\u30cb\u30e5\u30a2\u30eb
p212
I198
sV\u306d\u3053
p213
I199
sV\u30d5\u30ed\u30a2
p214
I200
sV\u62e0\u51fa
p215
I201
sV90
p216
I1240
sV93
p217
I203
sV92
p218
I204
sV95
p219
I205
sV\u30c8\u30e9\u30f3\u30b9
p220
I206
sV\u30b3\u30fc\u30c9
p221
I1663
sV\u90e1
p222
I51
sVmf
p223
I210
sV\u6b63\u5f0f
p224
I211
sV\u4e8b\u9805
p225
I1664
sV\u4ee5\u4e0b
p226
I213
sVrights
p227
I214
sVmm
p228
I215
sVml
p229
I216
sV\u5f79
p230
I1678
sV\u4e0b\u90e8
p231
I4222
sV\u9577\u8c37\u5ddd
p232
I2112
sV\u4e3b\u8981
p233
I1327
sV\u30b4\u30eb\u30d5
p234
I221
sV\u30e1\u30fc\u30eb
p235
I222
sV\u53f7
p236
I223
sV\u767a
p237
I224
sV\u671d\u6669
p238
I225
sV\u6fc3\u5ea6
p239
I953
sV\u305d\u308c\u306a\u308a
p240
I227
sV\u96c6\u7d50
p241
I228
sV\u7a2e
p242
I4865
sV\u82f1\u56fd
p243
I3457
sV\u30a2\u30fc\u30c8
p244
I229
sV\u304c\u3061
p245
I230
sVin
p246
I231
sV\u540d\u7269
p247
I232
sV550
p248
I233
sV\u570f
p249
I234
sV\u5165\u9662
p250
I2797
sV\u63a8\u5968
p251
I237
sV\u98a8\u666f
p252
I239
sV\u672a\u6765
p253
I241
sV\u30d0\u30d6\u30eb
p254
I242
sV\u30d3\u30c3\u30af\u30ea
p255
I3640
sV\u968e\u6bb5
p256
I243
sV\u5bfe\u51e6
p257
I244
sV\u51a0
p258
I245
sV\u30ab\u30e1
p259
I246
sV\u30c1\u30e7\u30a4\u30b9
p260
I248
sV\u5909\u5316\u7403
p261
I249
sV\u540d\u524d
p262
I250
sV\u5c31\u4efb
p263
I1504
sV\u524a\u6e1b
p264
I2528
sV\u53f0\u6e7e
p265
I253
sV\u914d\u5408
p266
I254
sV\u30a4\u30e9\u30b9\u30c8
p267
I255
sV\u7559\u5b66
p268
I256
sV\u4f53\u578b
p269
I257
sV\u53f3\u80a9
p270
I259
sV\u8ab2
p271
I260
sV\u30d7\u30ed\u30bb\u30b9
p272
I261
sV\u30b6
p273
I263
sV\u30c1\u30e3\u30ec\u30f3\u30b8
p274
I264
sV\u4ea4\u901a
p275
I265
sV\u7528\u54c1
p276
I266
sV\u96c7\u7528
p277
I269
sV\u30b4\u30df
p278
I270
sV\u5c45\u4f4f
p279
I141
sV\u67c4
p280
I273
sV\u30a6\u30a9\u30f3
p281
I275
sV\u30d2\u30fc\u30ed\u30fc
p282
I4226
sV\u9053\u5177
p283
I2532
sV\u907a\u4f1d\u5b50
p284
I277
sV\u4eca
p285
I278
sV\u904e\u5ea6
p286
I281
sV\u30d7\u30ec\u30df\u30a2\u30e0
p287
I282
sV\u30b9\u30fc\u30d7
p288
I284
sV\u5e55
p289
I285
sV\u8def\u7dda
p290
I286
sV\u5730\u4e0b\u9244
p291
I287
sV\u30a6\u30a7\u30d6\u30b5\u30a4\u30c8
p292
I3333
sV\u8a18\u8005
p293
I289
sV\u4eca\u5b63
p294
I2703
sV\u4e0d\u601d\u8b70
p295
I4852
sV\u8cde
p296
I2831
sV\u30cf\u30ef\u30a4
p297
I291
sV\u7d50\u6210
p298
I292
sV\u30a2\u30c3\u30d7
p299
I4189
sV\u610f\u898b
p300
I293
sV\u738b\u8005
p301
I294
sV\u78ba\u304b
p302
I295
sV\u5927\u9707\u707d
p303
I296
sV\u7dca\u5f35
p304
I297
sV\u30dc\u30fc
p305
I4414
sV\u676f
p306
I299
sV\u524d\u534a
p307
I300
sV\u6709\u5229
p308
I301
sV\u6700\u60aa
p309
I3336
sV\u5c0f\u3055\u3058
p310
I303
sV\u901a\u5e38
p311
I304
sV\u6c60\u888b
p312
I305
sV\u5317\u897f
p313
I306
sV\u52a0\u6e1b
p314
I307
sV\u9023\u7d50
p315
I860
sV\u8a18\u61b6
p316
I309
sV\u8cac\u4efb
p317
I310
sV\u610f\u5730
p318
I4895
sV\u5149\u5b66
p319
I311
sV\u4e88\u5b9a
p320
I312
sV\u3042\u305f\u308a
p321
I314
sV\u9ebb
p322
I315
sV\u7279\u8a2d
p323
I316
sV\u5efa\u7269
p324
I317
sV\u5317\u6d77\u9053
p325
I318
sV\u5358\u4e00
p326
I319
sV\u898b\u305f\u76ee
p327
I2539
sV\u4e88\u7b97
p328
I321
sV\u4e3b\u5a66
p329
I2872
sV\u5802
p330
I4190
sV\u4ed8\u304d\u5408\u3044
p331
I324
sV\u4e2d\u56fd\u4eba
p332
I325
sVjapan
p333
I326
sV\u3044\u304b\u304c
p334
I327
sV\u30ae\u30e3\u30c3\u30d7
p335
I4993
sV\u76f4\u5f84
p336
I2542
sV\u30c6\u30ed
p337
I4578
sV\u4ee3\u76ee
p338
I4191
sV\u305f\u307e
p339
I330
sV\u96a3
p340
I3207
sV\u7a81\u5165
p341
I333
sV\u30ca\u30a4\u30c8
p342
I334
sV\u958b\u5e55
p343
I4080
sV\u7fa9
p344
I2216
sV\u78ba\u7387
p345
I338
sV\u305f\u3073
p346
I339
sV,
p347
I340
sV\u30a4\u30f3\u30b9\u30c8\u30fc\u30eb
p348
I2543
sV\u767a\u9175
p349
I2100
sV\u5370\u8c61
p350
I343
sV\u6c34
p351
I344
sV\u50b7
p352
I345
sV400
p353
I346
sV\u305f\u3066
p354
I348
sV\u5f31\u706b
p355
I349
sV\u753a
p356
I350
sV\u8a98\u5c0e
p357
I4635
sV\u30e2\u30c1\u30fc\u30d5
p358
I1688
sV\u305f\u3061
p359
I352
sV\u305f\u3060
p360
I353
sV\u6240
p361
I354
sV\u65c5
p362
I355
sV\u5fdc\u52df
p363
I356
sV\u90fd\u5e02
p364
I357
sV\u91cd
p365
I358
sV\u516c\u6f14
p366
I359
sV\u3053\u306e\u9593
p367
I361
sV\u30b9\u30c6\u30fc\u30bf\u30b9
p368
I362
sV\u4e3b\u6f14
p369
I2384
sV\u30e9\u30d6\u30e9\u30d6
p370
I363
sV\u8a8d\u8a3c
p371
I364
sVone
p372
I1693
sVmvno
p373
I365
sV\u685c
p374
I366
sV\u6c7a\u8b70
p375
I4615
sV\u93e1
p376
I367
sV\u56e3
p377
I368
sV\u9162
p378
I369
sV\u65e5\u7a0b
p379
I370
sV\u9d8f\u8089
p380
I371
sV\u30d5\u30a9\u30fc\u30af
p381
I1695
sV\u56de\u6570
p382
I373
sV\u691c\u8a3c
p383
I374
sV\u5f3e\u9053
p384
I375
sV\u8cbf\u6613
p385
I376
sVl
p386
I377
sV\u65e5\u9803
p387
I378
sV\u3044\u304f\u3064
p388
I3898
sV\u5207\u7b26
p389
I381
sV\u79fb\u6c11
p390
I4802
sV\u8010\u4e45
p391
I383
sV\u9678
p392
I384
sV\u30a4\u30b9\u30e9\u30e0\u6559
p393
I385
sV\u30ec\u30d9\u30eb
p394
I387
sV\u6280
p395
I313
sV\u68a8
p396
I4328
sV\u30d1\u30b9
p397
I390
sV\u5947\u5999
p398
I393
sV\u30b8\u30e3\u30fc\u30ca\u30ea\u30b9\u30c8
p399
I3452
sV\u5bc6\u7740
p400
I395
sV\u8aac\u5f97
p401
I396
sV\u5f01\u5f53
p402
I397
sV\u30c7\u30d3\u30e5\u30fc
p403
I4780
sV\u30f5\u6708
p404
I398
sV\u30a2\u30d7\u30ed\u30fc\u30c1
p405
I3556
sV\u524d\u9032
p406
I3997
sV\u6253
p407
I3855
sV\u65b0\u578b
p408
I402
sV\u52a0
p409
I2438
sV\u512a\u96c5
p410
I3287
sV\u9999\u6e2f
p411
I406
sV\u62ab\u9732
p412
I2553
sV\u30bf\u30fc\u30dc
p413
I1701
sV\u7121\u4e8b
p414
I408
sV\u30a6\u30de
p415
I1002
sV\u8ab0
p416
I411
sV\u30a8\u30c3\u30c1
p417
I412
sV\u30e6\u30cb\u30c3\u30c8
p418
I2556
sV\u6025\u5897
p419
I414
sV\u3072\u3068
p420
I415
sV\u30ef\u30f3\u30b3
p421
I3359
sV\u7c3f
p422
I416
sV\u30ea\u30fc\u30b0
p423
I2557
sV\u4f59\u8a08
p424
I419
sV\u30d1\u30f3
p425
I420
sV\u30ef\u30a4\u30f3
p426
I3360
sV\u5b9f\u7e3e
p427
I2953
sV\u662d\u548c
p428
I423
sV\u8d77\u696d
p429
I424
sV\u305f\u3093
p430
I425
sV\u30d1\u30fc
p431
I426
sV\u51e6\u7f6e
p432
I4364
sV\u5909\u5316
p433
I427
sV\u5168\u90e8
p434
I429
sV\u79d2
p435
I430
sV\u30eb\u30fc\u30e0
p436
I431
sV\u4e0d\u502b
p437
I432
sV\u606f\u5b50
p438
I3372
sV\u7c21\u5358
p439
I433
sV\u30de\u30a6\u30f3\u30c9
p440
I434
sV\u304a\u6d12\u843d
p441
I435
sV\u30d1\u30ea
p442
I436
sV\u958b\u653e
p443
I438
sV\u30eb\u30fc\u30eb
p444
I439
sV\u30d1\u30d1
p445
I440
sV\u9663
p446
I442
sV\u5bb9\u91cf
p447
I2203
sV\u4ee3\u7406
p448
I4271
sV\u5f69
p449
I444
sV\u5fb9\u5e95
p450
I445
sV\u30b8\u30e3\u30d1\u30f3
p451
I4210
sV\u6700\u77ed
p452
I447
sV\u88ab\u5bb3
p453
I448
sV\u4e73
p454
I449
sV\u6559\u4f1a
p455
I1831
sV\u7d4c\u9a13
p456
I452
sV\u7d99\u627f
p457
I453
sV\u53cb\u9054
p458
I454
sV\u6709\u7121
p459
I455
sV\u76f8
p460
I456
sV\u30eb\u30fc\u30c8
p461
I457
sV\u30da\u30f3
p462
I458
sV\u9752\u5e74
p463
I459
sV\u5b8c\u74a7
p464
I460
sV125
p465
I4386
sV\u6b7b\u53bb
p466
I463
sV\u30d4\u30c3\u30af\u30a2\u30c3\u30d7
p467
I1708
sV\u738b
p468
I465
sV\u5909\u52d5
p469
I466
sV\u9759\u304b
p470
I2563
sV\u5730\u57df
p471
I4716
sV\u30db\u30f3\u30c8
p472
I1709
sV\u76ae\u819a
p473
I470
sV\u7a0e\u8fbc
p474
I471
sV\u7d14
p475
I472
sV\u9b45\u529b
p476
I473
sV\u30b3\u30f3\u30d3
p477
I3341
sV\u6b63\u7d71
p478
I476
sV\u6700\u4e2d
p479
I4213
sV\u5bb6\u96fb
p480
I4356
sV170
p481
I478
sV\u5275\u8a2d
p482
I1712
sV\u30b5\u30dd\u30fc\u30c8
p483
I481
sV\u4e0b\u7740
p484
I482
sV\u7cd6
p485
I4648
sV\u821e\u53f0
p486
I483
sV\u6765\u9031
p487
I484
sV\u597d\u611f
p488
I485
sV\u767a\u75c7
p489
I486
sV1500
p490
I4216
sV\u7121\u4f11
p491
I488
sV\u5f8c\u6094
p492
I489
sV\u3072\u3068\u308a
p493
I490
sV\u7531\u6765
p494
I491
sV\u5148\u7aef
p495
I492
sV\u5236
p496
I493
sV\u30c9\u30a4\u30c4
p497
I494
sV\u30a2\u30eb\u30df
p498
I2490
sV\u500b
p499
I496
sV\u6c11\u65cf
p500
I2996
sV\u30d5\u30eb\u30fc\u30c4
p501
I498
sV\u30c8\u30c3\u30d4\u30f3\u30b0
p502
I499
sV\u30e1\u30e2\u30ea\u30fc
p503
I500
sV\u75db
p504
I4561
sV\u53cc\u5b50
p505
I1716
sV\u8cc7\u91d1
p506
I502
sV\u5358\u4f4d
p507
I503
sV\u63d0\u643a
p508
I504
sV\u696d\u754c
p509
I505
sV\u53cb
p510
I506
sV\u5b50
p511
I508
sV\u30bd\u30fc\u30bb\u30fc\u30b8
p512
I2863
sV\u6c7a\u610f
p513
I509
sV\u30e1\u30c3\u30b7
p514
I510
sV\u932f\u899a
p515
I511
sV\u30d5\u30a1\u30df\u30ea\u30fc
p516
I512
sV\u30aa\u30d5\u30a3\u30b7\u30e3\u30eb\u30b5\u30a4\u30c8
p517
I513
sV\u6bdb
p518
I514
sV\u30a2\u30f3\u30b1\u30fc\u30c8
p519
I515
sV\u610f\u6b32
p520
I516
sV\u901f\u5ea6
p521
I4873
sV\u63a8\u5b9a
p522
I517
sV\u308f\u308a
p523
I519
sV\u7c73\u56fd
p524
I520
sV\u5a66
p525
I521
sV\u82e5\u8005
p526
I522
sV\u5b89\u7530
p527
I523
sV\u52aa\u529b
p528
I2176
sV\u62cd\u624b
p529
I526
sV\u904b\u884c
p530
I527
sV\u30bb\u30fc\u30eb
p531
I4728
sV\u5805\u8abf
p532
I529
sV\u30d0\u30a4\u30a8\u30eb\u30f3
p533
I530
sV\u5bcc\u58eb\u901a
p534
I531
sV\u9632\u6b62
p535
I532
sVk
p536
I534
sV\u30b9\u30b4\u30a4
p537
I535
sV\u30a2\u30eb\u30d5\u30a1\u30d9\u30c3\u30c8
p538
I538
sV\u30dd\u30b9\u30c8
p539
I540
sV\u72b6\u614b
p540
I541
sV\u4e09
p541
I543
sV\u4e00\u898b
p542
I544
sV\u500d
p543
I545
sV\u968e
p544
I547
sV\uff13
p545
I497
sV\u30db\u30eb\u30e2\u30f3
p546
I550
sV\u88fd\u9020
p547
I551
sV\u5199\u771f
p548
I552
sV\u30d6\u30fc\u30e0
p549
I553
sV\u53d6\u308a\u7d44\u307f
p550
I3628
sV\u610f\u6c17\u8fbc\u307f
p551
I3878
sV\u30ad\u30c3\u30af
p552
I555
sV\u7279\u6b8a
p553
I556
sV\u304b\u307c\u3061\u3083
p554
I557
sV\u5927
p555
I558
sV\u30ef\u30a4\u30c9
p556
I3385
sV\u738b\u624b
p557
I559
sV\u501f\u91d1
p558
I2534
sV\u6210\u719f
p559
I561
sV\u5177\u5408
p560
I562
sV\u5e02\u5834
p561
I563
sV\u30c1\u30e3\u30f3\u30cd\u30eb
p562
I564
sV\u5f62\u6210
p563
I566
sV\u72b6
p564
I567
sV\u4eba\u6c17
p565
I568
sV\u4eba\u6c11
p566
I569
sV\u308f\u3051
p567
I570
sV\u4e16\u7d00
p568
I571
sV\u30ed\u30fc\u30f3
p569
I572
sV\u69d8\u3005
p570
I4925
sV\u60a9\u307f
p571
I575
sV\u30ad\u30c3\u30c8
p572
I576
sV\u65e8\u5473
p573
I577
sV\u934b
p574
I578
sV\u30c6\u30e9\u30b9
p575
I579
sV\u91cc
p576
I580
sV\u5206\u3051
p577
I2283
sV\u30b3\u30e9\u30dc
p578
I582
sV\u7a4d\u6975
p579
I583
sV\u65e9\u3081
p580
I584
sV\u5c55
p581
I586
sV\u30b5\u30f3\u30c9\u30a4\u30c3\u30c1
p582
I588
sV\u3072\u3068\u3064
p583
I591
sV\u5f53\u65e5
p584
I592
sV\u30e1\u30ad\u30b7\u30b3
p585
I593
sV\u30a2\u30a4\u30c7\u30a2
p586
I594
sV\u4e0a\u7a7a
p587
I595
sV\u7af6\u4e89
p588
I596
sV\u83d3\u5b50
p589
I2424
sVm
p590
I598
sV\u30d9\u30c3\u30c9
p591
I4455
sV\u4e0d\u826f
p592
I3637
sV\u60c5\u52e2
p593
I600
sV\u8a71
p594
I601
sV\u5e03\u56e3
p595
I3267
sV\u30b3\u30e9\u30e0
p596
I603
sV\u5177
p597
I606
sV\u30cf\u30fc\u30c8
p598
I607
sV\u30cf\u30fc\u30c9
p599
I608
sV\u4f7f\u3044
p600
I609
sV\u3051\u304c
p601
I610
sV\u5b9f\u611f
p602
I611
sV\u5473\u899a
p603
I612
sV\u7e01
p604
I4917
sV\u8003\u3048
p605
I614
sV\u7686\u3055\u3093
p606
I615
sV\u30db\u30a4\u30fc\u30eb
p607
I616
sV\u30b9\u30de\u30db
p608
I617
sV\u30b5\u30d6
p609
I618
sV\u4f53\u5236
p610
I619
sV\u5165\u53e3
p611
I620
sV\u30af\u30c3\u30ad\u30fc
p612
I2585
sV\u8eab\u4f53
p613
I622
sV\u8fc5\u901f
p614
I623
sV\u71b1\u72c2
p615
I624
sV\u65e5\u672c\u8a9e
p616
I625
sV\u8ffd\u52a0
p617
I626
sV\u56fd\u7acb
p618
I4257
sV\u73fe\u8c61
p619
I627
sV\u7533\u3057\u8a33
p620
I628
sV\u904b\u8f38
p621
I629
sV\u4e7e\u71e5
p622
I630
sV\u8d70\u884c
p623
I631
sV\u30c8\u30e9\u30d6\u30eb
p624
I632
sV\u529f\u7e3e
p625
I633
sV\u7f8e\u5473
p626
I1739
sV\u30db\u30fc\u30e0
p627
I635
sV\u5ea7
p628
I636
sV\u8a66\u7b97
p629
I637
sV\u3084\u308a\u65b9
p630
I638
sV\u72ec\u81ea
p631
I641
sV\u82af
p632
I642
sV\u30db\u30fc\u30eb
p633
I643
sV\u5f0f\u5178
p634
I4119
sV\u6bb5
p635
I646
sV\u6295\u624b
p636
I648
sV\u30b7\u30c6\u30a3
p637
I3400
sVtechinsightjapan
p638
I650
sV\u30ab\u30e1\u30e9\u30de\u30f3
p639
I651
sV\u533a
p640
I652
sV\u7fbd
p641
I653
sV\u30b3\u30f3\u30c6\u30b9\u30c8
p642
I654
sV\u30de\u30f3\u30b7\u30e7\u30f3
p643
I655
sV\u99c5\u524d
p644
I656
sV\u30a2\u30b7\u30b9\u30bf\u30f3\u30c8
p645
I3845
sVdl
p646
I658
sV\u6c96\u7e04
p647
I659
sV\u611f\u899a
p648
I4502
sVdf
p649
I661
sV\u6848
p650
I662
sVde
p651
I663
sV\u79d8\u5bc6
p652
I664
sV\u591a\u3081
p653
I665
sV\u6392\u9664
p654
I668
sV\u30a2\u30d4\u30fc\u30eb
p655
I669
sVamazon
p656
I670
sV\u89e3\u6d88
p657
I4242
sV\u5b9f\u614b
p658
I672
sV\u6628\u5e74
p659
I2979
sV\u6df7\u4e71
p660
I674
sV\u9ce5
p661
I1748
sV\u5065\u5eb7
p662
I677
sV\u901a\u7b97
p663
I678
sV\u4fdd
p664
I679
sV\u902e\u6355
p665
I680
sV\u7406\u5ff5
p666
I2592
sV\u7406\u60f3
p667
I875
sV\u5264
p668
I684
sV\u30cf\u30f3\u30c9
p669
I686
sV\u83ca\u6c60
p670
I687
sV\u30d0\u30ab
p671
I4809
sV\u78ba\u7acb
p672
I1751
sV\u7d50\u679c
p673
I691
sV\u30ea\u30ba\u30e0
p674
I692
sV\u30b9\u30d4\u30fc\u30c9
p675
I3771
sV\u90fd\u5fc3
p676
I694
sV\u6307\u793a
p677
I3295
sV\u9078
p678
I696
sV\u7cfb
p679
I4171
sV\u90e8\u54c1
p680
I698
sV\u30c7\u30d0\u30a4\u30b9
p681
I1014
sV\u5996\u602a
p682
I4245
sV\u5148
p683
I4547
sV\u30dd\u30c6\u30f3\u30b7\u30e3\u30eb
p684
I701
sV\u52c7\u6c17
p685
I702
sVplaystation
p686
I703
sV\u30c0\u30f3\u30b9
p687
I4095
sV\u591a\u304f
p688
I705
sV\u6bba\u4eba
p689
I1452
sV\u4e07
p690
I707
sV\u76ee\u7389
p691
I114
sV\u6c7a\u5b9a
p692
I4909
sV\u30e9\u30f3
p693
I709
sV\u98f2\u98df
p694
I710
sV\u62bd\u9078
p695
I711
sV\u8eca\u4f53
p696
I712
sV\u77e5\u80fd
p697
I713
sV\u5b66\u6821
p698
I170
sV\u8eab\u8fd1
p699
I715
sV\u6606\u5e03
p700
I716
sV\u30c1\u30c3\u30d7
p701
I717
sV\u6577\u5730
p702
I718
sV\u63b2\u8f09
p703
I719
sV\u7523\u5730
p704
I720
sV\u30aa\u30fc\u30ca\u30fc
p705
I721
sV\u4e9c
p706
I722
sV\u8ca1\u653f
p707
I723
sV\u4f53\u529b
p708
I724
sV\u67d4\u8edf
p709
I725
sV\u9023
p710
I726
sV01
p711
I727
sV06
p712
I728
sV07
p713
I729
sV04
p714
I730
sV05
p715
I731
sV\u30c1\u30e3\u30fc\u30b8
p716
I732
sV\u98a8
p717
I733
sV08
p718
I734
sV\u53cd\u8ee2
p719
I735
sV\u5929\u4e95
p720
I736
sV\u97f3
p721
I1237
sV\u4e88\u7d04
p722
I4290
sV\u30d7\u30ed\u30b0\u30e9\u30e0
p723
I740
sV\u9577\u671f
p724
I741
sV\u5c3b
p725
I742
sV365
p726
I743
sV\u7bc4\u56f2
p727
I1258
sV\u30c6\u30b9\u30c8
p728
I2205
sV\u5049\u5927
p729
I746
sV\u5302\u3044
p730
I747
sV\u5e79\u90e8
p731
I748
sV\u601d\u60d1
p732
I749
sV\u30a2\u30af\u30bb\u30b5\u30ea\u30fc
p733
I750
sV\u611f\u3058
p734
I751
sV\u5922\u4e2d
p735
I752
sV\u683c\u597d
p736
I754
sV\u8105\u5a01
p737
I755
sV\u3044\u305a\u308c
p738
I756
sVwi
p739
I757
sV\u6d41\u884c
p740
I2603
sV\uff12\u3064
p741
I758
sV\u30dd\u30fc\u30ba
p742
I1761
sV\u30b5\u30fc\u30d0\u30fc
p743
I760
sV\u59cb\u307e\u308a
p744
I761
sV\u6c17\u7b52
p745
I762
sV\u8001\u8217
p746
I763
sV\u5f7c\u6c0f
p747
I1762
sVnews
p748
I765
sV\u9e7f\u5150\u5cf6
p749
I3711
sV\u696d\u52d9
p750
I768
sV\u81ea\u4fe1
p751
I861
sV\u6a5f
p752
I770
sV\u30dd\u30b1\u30c3\u30c8
p753
I771
sV\u53c2\u6226
p754
I772
sV\u30b3\u30b7\u30e7\u30a6
p755
I773
sV\u4e0d\u53ef\u80fd
p756
I774
sV\u9069\u7528
p757
I775
sV\u5371\u967a
p758
I3932
sV\u90fd
p759
I1764
sV\u306a\u3089\u3067\u306f
p760
I778
sV\u30a8\u30cd\u30eb\u30ae\u30fc
p761
I779
sV\u30b0\u30e9\u30a6\u30f3\u30c9
p762
I780
sV\u4e0b\u624b
p763
I3415
sV\u6bd2
p764
I825
sV\u7cbe\u5bc6
p765
I1766
sV\u8ff7\u60d1
p766
I784
sV\u65b9\u5411
p767
I785
sVcom
p768
I787
sV\u540c\u69d8
p769
I789
sV\u6539\u9769
p770
I790
sV\u5229\u70b9
p771
I4259
sV\u3064\u3082\u308a
p772
I791
sV\u3042\u3044\u3055\u3064
p773
I3600
sV\u767e\u5408\u5b50
p774
I792
sV\u5931\u6557
p775
I793
sV\u7e2e\u5c0f
p776
I794
sV\u7d4c\u7def
p777
I795
sV\u30bd\u30d5\u30c8\u30a6\u30a7\u30a2
p778
I738
sV\u62bd\u51fa
p779
I797
sV\u30d1\u30fc\u30af
p780
I4839
sV\u53d6\u5f15
p781
I798
sV\u6797
p782
I271
sV\u30a8\u30ea\u30a2
p783
I800
sV\u771f\u3093\u4e2d
p784
I1772
sV250
p785
I802
sV\u6700\u901f
p786
I804
sV\u672c\u62e0\u5730
p787
I805
sV\u30db\u30f3
p788
I806
sV\u90e8\u968a
p789
I807
sV\u8fb2\u5bb6
p790
I808
sV\u6d3b\u7528
p791
I2611
sV\u304a\u8179
p792
I809
sV\u5b9a\u756a
p793
I810
sV\u4e2d\u6b62
p794
I811
sV\u534a\u5e74
p795
I812
sV\u9928
p796
I813
sV\u672c
p797
I814
sV\u516c\u8868
p798
I815
sVcc
p799
I4505
sV\u6587
p800
I4054
sV\u95b2\u89a7
p801
I817
sV\u90fd\u5e81
p802
I818
sV104
p803
I819
sV)\u3001
p804
I820
sV\u90e8\u9580
p805
I821
sV)\u3002
p806
I822
sV\u56de\u6226
p807
I823
sV\u88dc\u52a9
p808
I824
sV\u8c46
p809
I826
sV\u7814\u7a76
p810
I827
sV\u4e16\u754c
p811
I1775
sV\u4f53\u80b2\u9928
p812
I829
sV\u30bd\u30cb\u30fc
p813
I830
sV\u65b0\u305f
p814
I831
sV\u5371\u6a5f
p815
I832
sV\u79d8\u8a23
p816
I3337
sV\u30ea\u30cb\u30e5\u30fc\u30a2\u30eb
p817
I833
sV\u30a4\u30b1\u30e1\u30f3
p818
I834
sV\u307c\u304f
p819
I835
sV\u5168\u9762
p820
I836
sV\u6c17\u5408
p821
I1777
sV160
p822
I838
sV\u4f5c
p823
I839
sV\u53f2\u4e0a
p824
I840
sV\u706b\u66dc
p825
I841
sV\u54e1
p826
I842
sV\u30d8\u30eb\u30b7\u30fc
p827
I843
sV\u554f\u984c
p828
I844
sV\u963b\u6b62
p829
I4272
sV\u9650\u5b9a
p830
I846
sV\u901a\u79f0
p831
I847
sV\u6d77\u8ecd
p832
I848
sV\u6700\u9069
p833
I849
sV\u30da\u30c3\u30c8
p834
I850
sV\u83ef
p835
I851
sVn
p836
I852
sV\u8840\u6db2
p837
I853
sV\u6d69
p838
I2619
sV\u91d1\u6301\u3061
p839
I855
sV\u3069\u308c
p840
I856
sV\u30d7\u30ea\u30f3\u30c8
p841
I857
sV\u5f7c
p842
I858
sV\u79fb\u7c4d
p843
I859
sV\u4e0a\u304c\u308a
p844
I2497
sV\u7206\u7b11
p845
I153
sV\u652f\u914d
p846
I863
sV\u4ee3\u8868
p847
I864
sV\u4eba\u6a29
p848
I865
sV\u9bae\u660e
p849
I866
sV\u642c\u9001
p850
I3
sV\u5185\u88c5
p851
I868
sVis
p852
I869
sV\u8aad\u8005
p853
I647
sVit
p854
I871
sV\u8a3c\u5238
p855
I872
sV\u708e
p856
I873
sV\u7372\u5f97
p857
I3432
sV\u53d6\u5f97
p858
I876
sV\u30b9\u30da\u30c3\u30af
p859
I877
sV\u9244\u9053
p860
I878
sV\u8a31\u53ef
p861
I1641
sVitunes
p862
I880
sV\u8a66\u9a13
p863
I881
sV\u5225
p864
I882
sV\u4ee3\u884c
p865
I883
sV\u8cb7\u53ce
p866
I884
sV\u3069\u3053
p867
I885
sV\u6d77\u4e0a
p868
I887
sV\u571f\u5730
p869
I888
sV\u4e3b\u6d41
p870
I889
sV\u5951\u7d04
p871
I890
sV\u304a\u9858\u3044
p872
I2753
sV\u7121\u8996
p873
I891
sV\u4f1d\u8aac
p874
I893
sV\u6771\u4eac
p875
I896
sV\u5fdc\u7528
p876
I897
sV\u904b\u8ee2
p877
I898
sV\u73fe\u6642\u70b9
p878
I3737
sV\u30e2\u30fc\u30c9
p879
I899
sV\u57f7\u884c
p880
I4114
sV\u524d\u9762
p881
I900
sV\u7686\u69d8
p882
I901
sV\u76ee\u7684
p883
I903
sV\u76db\u308a\u571f
p884
I904
sV\u30ec\u30b7\u30d4
p885
I905
sV\u3081\u3093
p886
I906
sV\u9ed2
p887
I907
sV\u6d3b\u6027
p888
I908
sV\u5f15\u7528
p889
I909
sV\u5730
p890
I4866
sV\u4e5d
p891
I912
sV\u4e5d\u5dde
p892
I4842
sV\u5efa\u7bc9
p893
I914
sV\u57fa
p894
I1296
sV\u6d77\u8001
p895
I1785
sV1979
p896
I917
sV\u5869
p897
I918
sV\u5834\u9762
p898
I919
sV\u91cd\u91cf
p899
I920
sV\u9aea
p900
I921
sV\u30d0\u30e9
p901
I4766
sV\u9054\u6210
p902
I922
sV\u592a\u5e73\u6d0b
p903
I554
sV4000
p904
I4282
sV\u4ef2
p905
I925
sV\u74f6
p906
I927
sV\u30c4\u30fc\u30eb
p907
I928
sV\u885d\u7a81
p908
I929
sVthe
p909
I930
sV800
p910
I931
sV\u72d9\u3044
p911
I4679
sV\u8eca\u4e21
p912
I932
sV\u6052\u4f8b
p913
I933
sV\u30e0\u30fc\u30c9
p914
I4813
sV\u5de8\u4eba
p915
I934
sV\u30e1\u30fc\u30c8\u30eb
p916
I3051
sV\u5171\u6f14
p917
I935
sVphoto
p918
I936
sV\u30e1\u30c7\u30a3\u30a2
p919
I937
sV\u58f2\u308a\u4e0a\u3052
p920
I938
sV\u540c
p921
I667
sV\u7a93
p922
I940
sV\u30ad\u30e5\u30f3
p923
I941
sV\u811a
p924
I944
sV\u5f8c\u65b9
p925
I945
sV\u3044\u307e
p926
I1845
sV\u8cb7\u3044
p927
I947
sV\u5f37\u8abf
p928
I3404
sV\u5024
p929
I803
sV\u30bb\u30c3\u30af\u30b9
p930
I951
sV\u5317\u4eac
p931
I952
sV300
p932
I3510
sV\u4f1a\u54e1
p933
I1301
sV\u5929\u6c17
p934
I954
sV\u4e01\u76ee
p935
I955
sV\u5404\u793e
p936
I956
sV\u6e80\u8db3
p937
I957
sV\u30b9\u30d1\u30a4\u30b9
p938
I3813
sV\u8efd\u5feb
p939
I959
sV\u6587\u7ae0
p940
I960
sV\u5238
p941
I961
sV\u30de\u30b9\u30bf\u30fc
p942
I962
sV\u5e97\u4e3b
p943
I963
sV\u8aad\u66f8
p944
I964
sV\u30d6\u30e9\u30b8\u30eb
p945
I3727
sV\u601d\u3044\u51fa
p946
I966
sV\u5f8c\u85e4
p947
I4286
sV\u5f53\u5730
p948
I2640
sV\u30c8\u30c3\u30d7
p949
I968
sV\u4e3b\u4eba
p950
I969
sV\u611f\u52d5
p951
I970
sV\u63a5\u89e6
p952
I971
sV\u50cf
p953
I972
sV\u304a\u6c17\u306b\u5165\u308a
p954
I974
sV\u672c\u793e
p955
I1796
sV\u30a6\u30a7\u30b6\u30fc\u30cb\u30e5\u30fc\u30b9
p956
I976
sV\u5b89\u500d
p957
I977
sV\u9854
p958
I978
sV\u7834\u58ca
p959
I4329
sV\u51fa\u6f14
p960
I2904
sV\u898b\u65b9
p961
I980
sV\u5e74\u3005
p962
I981
sV\u30b9\u30ad\u30eb
p963
I1798
sV\u68df
p964
I983
sV\u5354\u529b
p965
I984
sV\u30ed\u30c3\u30af
p966
I985
sV\u307f\u3093\u306a
p967
I987
sV59
p968
I988
sV58
p969
I753
sV\u6771\u6d77
p970
I990
sV\u3074\u3063\u305f\u308a
p971
I991
sV54
p972
I992
sV57
p973
I993
sV56
p974
I994
sV51
p975
I995
sV50
p976
I996
sV53
p977
I1023
sV52
p978
I1028
sV\u30d0\u30e9\u30a8\u30c6\u30a3\u30fc
p979
I999
sV55
p980
I1000
sV\u7a4f\u3084\u304b
p981
I1001
sV\u5f97\u70b9
p982
I4024
sV\u8a00\u3044\u65b9
p983
I1004
sV\u30a2\u30c9\u30d0\u30f3\u30c6\u30fc\u30b8
p984
I1006
sV\u5211\u4e8b
p985
I1007
sV\u624b\u5fdc\u3048
p986
I1008
sV\u4e2d\u6838
p987
I1009
sV\u843d\u4e0b
p988
I1010
sV\u30aa\u30b7\u30e3\u30ec
p989
I1011
sV\u592a\u967d
p990
I1012
sVwww
p991
I1013
sV\u77f3\u539f
p992
I1015
sV\u307e\u308f\u308a
p993
I2647
sV\u707d\u5bb3
p994
I1017
sV\u767a\u706b
p995
I1018
sV\u6708\u9593
p996
I1113
sV\u548c
p997
I1020
sV\u30de\u30f3\u30ac
p998
I4992
sV\u5546\u54c1
p999
I1021
sV\u30b9\u30b9\u30e1
p1000
I1022
sV\u52b9\u7387
p1001
I997
sV\u4fe1\u53f7
p1002
I1024
sV\u4f7f\u7528
p1003
I1025
sV\u4e09\u5841
p1004
I1026
sV\u3069\u3061\u3089
p1005
I4301
sV\u6e1b
p1006
I1027
sV\u8d05\u6ca2
p1007
I998
sV\u30d0\u30f3\u30b3\u30af
p1008
I1030
sV\u539f\u5bbf
p1009
I1031
sV\u6bba\u5230
p1010
I4941
sVfor
p1011
I1033
sV\u624b\u6570\u6599
p1012
I1220
sV\u6b74\u53f2
p1013
I1036
sV\u6628\u4eca
p1014
I911
sV\u3068\u304d
p1015
I4910
sV\u8a33
p1016
I1039
sV\u6db2
p1017
I1040
sV\u6cd5\u5f8b
p1018
I1270
sV\u5339
p1019
I1277
sV\u30d7\u30ed\u30c7\u30e5\u30fc\u30b5\u30fc
p1020
I1048
sV\u4f1a\u5408
p1021
I1051
sV\u7a0b\u5ea6
p1022
I1052
sV\u53c2\u8003
p1023
I1326
sV\u6c7a\u6226
p1024
I1055
sVof
p1025
I3941
sV\u767b\u677f
p1026
I1057
sV\u5206\u985e
p1027
I1352
sV\u5c0e\u5165
p1028
I1809
sV\u6b63\u78ba
p1029
I1060
sV\u500d\u5897
p1030
I4906
sV\u899a\u609f
p1031
I1061
sV\u30df\u30c3\u30b7\u30e7\u30f3
p1032
I1062
sV\u30c6\u30fc\u30de
p1033
I1063
sV\u30e1\u30f3\u30d0\u30fc
p1034
I1064
sV\u5168\u54e1
p1035
I1065
sV\u59ff\u52e2
p1036
I1066
sV\u30c6\u30fc\u30d7
p1037
I1067
sV\u5730\u4f4d
p1038
I1068
sV\u5de6\u624b
p1039
I3167
sV\u30a2\u30c9\u30d0\u30a4\u30b9
p1040
I1071
sV\u30c1\u30a7\u30c3\u30af
p1041
I1072
sV\u5f37\u529b
p1042
I3467
sVo
p1043
I1074
sV\u30e2\u30c7\u30eb
p1044
I3759
sVwatch
p1045
I4343
sV\u5d29\u58ca
p1046
I1075
sVplus
p1047
I1076
sV\u4ee3\u8b1d
p1048
I1077
sV\u5c0f\u6797
p1049
I1078
sV\u5e7b
p1050
I1079
sV\u51fa
p1051
I1080
sV\u5de5\u5834
p1052
I4684
sV\u5bfe
p1053
I1083
sV\u578b
p1054
I1087
sV\u8ad6
p1055
I2408
sV\u5b9a\u7740
p1056
I1089
sV\u751f\u5f92
p1057
I1090
sV\u706b\u707d
p1058
I3078
sV\uff10
p1059
I1093
sV\u751f\u5f8c
p1060
I1094
sV\u95a2\u6771
p1061
I1095
sV\u305b\u3044
p1062
I1096
sV\u8db3\u5143
p1063
I1097
sV\u8f9b
p1064
I1098
sV\u8a18\u5165
p1065
I2660
sV\u6700\u521d
p1066
I1100
sV\u539f\u7a3f
p1067
I1101
sV\u65e5\u7d4c
p1068
I1102
sV\u5148\u6708
p1069
I4805
sV\u89e3\u91c8
p1070
I1103
sV\u30d1\u30f3\u30b1\u30fc\u30ad
p1071
I1104
sV\u7e26
p1072
I1105
sV\u305d\u3061\u3089
p1073
I1106
sV\u9996\u4f4d
p1074
I3768
sV\u30db\u30fc\u30e0\u30da\u30fc\u30b8
p1075
I536
sV\u30d0\u30fc\u30b8\u30e7\u30f3
p1076
I1108
sV\u5b89\u5168
p1077
I1109
sV\u9244\u92fc
p1078
I1110
sV\u6027\u7684
p1079
I2663
sV\u30e9\u30a4\u30bf\u30fc
p1080
I1819
sV\u30bf\u30a4\u30e0\u30ea\u30fc
p1081
I1114
sV\u65b9\u91dd
p1082
I1115
sV\u5c71\u672c
p1083
I1117
sVhappy
p1084
I1118
sV\u3042\u305d\u3053
p1085
I1119
sV\u306e\u308a
p1086
I1120
sV\u4e00\u6d41
p1087
I1121
sV\u5915\u65b9
p1088
I1122
sV\u8fd1\u5e74
p1089
I1123
sV\u516c\u8a00
p1090
I1124
sV\u6027\u80fd
p1091
I1125
sV\u5168\u9577
p1092
I1126
sV\u91cf
p1093
I1127
sV...\u300d
p1094
I1128
sV\u30d5\u30ec\u30f3\u30c1
p1095
I1129
sV\u53e3\u30b3\u30df
p1096
I1131
sV\u30bd\u30a6\u30eb
p1097
I3369
sV\u66f2
p1098
I3857
sV\u8981\u7d20
p1099
I1133
sV\u30b9\u30bf\u30b8\u30aa
p1100
I1134
sV\u30ad\u30ec\u30a4
p1101
I4319
sV\u5165\u308a
p1102
I1136
sV\u50cd\u304d
p1103
I1137
sV\u512a\u79c0
p1104
I2666
sV\u304a\u8336
p1105
I1139
sV\u30d1\u30ef\u30fc
p1106
I1140
sV\u7e4a\u7d30
p1107
I1141
sV\u8b66\u5bdf
p1108
I1142
sVurl
p1109
I4320
sV\u629c\u7fa4
p1110
I1144
sV\u88fd\u54c1
p1111
I1145
sV\u8868\u53c2\u9053
p1112
I1146
sV\u73fe\u5728
p1113
I4885
sV\u5378
p1114
I1148
sV\u30e1\u30c3\u30bb\u30fc\u30b8
p1115
I1149
sV\u30db\u30c3\u30c8
p1116
I1150
sV\u59ff
p1117
I2589
sV\u6587\u5b57
p1118
I1152
sV150
p1119
I1153
sV\u6253\u70b9
p1120
I1154
sV\u65b9\u9762
p1121
I1157
sV\u540d
p1122
I1158
sV\u6709\u529b
p1123
I1159
sV\u30a2\u30ea
p1124
I1160
sV\u30a2\u30eb
p1125
I1161
sV\u30aa\u30ea\u30f3\u30d4\u30c3\u30af
p1126
I1162
sV\u7c92
p1127
I1163
sV\u524d\u7530
p1128
I1164
sV\u30cd\u30b3
p1129
I1165
sV\u7fd2\u6163
p1130
I1166
sV\u5730\u4e0a
p1131
I1167
sV\u5730\u4e0b
p1132
I1168
sV\u30cd\u30bf
p1133
I1169
sV\u8a9e
p1134
I1170
sV\u30b9\u30da\u30fc\u30b9
p1135
I1833
sV\u30d5\u30ea\u30fc\u30e9\u30a4\u30bf\u30fc
p1136
I1172
sV\u914d\u5206
p1137
I1173
sV\u5f79\u54e1
p1138
I1174
sV\u30ea\u30f3\u30b0
p1139
I3464
sVno
p1140
I1175
sV\u306e\u3061
p1141
I1176
sV\u672b
p1142
I1177
sV\u85ac
p1143
I1178
sV\u30a2\u30ca
p1144
I1179
sVng
p1145
I1180
sV\u512a\u4f4d
p1146
I1181
sV\u8cc7\u7523
p1147
I1182
sV\u7537
p1148
I1183
sV\u5f37\u5236
p1149
I3517
sV\u9f3b
p1150
I1185
sV\u70ba
p1151
I1186
sV\u571f\u7523
p1152
I1187
sV\u30ab\u56fd
p1153
I1188
sV\u5c06\u6765
p1154
I1838
sV\u5197\u8ac7
p1155
I1190
sV\u30b9\u30d4\u30fc\u30ab\u30fc
p1156
I1191
sV\u5de6\u53f3
p1157
I1192
sV\u65e8\u307f
p1158
I2260
sV\u4ef2\u9593
p1159
I1194
sV\u30c6\u30ec\u30d3
p1160
I1668
sV\u767a\u9054
p1161
I1196
sV\u30a6\u30a9\u30fc\u30ab\u30fc\u30d7\u30e9\u30b9
p1162
I1197
sV\u6771\u65e5\u672c
p1163
I2676
sV\u624b\u306e\u3072\u3089
p1164
I1198
sV\u547d\u4ee4
p1165
I1199
sV\u6709\u540d
p1166
I1200
sV\u30c7\u30a3\u30e9\u30f3
p1167
I1202
sV\u3078\u3093
p1168
I1203
sVpouch
p1169
I2039
sV\u6c11\u9032\u515a
p1170
I1205
sV\u5e74\u5185
p1171
I1206
sV\u57fa\u6e96
p1172
I4330
sV\u30b3\u30f3\u30c8\u30ed\u30fc\u30eb
p1173
I1208
sVsource
p1174
I3421
sV\u5065
p1175
I1210
sV1800
p1176
I1211
sVhome
p1177
I4765
sV\u30c9\u30e9\u30a4\u30d0\u30fc
p1178
I1213
sV\u672c\u756a
p1179
I2398
sV\u65ec
p1180
I1215
sVdaily
p1181
I2038
sV\u30b3\u30af
p1182
I3713
sV\u7e4a\u7dad
p1183
I1217
sV\u6b73
p1184
I1218
sV\u9577
p1185
I1219
sV\u4e00\u8cab
p1186
I1086
sV\u7279
p1187
I1221
sV\u53f8
p1188
I1222
sV\u901a\u5831
p1189
I1223
sV\u9069\u5207
p1190
I1224
sV\u8868\u60c5
p1191
I1225
sV\u30e1\u30fc\u30ab\u30fc
p1192
I2944
sV\u8c46\u8150
p1193
I1844
sV\u5b88\u5099
p1194
I1227
sV\u53cd\u6620
p1195
I1229
sV\u81ea\u52d5\u7684
p1196
I1230
sV\u30b3\u30fc\u30c6\u30a3\u30f3\u30b0
p1197
I1231
sV\u4ee5\u6765
p1198
I1232
sV\u30b3\u30f3\u30bb\u30d7\u30c8
p1199
I4302
sV\u30d6\u30ec\u30fc\u30ad
p1200
I1233
sV\u6d41\u308c
p1201
I1234
sV\u5171\u611f
p1202
I1212
sV\u6307\u6458
p1203
I1236
sV\u9999\u308a
p1204
I4335
sV\u30d2\u30c3\u30c8
p1205
I1239
sV\u6d99
p1206
I1241
sV\u632f\u52d5
p1207
I1242
sV\u30aa\u30d5\u30a3\u30b9
p1208
I1243
sV\u770b\u677f
p1209
I1244
sV\u8c46\u4e73
p1210
I4702
sV\u3042\u307e\u308a
p1211
I1246
sV\u5473\u65b9
p1212
I1247
sV\u7aef\u672b
p1213
I1248
sV\u30ef\u30fc\u30eb\u30c9
p1214
I1249
sV\u6804\u990a\u7d20
p1215
I3498
sV\u795e\u5948\u5ddd
p1216
I1250
sV\u901a\u77e5
p1217
I1251
sV\u8cc7\u6e90
p1218
I4338
sV\u8f1d
p1219
I4986
sV\u4e00\u822c
p1220
I1253
sV\u304d\u308a
p1221
I1254
sV\u6ede\u5728
p1222
I1255
sV0
p1223
I1256
sV\u7d20\u6750
p1224
I1257
sV\u539a\u307f
p1225
I2826
sV\u9000\u5834
p1226
I1260
sV\u975e\u5e38
p1227
I4437
sV\u524a\u9664
p1228
I1262
sV\u6700\u4f4e\u9650
p1229
I1263
sV\u5916\u51fa
p1230
I1264
sV\u696d\u7e3e
p1231
I1265
sV\u5e83\u5cf6
p1232
I1266
sV\u4ed6\u793e
p1233
I391
sV\u6700\u7d42
p1234
I1268
sVme
p1235
I208
sV\u30a8\u30fc\u30b9
p1236
I1042
sV\u500b\u5225
p1237
I1271
sVrecipe
p1238
I1851
sV\u98db\u884c\u6a5f
p1239
I1273
sV\u8a2d\u8a08
p1240
I1274
sV\u5927\u4eba
p1241
I1852
sV\u30ad\u30c3\u30c1\u30f3
p1242
I1276
sV\u4fb5\u5165
p1243
I1043
sV\u30b5\u30f3\u30d7\u30eb
p1244
I1278
sV\u67d4\u3089\u304b
p1245
I1279
sV\u4f11\u61a9
p1246
I1280
sV\u3055\u304f\u3089
p1247
I1281
sV\u7247\u624b
p1248
I1282
sV\u597d\u8a55
p1249
I1284
sV\u52d5\u4f5c
p1250
I1285
sV\u4f53\u8abf
p1251
I4420
sV\u6e08\u307f
p1252
I1245
sV\u30cd\u30c3\u30c8
p1253
I1287
sV\u30c6\u30f3\u30c8
p1254
I1288
sV\u8208\u5473
p1255
I1289
sV\u5ba4\u5185
p1256
I585
sV\u5275\u696d
p1257
I1292
sVp
p1258
I1293
sV\u610f\u601d
p1259
I1294
sV\u5929\u624d
p1260
I1295
sV\u5185\u8535
p1261
I1297
sV\u8d64\u5b57
p1262
I1298
sV\u8efd\u91cf
p1263
I1299
sV\u672a\u6e80
p1264
I1300
sV\u304d\u3063\u304b\u3051
p1265
I1302
sV\u30d1\u30f3\u30c1
p1266
I1303
sV\u5c11\u5e74
p1267
I1521
sV\u8b1b\u6f14
p1268
I1306
sV\u4e45\u3005
p1269
I1307
sV\u597d\u8abf
p1270
I1308
sV\u8af8\u56fd
p1271
I4349
sV\u53ef
p1272
I3296
sV\u305d\u306e\u3082\u306e
p1273
I1311
sV\u653b\u7565
p1274
I1313
sV\u53cb\u4eba
p1275
I1463
sV\u6e05\u6f54
p1276
I1315
sV\u9298\u67c4
p1277
I4680
sV\u6d41\u901a
p1278
I1316
sV\u629c
p1279
I1317
sV\u661f
p1280
I1318
sV\u6b63\u76f4
p1281
I1319
sV\u5ba2
p1282
I604
sV\u7d4c\u904e
p1283
I1323
sV\u3044\u308d\u3044\u308d
p1284
I1861
sV\u9707\u6e90
p1285
I1053
sV\u6df3
p1286
I220
sV\u6e2f
p1287
I1328
sV\u55ab\u8336\u5e97
p1288
I2935
sV\u8a2a\u554f
p1289
I1330
sV\u304a\u83d3\u5b50
p1290
I1331
sV\u65e5\u672c\u30cf\u30e0
p1291
I1332
sV\u30c8\u30ed
p1292
I1333
sV\u4fc3\u9032
p1293
I1334
sV\u91d1\u878d
p1294
I1335
sV\u6c38\u9060
p1295
I3511
sV\u5e74\u672b
p1296
I1337
sV\u9ad8\u6a4b
p1297
I298
sV\u304a\u4f1d\u3048
p1298
I1339
sV\u540c\u65e5
p1299
I3170
sV\u3044\u308f\u304f
p1300
I1341
sV\u77f3\u5ddd
p1301
I1342
sV\u63a8\u9032
p1302
I1343
sV\u8cde\u91d1
p1303
I1344
sV\u30a8\u30f3\u30c8\u30ea\u30fc
p1304
I1345
sV\u5acc
p1305
I1346
sV\u30bf\u30b0
p1306
I1347
sV\u30dc\u30fc\u30eb
p1307
I1348
sV\u30de\u30eb\u30c1
p1308
I1349
sV\u30d6\u30f3\u30c7\u30b9\u30ea\u30fc\u30ac
p1309
I1350
sV\u5b8c\u5168
p1310
I1058
sV\u610f\u5916
p1311
I2693
sV\u96c6\u5408
p1312
I1354
sV\u66ab\u5b9a
p1313
I1355
sV[
p1314
I1356
sV\u30bf\u30a4
p1315
I1357
sV\u58f0\u660e
p1316
I1358
sV\u30a2\u30ab\u30a6\u30f3\u30c8
p1317
I1359
sV\u9bae\u3084\u304b
p1318
I1360
sV\u89e3\u6790
p1319
I2695
sV\uff65
p1320
I1362
sV\u7dcf\u52d9
p1321
I1363
sV\u4e8c\u5841
p1322
I3294
sV\u63d0\u4f9b
p1323
I1365
sV\u5b9f\u8df5
p1324
I1366
sV\u5bb6\u8a08
p1325
I3596
sV\u6e6f
p1326
I1367
sV\u30dc\u30fc\u30c9
p1327
I3340
sV\u30b5\u30fc\u30d3\u30b9
p1328
I1369
sV\u30e8\u30fc\u30ed\u30c3\u30d1
p1329
I1370
sV\u72af\u4eba
p1330
I1371
sV\u540c\u610f
p1331
I599
sV\u5e74\u5ea6
p1332
I1373
sV\u660e\u3051
p1333
I1374
sV\u8b66\u544a
p1334
I1375
sV\u4eba\u6750
p1335
I1376
sV\u30c1\u30b1\u30c3\u30c8
p1336
I4488
sV\u30ab\u30ea\u30d5\u30a9\u30eb\u30cb\u30a2
p1337
I1377
sV\u304b\u6708
p1338
I1378
sVlove
p1339
I1379
sV\u304d\u308c\u3044
p1340
I1380
sV\u30d4\u30fc\u30af
p1341
I1381
sV\u521d\u671f
p1342
I1382
sV\u30ea\u30f3\u30af
p1343
I1383
sV\u9593
p1344
I1384
sV\u4e2d\u6751
p1345
I1385
sV\u6253\u5e2d
p1346
I1386
sV\u7d71\u5408
p1347
I1387
sV\u95a2\u897f
p1348
I1388
sV\u5f8c\u62bc\u3057
p1349
I1389
sV\u771f\u3063\u8d64
p1350
I1390
sV\u654f\u611f
p1351
I1876
sV\u4ee5\u5916
p1352
I3466
sV\u7d50\u8ad6
p1353
I1393
sV\u7fd2\u8fd1
p1354
I1394
sV\u6307\u6570
p1355
I1395
sV\u5916\u90e8
p1356
I3540
sV\u7528
p1357
I1397
sV\u30dc\u30a4\u30b9
p1358
I1398
sV\u30a4\u30e1\u30fc\u30b8
p1359
I1399
sV\u514b\u670d
p1360
I1400
sV!!\u300d
p1361
I2705
sVlive
p1362
I1402
sV\u521d\u6226
p1363
I1877
sViphone
p1364
I451
sVhttps
p1365
I1405
sV\u62b9\u8336
p1366
I1406
sV\u5e74\u9f62
p1367
I1407
sV\u6012\u308a
p1368
I1408
sV\u5e7b\u60f3
p1369
I1409
sV\u6559\u6388
p1370
I1410
sV\u6cd5\u6848
p1371
I2691
sV\u8b70\u4f1a
p1372
I1413
sV\u9769\u65b0
p1373
I1414
sV\u79cb
p1374
I1415
sV\u30c0\u30a4\u30e4
p1375
I1416
sV\u885b\u661f
p1376
I1417
sV\u6b53\u58f0
p1377
I4160
sV\u30d1
p1378
I1418
sV\u7121\u6570
p1379
I1419
sV\u7802\u7cd6
p1380
I1420
sV\u3055\u308a\u3052
p1381
I1421
sV\u6838
p1382
I4366
sV\u5fc3\u81d3
p1383
I879
sV\u534a\u5206
p1384
I1424
sV\u4ed8\u8fd1
p1385
I145
sV\u884c\u70ba
p1386
I1426
sV\u624b\u7d19
p1387
I1427
sV\u63da\u3052
p1388
I1428
sV\u304b\u6240
p1389
I1429
sV\u524d\u7bc0
p1390
I1431
sVtokyo
p1391
I1432
sV\u30a2\u30a4\u30b3\u30f3
p1392
I1433
sV\u30d9\u30eb\u30ea\u30f3
p1393
I1434
sVshutterstock
p1394
I1436
sV\u3042\u308c
p1395
I4799
sV\u9060\u304f
p1396
I1438
sVcat
p1397
I3809
sV\u624b\u8853
p1398
I1440
sV\u8170
p1399
I1441
sV\u30dd\u30a4\u30f3\u30c8
p1400
I1442
sV\u30b1\u30a2
p1401
I1443
sV\u4e0a\u90e8
p1402
I1444
sV\u3060\u3057
p1403
I1445
sV\u5145\u96fb
p1404
I1446
sV\u91ce\u83dc
p1405
I4700
sV\u6d41\u51fa
p1406
I1448
sV\u4e8b\u5b9f
p1407
I1449
sV\u30b1\u30ac
p1408
I1450
sV\u8fd1\u304f
p1409
I1451
sV\u30c1\u30ea
p1410
I4452
sV\u6e05
p1411
I1453
sV\u5148\u884c
p1412
I1454
sV\u6307
p1413
I1455
sV\u5c40
p1414
I4373
sV\u5869\u5473
p1415
I1458
sV\u7dad\u6301
p1416
I4458
sV\u5f0f
p1417
I1459
sV\u652f\u6255\u3044
p1418
I1460
sV\u4e00\u5b9a
p1419
I2718
sV\u9b5a
p1420
I4388
sV\u30bb\u30f3\u30bf\u30fc
p1421
I1462
sV\u606f
p1422
I2491
sV\u30a2\u30fc\u30c6\u30a3\u30b9\u30c8
p1423
I1465
sV\u6c34\u5206
p1424
I1467
sV\u5b89\u5fc3
p1425
I1468
sV\u4f4e\u97f3
p1426
I1469
sV\u85e4\u7530
p1427
I1471
sV\u6a19\u6e96
p1428
I1472
sV\u5f71
p1429
I3539
sV\u30b7\u30e7\u30fc\u30c8
p1430
I1474
sV\u9752\u5c71
p1431
I1475
sV\u7fa4
p1432
I1476
sV\u795e\u793e
p1433
I1477
sV\u884c\u304d
p1434
I1480
sV\u3060\u308c
p1435
I1481
sV\u5357\u90e8
p1436
I1482
sV\u5148\u8f29
p1437
I3542
sV\u5916\u5074
p1438
I1484
sV\u4e21\u8005
p1439
I3522
sV\u30d0\u30a4\u30c8
p1440
I1485
sV\u7121\u6599
p1441
I1486
sV\u76f8\u5f53
p1442
I1487
sV\u9eba
p1443
I351
sV\u30ac\u30e9\u30b9
p1444
I1489
sV\u5927\u4f7f\u9928
p1445
I3544
sV\u6841
p1446
I1492
sV\u30ea\u30e2\u30b3\u30f3
p1447
I1493
sV\u534a
p1448
I4380
sV140
p1449
I1494
sV\u51fa\u8eab
p1450
I1495
sV\u8449
p1451
I1496
sV\u4ed5\u4e0a\u304c\u308a
p1452
I3546
sV\u30b7\u30ea\u30a2
p1453
I1498
sV\u7523
p1454
I1499
sV\u30d0\u30a4\u30af
p1455
I1500
sVmac
p1456
I4182
sVsns
p1457
I1503
sV\u65bd\u8a2d
p1458
I1505
sV\u5207\u308c
p1459
I1506
sV\u5207\u308a
p1460
I1507
sV\u5178\u578b
p1461
I1509
sV\u4e88\u9078
p1462
I4230
sV\u751f\u307e\u308c
p1463
I418
sV\uff11\uff12\u6708
p1464
I1512
sV\u5148\u9031
p1465
I386
sV\u30de\u30a4\u30ca\u30b9
p1466
I1514
sVq
p1467
I1516
sV\u96fb\u6c60
p1468
I1897
sV\u30b2\u30c3\u30c8
p1469
I1518
sV\u5b9f\u8cea
p1470
I1519
sV\u5927\u81e3
p1471
I1522
sV\u5927\u4eba\u6c17
p1472
I1523
sV\u96e3\u6c11
p1473
I404
sV\u7d76\u671b
p1474
I1525
sV\u8a00\u3044\u8a33
p1475
I1526
sVsf
p1476
I1527
sV\u8c61\u5fb4
p1477
I1899
sV\u898b\u89e3
p1478
I1529
sV\u30d7\u30ec\u30b9
p1479
I1530
sV\u30b9\u30bf\u30fc
p1480
I1531
sV\u8d85
p1481
I1532
sV\u76e3\u4fee
p1482
I1533
sV\u52a0\u85e4
p1483
I1534
sV\u73fe\u5f79
p1484
I3550
sV\u5f97\u610f
p1485
I55
sV\u308c\u3044
p1486
I3244
sV\u79d1\u5b66
p1487
I1901
sV\u6279\u5224
p1488
I1539
sV\u4e0d\u5feb
p1489
I1540
sV\uff0e
p1490
I475
sV\u5e97\u8217
p1491
I1542
sV\u7206\u5f3e
p1492
I1544
sV\u7d20\u6575
p1493
I1545
sV\u76db\u308a\u4e0a\u304c\u308a
p1494
I1546
sV\u9178\u5473
p1495
I1547
sV\u30ab\u30ec
p1496
I1549
sV\u30d7\u30ec\u30a4
p1497
I1550
sV\u8077\u4eba
p1498
I4445
sV\u5922
p1499
I1552
sV\u7834\u7dbb
p1500
I1553
sV\u304b\u306a\u308a
p1501
I1554
sV\u30d7\u30ed
p1502
I1555
sV\u30d7\u30ec
p1503
I1556
sV\u30bd\u30d5\u30c8
p1504
I1557
sV\u8102\u80aa
p1505
I1558
sV\u9806\u8abf
p1506
I1559
sV\u90fd\u5185
p1507
I1560
sV\u6025\u901f
p1508
I1561
sV\u78ba\u5b9f
p1509
I1562
sV\u6700\u5f37
p1510
I1563
sV\u78ba\u5b9a
p1511
I1564
sV\u30de\u30e8\u30cd\u30fc\u30ba
p1512
I1565
sV\u611f\u5ea6
p1513
I1566
sV\u884c\u65b9
p1514
I4391
sV\u5f8c\u8005
p1515
I1567
sV\u4f5c\u7528
p1516
I1568
sV\u30d4\u30c3\u30c1
p1517
I1569
sV\u65c5\u884c
p1518
I1570
sV\u96fb\u8a71
p1519
I1571
sV\u30d7\u30ec\u30fc
p1520
I1572
sV\u632f\u308a
p1521
I1573
sV\u97d3\u56fd
p1522
I1574
sV\u5bb6\u5ead
p1523
I1575
sV\u51fa\u8377
p1524
I1576
sV\u8a3c\u660e
p1525
I2734
sV\u521d\u3081
p1526
I4762
sV\u9152
p1527
I1578
sV\u6ce8\u76ee
p1528
I1579
sV\u8cc7\u6599
p1529
I3553
sV\u9032\u884c
p1530
I1581
sV\u81ea\u6162
p1531
I1582
sV&
p1532
I3894
sV\u4e0a\u53f8
p1533
I1585
sV\u5c64
p1534
I1586
sV\u6700\u5927\u9650
p1535
I1587
sV)\uff5e
p1536
I1588
sV\u65e5\u3005
p1537
I1589
sV\u5668
p1538
I1590
sV\u7570\u5e38
p1539
I1591
sV\u8a55\u8ad6
p1540
I1592
sV\u30d5\u30ed\u30f3\u30c8
p1541
I4748
sV\u7d04\u675f
p1542
I4554
sV\u6b74
p1543
I1594
sVh
p1544
I1595
sV\u5e78
p1545
I1596
sV\u6771\u5317
p1546
I3729
sV\u30b3\u30df\u30e5\u30cb\u30b1\u30fc\u30b7\u30e7\u30f3
p1547
I2738
sV\u30dc\u30bf\u30f3
p1548
I4781
sV\u666e\u6bb5
p1549
I1598
sV\u5927\u52e2
p1550
I2537
sVel
p1551
I1599
sV\u4e03
p1552
I1600
sV\u7a0b
p1553
I1602
sV\u6b63\u7fa9
p1554
I1423
sV\u6700\u5f8c
p1555
I1604
sV\u4e26\u307f
p1556
I1605
sV\u9078\u51fa
p1557
I1606
sV\u30a6\u30a7\u30a4
p1558
I3560
sV\u6f14\u8aac
p1559
I1608
sV\u8cfc\u5165
p1560
I1609
sV\u30b3\u30fc\u30b9
p1561
I1611
sV\u624b\u6bb5
p1562
I1216
sV\u30b8\u30e3\u30f3\u30eb
p1563
I3561
sVeu
p1564
I1614
sV\u70b9\u6570
p1565
I1615
sV\u6fc0\u95d8
p1566
I1616
sV\u6240\u5c5e
p1567
I1618
sV\u7acb\u6d3e
p1568
I1619
sV\u30ad\u30e3\u30d9\u30c4
p1569
I1620
sV\u7591\u60d1
p1570
I1621
sV\u30bd\u30d5\u30c8\u30d0\u30f3\u30af
p1571
I3982
sV\u53f0\u6570
p1572
I1622
sV\u5831\u544a
p1573
I3563
sV\u53cd\u6483
p1574
I1624
sV\u5236\u8987
p1575
I1625
sV\u82f1\u6a39
p1576
I1626
sV\u7279\u6280
p1577
I1627
sV\u304a\u4e16\u8a71
p1578
I1628
sV\u8a73\u7d30
p1579
I1909
sV\u30dd\u30b8\u30b7\u30e7\u30f3
p1580
I4402
sV\u5c45\u5834\u6240
p1581
I29
sV\u5bfe\u7acb
p1582
I33
sV\u30a2\u30d1\u30ec\u30eb
p1583
I1633
sV\u30a4\u30f3\u30d5\u30e9
p1584
I40
sV\u98df\u7269
p1585
I1635
sV\u5bb6
p1586
I1636
sV\u56e3\u4f53
p1587
I1637
sV\u767a\u5c55
p1588
I1638
sV\u6295\u8cc7
p1589
I1639
sV\u9023\u7d61
p1590
I1640
sV\u7a0e\u8fbc\u307f
p1591
I65
sV\u624b\u7d9a\u304d
p1592
I1642
sV\u30d0\u30c8\u30eb
p1593
I1643
sV\u76f8\u6027
p1594
I3513
sV\u8eca
p1595
I1644
sV\u5bfe\u6c7a
p1596
I4334
sV\u5230\u9054
p1597
I1645
sV\u30b3\u30fc\u30eb
p1598
I1646
sV\u30ea\u30ea\u30fc\u30b9
p1599
I4370
sV\u914d\u7f6e
p1600
I1647
sV\u4e3b\u4eba\u516c
p1601
I1648
sV\u552f\u4e00
p1602
I127
sV\u9023\u767a
p1603
I1651
sV\u30cf\u30a4\u30d6\u30ea\u30c3\u30c9
p1604
I1652
sV\uff2a\uff32
p1605
I1653
sV\u653f\u6a29
p1606
I380
sV\u6b66\u5668
p1607
I1655
sV\u4ed8
p1608
I1656
sV\u4eba\u6570
p1609
I1657
sV\u30b3\u30fc\u30f3
p1610
I1659
sV2014
p1611
I4559
sV\u6253\u7dda
p1612
I193
sV\u30b3\u30fc\u30c8
p1613
I202
sV\u571f\u66dc\u65e5
p1614
I958
sV\u77e5\u4e8b
p1615
I212
sV\u5144\u5f1f
p1616
I1665
sV\u767a\u5c04
p1617
I1666
sV\u96e8
p1618
I1667
sV\u30d1\u30fc\u30c4
p1619
I226
sV\u696d
p1620
I1670
sV\u30b3\u30fc\u30c1
p1621
I235
sV\u30e6\u30cb\u30fc\u30af
p1622
I1672
sV\u7b46\u982d
p1623
I1920
sV\u53f8\u4f1a
p1624
I437
sV\u30d0\u30fc\u30c7\u30a3\u30fc
p1625
I4985
sV\u6575
p1626
I926
sV\u5b8c\u7d50
p1627
I1677
sV\u7d66\u6599
p1628
I3573
sV\u4f1a\u5834
p1629
I1650
sV\u30aa\u30ea\u30b8\u30ca\u30eb
p1630
I3583
sV\u8b1d\u7f6a
p1631
I4416
sV\u30fc
p1632
I1680
sV1000
p1633
I308
sV\u7af6\u5408
p1634
I3930
sV\u5206\u9593
p1635
I1684
sV\u30d7\u30e9\u30a4\u30d9\u30fc\u30c8
p1636
I4715
sV\u30da\u30c8\u30ed\u30f4\u30a3\u30c3\u30c1
p1637
I1685
sV\u9aa8
p1638
I1035
sV\u30dd\u30fc\u30c8
p1639
I93
sV\u6a5f\u4f53
p1640
I1690
sV\u9d8f
p1641
I1692
sV\u540d\u9580
p1642
I989
sV\u30b7\u30f3\u30d7\u30eb
p1643
I1694
sV\u6fc3\u539a
p1644
I372
sV\u63aa\u7f6e
p1645
I3288
sV\u5185\u91ce
p1646
I4419
sV\u4ee3\u66ff
p1647
I1698
sV\u9078\u3073
p1648
I1699
sV\u5341\u5206
p1649
I3801
sV\u697d\u5929
p1650
I407
sV\u30a2\u30af\u30b7\u30e7\u30f3
p1651
I1702
sV\u8cea\u611f
p1652
I1703
sV\u30db\u30f3\u30c0
p1653
I1704
sV\u4e01\u5be7
p1654
I1705
sV\u30db\u30f3\u30cd
p1655
I1706
sV\u30ea\u30c4\u30a4\u30fc\u30c8
p1656
I1707
sV\u534a\u3070
p1657
I464
sV\u51fa\u6c41
p1658
I468
sV\u60a3\u8005
p1659
I1340
sV\u82b1
p1660
I480
sV\u30b0\u30e9\u30f3\u30d7\u30ea
p1661
I1713
sV\u884c\u52d5
p1662
I979
sV\u8996\u8074
p1663
I1715
sV\u30ab\u30b8\u30e5\u30a2\u30eb
p1664
I501
sV\u5fa9\u5e30
p1665
I4424
sV\u4eae
p1666
I1719
sV\u713c
p1667
I1720
sV\u611b\u72ac
p1668
I1721
sV\u30ea\u30a2\u30eb\u30bf\u30a4\u30e0
p1669
I1722
sV\u8061
p1670
I2761
sV\u6a5f\u4f1a
p1671
I1724
sV\u6557\u9000
p1672
I1725
sV\u3044\u3084
p1673
I1726
sV\u7d30\u80de
p1674
I1727
sV\u5217\u8eca
p1675
I1728
sV\u4e8c
p1676
I4426
sV\u30d1\u30a4\u30d7
p1677
I1730
sV\u97d3
p1678
I1731
sV\u4e16\u9593
p1679
I1700
sV\u62e1\u5f35
p1680
I1733
sV\u653e\u7f6e
p1681
I64
sV\u6708\u984d
p1682
I1736
sV\u30a2\u30a4\u30c6\u30e0
p1683
I1737
sV\uff08@
p1684
I1738
sV\u8c5a
p1685
I634
sV\u53d6\u7de0\u5f79
p1686
I1740
sV\u76f4\u6483
p1687
I1741
sV\u30d5\u30a9\u30fc\u30e0
p1688
I1742
sV\u6c5a\u67d3
p1689
I73
sV11
p1690
I1744
sV\u82b8\u4eba
p1691
I1935
sV\u6b21\u5143
p1692
I1746
sV12
p1693
I1747
sV\u540c\u6642
p1694
I676
sV\u539f\u767a
p1695
I1749
sV\u81ea\u5bb6\u88fd
p1696
I1750
sV16
p1697
I689
sV19
p1698
I1752
sV18
p1699
I695
sV\u4e21\u624b
p1700
I1754
sV\u2013
p1701
I4428
sV\u5546\u793e
p1702
I1756
sV\u82f1
p1703
I1757
sVr
p1704
I1758
sV\u7a81\u7834
p1705
I1759
sV\u3054\u306f\u3093
p1706
I1760
sV\u9069\u5ea6
p1707
I1743
sV\u30c8\u30fc\u30b9\u30bf\u30fc
p1708
I764
sV\u6765\u5e97
p1709
I1763
sV\u30e9\u30c3\u30b7\u30e5
p1710
I776
sV\u517c
p1711
I1765
sV\u6d3b\u8e8d
p1712
I783
sV\u767e
p1713
I1767
sVand
p1714
I1768
sV\u524d\u65e5
p1715
I3587
sV\u30d1\u30fc\u30c6\u30a3
p1716
I1771
sV\u82e6\u52b4
p1717
I801
sV\u30ad\u30e3\u30e9
p1718
I1773
sV\u5730\u5143
p1719
I3836
sVpro
p1720
I1774
sV\u98df\u5353
p1721
I902
sV\uff17\u6708
p1722
I837
sV\u8c4a\u5bcc
p1723
I1778
sV\u7537\u5973
p1724
I1779
sV\u9752\u679c
p1725
I4177
sV\u6765\u5e74
p1726
I1781
sV\u5bfe\u6226
p1727
I2844
sV\u30ea\u30b9\u30c8
p1728
I1782
sV\u6210\u9577
p1729
I1783
sVcm
p1730
I4503
sV\u90e8\u4f4d
p1731
I4990
sV\u30d5\u30e9\u30a4
p1732
I401
sV\u914d\u5e03
p1733
I916
sV\u4e2d\u65ec
p1734
I1786
sV\u3044\u3064
p1735
I1787
sV\u51fa\u8cc7
p1736
I1788
sV\u30af\u30ec\u30b8\u30c3\u30c8\u30ab\u30fc\u30c9
p1737
I1789
sV\u30d7\u30e9\u30a4\u30c9
p1738
I1790
sV\u8ecd\u4e8b
p1739
I1791
sV\u3044\u3061
p1740
I1070
sVnote
p1741
I1793
sV\u30b4\u30ed
p1742
I1794
sVonline
p1743
I1795
sV\u8a66\u5408
p1744
I975
sV\u5f01\u8b77\u58eb
p1745
I1797
sV\u533b
p1746
I982
sV\u9996\u90fd
p1747
I1799
sV\u9650\u754c
p1748
I1800
sV\u30ac\u30b9
p1749
I1801
sV200
p1750
I1802
sV\u308f\u305f\u3057
p1751
I1803
sV\u5c0f\u8aac
p1752
I1804
sV\u3055\u307e\u3056\u307e
p1753
I1805
sV\u7b4b
p1754
I1806
sV\u5148\u982d
p1755
I1807
sV\u984d
p1756
I1808
sV\u30b9\u30c6\u30fc\u30b8
p1757
I59
sV\u754c
p1758
I1811
sV\u30a2\u30c3\u30d7\u30c7\u30fc\u30c8
p1759
I1944
sV\u30af\u30ea\u30b9\u30de\u30b9
p1760
I1812
sV\u9867\u5ba2
p1761
I1814
sV\u5144
p1762
I3590
sV\u4f5c\u54c1
p1763
I1815
sV\u7ffc
p1764
I1816
sV]
p1765
I1817
sV]\uff08
p1766
I1818
sV\u53cb\u597d
p1767
I1112
sV\u30a2\u30cb\u30e1
p1768
I1948
sV\u811a\u672c
p1769
I1821
sV\u5236\u88c1
p1770
I1822
sV\u7dcf\u984d
p1771
I1823
sV\u30b5\u30fc\u30c9
p1772
I1824
sV\u5354\u4f1a
p1773
I1825
sV\u30b9\u30de\u30fc\u30c8
p1774
I1826
sV\u79fb\u52d5
p1775
I1827
sV350
p1776
I4668
sV\u30ea\u30a2\u30af\u30b7\u30e7\u30f3
p1777
I1828
sV\u7ba1\u7406
p1778
I4440
sV\u5148\u5236
p1779
I1829
sV\u66b4\u884c
p1780
I1830
sV\u5927\u534a
p1781
I2775
sV\u521d\u65e5
p1782
I1171
sV\u884c\u5217
p1783
I1834
sV\u4f1a\u793e
p1784
I1835
sV\u6c17\u5473
p1785
I1837
sV\u30ac\u30f3
p1786
I1189
sV\u4e00\u81f4
p1787
I1839
sV\u8003\u3048\u65b9
p1788
I238
sV\u30ab\u30eb\u30c1\u30e3\u30fc
p1789
I4208
sV\u7b4b\u8089
p1790
I1841
sV\u305f\u304f\u3055\u3093
p1791
I1842
sV\u539f\u56e0
p1792
I1843
sVshop
p1793
I1226
sV\u89e3\u50cf\u5ea6
p1794
I3922
sV\u4e16\u754c\u4e2d
p1795
I1846
sV\u8c5a\u8089
p1796
I1847
sV\u6687
p1797
I1848
sV\u5e38\u8b58
p1798
I2963
sV\u6210\u7e3e
p1799
I1272
sV\u9023\u90a6
p1800
I1275
sV\u4ef6\u6570
p1801
I1853
sV\u672c\u5e97
p1802
I1854
sV\u3093
p1803
I1855
sV\u5712
p1804
I1856
sV\u4f11\u65e5
p1805
I1857
sV\u5ef6\u9577
p1806
I1309
sV\u6700\u591a
p1807
I1859
sV\u30c1\u30fc\u30ba
p1808
I2780
sVline
p1809
I3601
sV\u98df\u54c1
p1810
I1863
sV\u5f8c\u7d99
p1811
I4706
sV\u30d1\u30c3\u30b1\u30fc\u30b8
p1812
I1864
sV\u3044\u3064\u304b
p1813
I1954
sV\u30b3\u30c1\u30e9
p1814
I1866
sV\u6982\u5ff5
p1815
I4326
sV\u96fb\u6c17
p1816
I1868
sV\u6700\u5927
p1817
I1869
sV\u30bf\u30a4\u30c8\u30eb
p1818
I1870
sV\u74b0
p1819
I4447
sV\u4f53\u9a13
p1820
I1872
sV\u4e16\u754c\u4e00
p1821
I389
sV\u6728\u6751
p1822
I528
sV\u306a\u3093
p1823
I1875
sV\u795d\u65e5
p1824
I1391
sV\u5e38\u5099
p1825
I1403
sV\u30ac\u30bd\u30ea\u30f3
p1826
I1878
sV\u904b\u55b6
p1827
I4763
sV\u30d0\u30eb\u30bb\u30ed\u30ca
p1828
I1880
sV\u304a\u77e5\u3089\u305b
p1829
I1881
sV\u59b9
p1830
I1882
sV\u30b5\u30a4\u30f3
p1831
I2900
sV\u505c\u6b62
p1832
I3300
sV\u5927\u4e8b
p1833
I1883
sV\u4e00\u6642
p1834
I1884
sV\u61f2\u5f79
p1835
I4698
sV\u653f\u6cbb
p1836
I1886
sV\u7b54\u3048
p1837
I4449
sV\u30a6\u30a4\u30eb\u30b9
p1838
I1888
sV\u57f7\u7b46
p1839
I1889
sV\u8457\u540d
p1840
I1890
sV\u53e3
p1841
I1891
sV\u8fd1\u757f
p1842
I1892
sV\u30b7\u30e7\u30c3\u30d4\u30f3\u30b0
p1843
I1894
sV\u5473\u4ed8\u3051
p1844
I1895
sV\u9752
p1845
I1517
sV\u30ed\u30fc\u30b9\u30c8
p1846
I1898
sV\u30dd\u30b8\u30c6\u30a3\u30d6
p1847
I1528
sV\u7121\u8077
p1848
I1900
sV!?\u3000
p1849
I1538
sV\u6d3e\u9063
p1850
I1902
sV\u30d5\u30a9\u30fc\u30e9\u30e0
p1851
I1903
sV\u682a\u4fa1
p1852
I1904
sV\u30c9\u30ea\u30d6\u30eb
p1853
I1905
sV\u57fa\u790e
p1854
I1906
sVflickr
p1855
I1907
sV\u6238
p1856
I3425
sV\u5468\u4f5c
p1857
I1910
sV\u30ad\u30e3\u30e9\u30af\u30bf\u30fc
p1858
I3611
sV\u653e\u984c
p1859
I1914
sV\u4ea4\u969b
p1860
I1915
sV\u4e95\u4e0a
p1861
I1916
sV\u4e00\u89a7
p1862
I1917
sV\u76f4\u63a5
p1863
I1918
sV\u5236\u4f5c
p1864
I1919
sV\u76e3\u8996
p1865
I1673
sV\u6050\u308c
p1866
I1921
sV\u518d\u4f1a
p1867
I1922
sV\u5468\u8fba
p1868
I1923
sV\u6e1b\u5c11
p1869
I1924
sV\u9700\u8981
p1870
I1925
sV\u8b70\u8ad6
p1871
I1926
sV\u30d5\u30a9\u30ed\u30fc
p1872
I3586
sV\u8907\u96d1
p1873
I1927
sV\u30c7\u30b8\u30bf\u30eb
p1874
I1928
sV\u5e38\u9023
p1875
I1929
sV\u6975\u4e0a
p1876
I2793
sV\uff0d
p1877
I1931
sV\u5f8c\u8f29
p1878
I1209
sV\u30b3\u30f3\u30c6\u30f3\u30c4
p1879
I1745
sV\u65e6\u90a3
p1880
I1936
sV\u6551\u6025
p1881
I1937
sV\u533b\u85ac\u54c1
p1882
I1938
sV\u5618
p1883
I2794
sV\u4e21\u65b9
p1884
I1940
sV\u751f\u7406
p1885
I1780
sV\u626e
p1886
I1942
sV\u671d
p1887
I1943
sV\u4fa1\u683c
p1888
I1304
sV\u5c45\u9152\u5c4b
p1889
I1945
sV\u8981\u56e0
p1890
I1946
sV\u9ad8\u6e29
p1891
I1947
sV\u30d5\u30a1\u30fc
p1892
I1049
sV\u53f3\u8db3
p1893
I1949
sV\u30d5\u30a1\u30f3
p1894
I1132
sV\u77ed\u7e2e
p1895
I1952
sV\u4eac
p1896
I1953
sV\u7d05\u767d
p1897
I1865
sV\u8033
p1898
I1955
sV\u5206\u89e3
p1899
I3620
sV\u5b66\u8005
p1900
I1957
sV\u30c0\u30a4\u30b8\u30a7\u30b9\u30c8
p1901
I1958
sV\u8b0e
p1902
I4681
sV\u30c9\u30a2
p1903
I1734
sV\u30b8\u30e0
p1904
I4464
sV\u30bf\u30a4\u30e4
p1905
I2013
sV\u6d41
p1906
I1962
sV24
p1907
I2800
sV\u6843
p1908
I1932
sV\u5148\u751f
p1909
I1966
sV\u5546\u5e97
p1910
I1967
sV\uff16\u6708
p1911
I1968
sV\u5c4b
p1912
I1969
sVjp
p1913
I1971
sV26
p1914
I2802
sVjr
p1915
I1973
sV\u9003\u4ea1
p1916
I1508
sV\u524d\u5e74
p1917
I1975
sV\u3053
p1918
I360
sV\u8cb4\u91cd
p1919
I1977
sV\u9053\u8def
p1920
I1978
sV\u8c4a\u6d32
p1921
I4577
sV\u69d8
p1922
I2941
sV\u306a\u306b
p1923
I1980
sV\u793e\u54e1
p1924
I1981
sV\u5e73\u5747
p1925
I1983
sV\u53f0\u98a8
p1926
I3625
sV\u6bce\u6708
p1927
I1985
sV\u7551
p1928
I1974
sV\u751f\u547d
p1929
I1986
sVz
p1930
I3429
sV\u4e8b\u60c5
p1931
I1988
sV\u5de5\u4e8b
p1932
I1989
sV\u8272\u3005
p1933
I2304
sV\u90e8
p1934
I1991
sV\u30c9\u30f3
p1935
I1992
sV\u30af\u30e9\u30d5\u30c8
p1936
I2807
sV\u9053
p1937
I1686
sV\u6a5f\u68b0
p1938
I1995
sV\u30d1\u30ef\u30d5\u30eb
p1939
I3854
sV\u90e8\u5c4b
p1940
I1996
sVs
p1941
I1997
sV\u904e\u53bb
p1942
I1998
sV\u6bce\u671d
p1943
I1999
sV\u30b7\u30e7\u30f3
p1944
I2000
sV\u306a\u304b
p1945
I2001
sV\u610f\u7fa9
p1946
I3680
sV\u30b7\u30e7\u30fc
p1947
I2002
sV\u5bb9\u6613
p1948
I2003
sV\u5bfa
p1949
I2004
sV\u6c34\u9762
p1950
I2005
sV\u5275\u4fa1\u5927
p1951
I3670
sV\u30af\u30ea\u30fc\u30e0
p1952
I2006
sV\u540c\u6027
p1953
I392
sV\u91cd\u5927
p1954
I2008
sV\u64cd\u7e26
p1955
I2009
sV\u6b04
p1956
I4249
sV\u98f2\u9152
p1957
I2011
sV\u8089
p1958
I2012
sV\u672d\u5e4c
p1959
I537
sV\u8a00\u52d5
p1960
I2014
sV\u5b8f
p1961
I2015
sV\u5c0f\u6c60
p1962
I2016
sV60
p1963
I2017
sV61
p1964
I2018
sV62
p1965
I2019
sV63
p1966
I2020
sV64
p1967
I2021
sV3000
p1968
I2022
sV\u6301\u3061\u5473
p1969
I2023
sV67
p1970
I2024
sV\u904e\u5270
p1971
I2025
sV69
p1972
I2026
sV\u871c
p1973
I2029
sV\u53ce\u5165
p1974
I2868
sV\u7d20
p1975
I2031
sV\u8868\u8a18
p1976
I2032
sV\u58f0\u63f4
p1977
I2033
sV\u901a\u52e4
p1978
I2034
sV\u524d\u5f8c
p1979
I2035
sV\u30b7\u30e3\u30c4
p1980
I4777
sV\u722a
p1981
I2037
sV\u307e\u308d\u3084\u304b
p1982
I4739
sV\u52dd\u3061
p1983
I2040
sV\u4eba\u9593
p1984
I4584
sV\u90e8\u9577
p1985
I2042
sV\u4ee3\u308f\u308a
p1986
I2043
sV\u773c
p1987
I2044
sV500
p1988
I2045
sV\u65e5\u66dc\u65e5
p1989
I2046
sV\u304a\u51fa\u304b\u3051
p1990
I2047
sV\u30a2\u30a6\u30c8
p1991
I3638
sV\u30b7
p1992
I2050
sV\u62e1\u5927
p1993
I2051
sV\u30b4\u30fc\u30eb
p1994
I2052
sV\u5b9f\u5728
p1995
I2054
sV\u30eb\u30f4\u30a1\u30f3
p1996
I2055
sV\u793e\u9577
p1997
I2056
sV\u7d4c\u55b6
p1998
I2057
sV\u7389\u306d\u304e
p1999
I4133
sV\u5b9f\u884c
p2000
I2058
sV\u8ca0\u50b7
p2001
I1661
sV\u30e2\u30a2\u30cf\u30d4
p2002
I2060
sV\u30af\u30ed\u30b9
p2003
I2061
sV40
p2004
I4946
sV\u4e0a\u54c1
p2005
I2062
sV\u9577\u6642\u9593
p2006
I2064
sV\u7d76\u8cdb
p2007
I2066
sV\u5438\u53ce
p2008
I2067
sV\u5e97\u54e1
p2009
I4480
sV\u898b\u4e8b
p2010
I2069
sV\u30ea\u30fc\u30c0\u30fc
p2011
I2070
sV\u878d\u5408
p2012
I2071
sV\u30ad\u30fc\u30dc\u30fc\u30c9
p2013
I2822
sV\u6570
p2014
I2073
sV\u540d\u5e97
p2015
I121
sV\u7406\u89e3
p2016
I2075
sV\u3044\u3063\u3071\u3044
p2017
I2076
sV\u56fd\u738b
p2018
I2823
sV\u30d9\u30c6\u30e9\u30f3
p2019
I2680
sV\u7167\u660e
p2020
I2078
sV\u5f3e
p2021
I1447
sV\u56fd
p2022
I2080
sV\u3084\u3064
p2023
I4483
sV\u30b1\u30fc\u30d6\u30eb
p2024
I2082
sV\u6c17\u5206
p2025
I2084
sV\u5229\u4e0a\u3052
p2026
I2085
sV\u8abf\u67fb
p2027
I2086
sV\u6982\u8981
p2028
I2652
sV\u5fc5\u898b
p2029
I2088
sV\u30aa\u30fc\u30d6\u30f3
p2030
I2089
sV\u4e00\u76ee
p2031
I2090
sV\u30b7\u30ef
p2032
I4298
sV\u30a2\u30f3
p2033
I2092
sV\u5fc5\u8981
p2034
I2093
sV\u5f8c
p2035
I2094
sV\u304a\u795d\u3044
p2036
I2095
sV\u635c\u67fb
p2037
I1994
sV\u539f\u4f5c
p2038
I2828
sV\u6a5f\u69cb
p2039
I2098
sV\u307f\u3058\u3093\u5207\u308a
p2040
I2099
sV\u5348\u524d
p2041
I948
sV\u8feb\u529b
p2042
I2101
sV\u77ac\u6642
p2043
I2102
sV\u6905\u5b50
p2044
I2103
sV\uff5e\uff01\u300d
p2045
I2104
sV\u30ab\u30ca\u30c0
p2046
I2106
sV\u5927\u8f14
p2047
I2107
sV\u56fd\u6c11
p2048
I2108
sV\u5ba4
p2049
I2109
sV\u5c55\u671b
p2050
I2110
sV\u524d\u5411\u304d
p2051
I4660
sV\u4e2d\u83ef
p2052
I2111
sV\u5927\u4f1a
p2053
I2113
sV\u6383\u9664
p2054
I2114
sV\u304b\u308f\u308a
p2055
I4346
sV\u30b7\u30e7\u30b3\u30e9
p2056
I2115
sVhtml
p2057
I2116
sV\u5f37
p2058
I2118
sV\u516c\u5f0f
p2059
I2833
sV\u9996\u76f8
p2060
I2120
sV\u5375
p2061
I2434
sV\u753b
p2062
I2122
sV\u751f\u7523
p2063
I2124
sV\u4e2d\u5c0f
p2064
I2834
sVcs
p2065
I4516
sV\u7530\u4e2d
p2066
I2126
sV\u6c41
p2067
I2127
sV\u5b89\u5b9a
p2068
I2128
sV\u5065\u5728
p2069
I2130
sV\u8a00\u53ca
p2070
I2131
sV\u8077\u696d
p2071
I2132
sV8000
p2072
I4978
sV\u30aa\u30fc\u30c8
p2073
I2134
sV\u958b\u8a2d
p2074
I2135
sV\u30ad\u30c3\u30ab\u30fc
p2075
I2836
sV\u4e88\u544a
p2076
I2137
sV\u5230\u7740
p2077
I2138
sV\u677e\u672c
p2078
I2139
sV\u672c\u5f53
p2079
I2140
sV\u5373\u4f4d
p2080
I2141
sV\u7d4c\u7531
p2081
I2142
sV\u3042\u306a\u305f
p2082
I2143
sV\u6765\u5834
p2083
I2144
sV\u5b9f\u88c5
p2084
I2145
sV\u674e
p2085
I2838
sV\u5e83\u5831
p2086
I2148
sV\u91ce\u7403
p2087
I2149
sV\u30b5\u30e9\u30ea\u30fc\u30de\u30f3
p2088
I2151
sV\u5927\u4f53
p2089
I2152
sV\u4e8b\u6545
p2090
I3661
sV\u30a4\u30bf\u30ea\u30a2\u30f3
p2091
I2154
sV\u8584\u5207\u308a
p2092
I2994
sV\u5ea6
p2093
I1979
sV\u30d6\u30e9\u30c3\u30af
p2094
I2157
sV\u6b6f
p2095
I2158
sV\u68ee
p2096
I2159
sV\u7656
p2097
I3599
sV\u3059\u3079\u3066
p2098
I2160
sV\u56fd\u7523
p2099
I4263
sV\u6b53\u8fce
p2100
I2162
sV\u624b\u6cd5
p2101
I2163
sV\u7dcf\u7406
p2102
I322
sV\u6599\u7406
p2103
I1934
sV\u4eca\u6625
p2104
I1046
sV\u6b21\u56de
p2105
I2166
sV\u767d
p2106
I2167
sV\u30d1\u30bf\u30fc\u30f3
p2107
I1497
sVgdp
p2108
I2169
sV\u4e00
p2109
I2170
sV\u30e1\u30f3\u30bf\u30eb
p2110
I2171
sV\u72af\u884c
p2111
I2172
sV77
p2112
I2920
sV\u6c11\u4e3b\u515a
p2113
I2007
sV\u8208
p2114
I2175
sV\u6bce\u65e5
p2115
I2177
sV\u968f\u6642
p2116
I2178
sV\u5fae\u5999
p2117
I2179
sV\u5e97\u540d
p2118
I4341
sV\u304a\u6bcd\u3055\u3093
p2119
I2180
sV\u81ea\u6c11\u515a
p2120
I2181
sV\u6b4c\u58f0
p2121
I2182
sVtouch
p2122
I2183
sV\u6e7f\u5ea6
p2123
I2184
sV\u51fa\u4f1a\u3044
p2124
I2185
sV\u30d1\u30f3\u30c4
p2125
I2956
sV\u5fdc\u63f4
p2126
I3126
sV\u7cbe\u5ea6
p2127
I2186
sV\u904e\u9177
p2128
I943
sV\u6176\u61c9\u7fa9\u587e
p2129
I2188
sV\u544a\u767d
p2130
I2189
sV\u663c\u9593
p2131
I2191
sV\u30aa\u30e9\u30f3\u30c0
p2132
I2192
sVny
p2133
I2193
sV\u30ad\u30ed
p2134
I2194
sV\u5168\u3066
p2135
I2195
sV\u8eab
p2136
I2196
sV\u30b9\u30a6\u30a7\u30fc\u30c7\u30f3
p2137
I2197
sV\u304a\u8a71
p2138
I3040
sVblog
p2139
I2199
sV\u56f0\u96e3
p2140
I2200
sV\u30c1\u30fc\u30e0
p2141
I2202
sV\u304a\u306a\u3058\u307f
p2142
I2204
sV\u30ad\u30fc
p2143
I2206
sV(@
p2144
I2207
sV\u6d66\u548c\u30ec\u30c3\u30ba
p2145
I2208
sV\u9632\u5fa1
p2146
I3261
sV\u304a\u663c
p2147
I2210
sV\u520a
p2148
I4507
sV\u30b8\u30a7\u30c3\u30c8
p2149
I2212
sV\u30d9\u30fc\u30b3\u30f3
p2150
I1005
sV\u5168\u7c73
p2151
I2214
sV\u6642\u8a08
p2152
I2215
sV\u30de\u30c3\u30b7\u30e5\u30eb\u30fc\u30e0
p2153
I4704
sV\u99d0\u8eca
p2154
I3673
sV\u89d2\u5ea6
p2155
I2218
sV\u5206\u306e
p2156
I4022
sV\u9054
p2157
I2219
sV\u8da3\u5473
p2158
I2220
sVworld
p2159
I2221
sV\u30d0\u30c3\u30c6\u30ea\u30fc
p2160
I2222
sV\u7740\u5b9f
p2161
I2223
sV\u3068\u304a\u308a
p2162
I2224
sV\u4f1a\u9577
p2163
I2226
sV\u9023\u5408
p2164
I2227
sV\u30d0\u30ca\u30ca
p2165
I2228
sV\u95a2\u4e0e
p2166
I44
sV\u5b66
p2167
I2230
sV\u4e0d\u5b89
p2168
I2231
sV\u4f5c\u5bb6
p2169
I4299
sV\u9055\u6cd5
p2170
I2232
sV\u30a4\u30f3\u30b9\u30bf\u30b0\u30e9\u30e0
p2171
I3936
sV\u7d30\u3084\u304b
p2172
I2233
sV\u4f53\u5185
p2173
I2234
sV\u88c1\u5224\u6240
p2174
I2235
sV\u9577\u91ce
p2175
I2236
sV\u30b9\u30ab\u30fc\u30c8
p2176
I2237
sV\u591a\u69d8
p2177
I4513
sV2500
p2178
I2239
sV\u30ad\u30b9
p2179
I2240
sV\u9023\u52d5
p2180
I2241
sV65
p2181
I2242
sV\u5927\u8c37
p2182
I2243
sV\u30cf\u30fc\u30c9\u30eb
p2183
I2244
sV\u30e1\u30e2
p2184
I2246
sV66
p2185
I3081
sV\u5343
p2186
I3677
sV\u6765\u5b63
p2187
I2249
sV68
p2188
I2251
sV\u30b7\u30b9\u30c6\u30e0
p2189
I399
sV\u3068\u3082
p2190
I4954
sV\u672c\u90e8
p2191
I788
sV\u6c17
p2192
I2254
sV\u30d3\u30b8\u30cd\u30b9
p2193
I2255
sVid
p2194
I2036
sV\u30ec\u30b9\u30dd\u30f3\u30b9
p2195
I2258
sVbluetooth
p2196
I4122
sV\u30ea\u30a2
p2197
I2259
sV\u5927\u6c17
p2198
I2261
sV\u30e9\u30a6\u30f3\u30c9
p2199
I2262
sV\u30d1\u30b9\u30bf
p2200
I2263
sV\u96fb\u6e90
p2201
I2264
sV\u4e3b\u5f35
p2202
I2266
sV\u5927\u5909
p2203
I4297
sV\u6771\u5357\u30a2\u30b8\u30a2
p2204
I2265
sV\u7403\u56e3
p2205
I2268
sV\u7d76\u5927
p2206
I3242
sV\u65b0\u5bbf
p2207
I274
sV\u4e89\u3044
p2208
I2273
sV\uff13\u6708
p2209
I2857
sV\u7db2
p2210
I3499
sV\u9234\u6728
p2211
I2275
sV\u98df\u5668
p2212
I1081
sV\uff30\uff2b
p2213
I2277
sV\u65b0\u9bae
p2214
I2278
sV\u96d1\u8a8c
p2215
I574
sV\u5175\u5668
p2216
I2858
sV\u6751\u5c71
p2217
I2282
sV\u8a18\u4e8b
p2218
I133
sV\u9031\u9593
p2219
I2284
sV\u5c0f\u5b66\u6821
p2220
I2285
sV\u30ab\u30b9\u30bf\u30e0
p2221
I4524
sV\u8cb7\u3044\u7269
p2222
I2288
sV\u6c17\u914d
p2223
I2289
sV\u304d\u306e\u3053
p2224
I2290
sV\u30b9\u30bf\u30fc\u30c8
p2225
I2291
sV\u55b6\u696d
p2226
I2292
sV\u300d(
p2227
I2293
sV\u30b9\u30da\u30a4\u30f3
p2228
I2294
sV\u5165\u793e
p2229
I2295
sV\u5bfe\u8c61
p2230
I4351
sV\u306f\u305a
p2231
I2296
sV\u6c57
p2232
I2297
sV\u5b50\u732b
p2233
I2298
sV\u4fdd\u969c
p2234
I3194
sV_
p2235
I2299
sV\u30af\u30e9
p2236
I4439
sV\u6709\u5409
p2237
I405
sV\u591a\u7a2e
p2238
I2301
sVok
p2239
I2302
sV\u4f4e\u3081
p2240
I1970
sV\u8db3
p2241
I1107
sV\u30e6\u30fc\u30b6\u30fc
p2242
I2306
sV\u6c17\u6301\u3061
p2243
I2308
sV\u6771
p2244
I2309
sV
p2245
I4526
sV\u5e02\u9577
p2246
I2311
sV\u596e\u95d8
p2247
I3880
sV\u610f\u8b58
p2248
I714
sV\u96fb\u8eca
p2249
I2314
sV\u30de\u30a4
p2250
I4629
sVos
p2251
I2315
sVor
p2252
I2316
sV\u30dc\u30a6\u30eb
p2253
I2317
sV\u770c\u5185
p2254
I4280
sV\uff19\u6708
p2255
I2318
sV\u3057\u3087\u3046\u3086
p2256
I2319
sV\u30d5\u30ec\u30c3\u30b7\u30e5
p2257
I2053
sV\u30c1\u30e3\u30f3\u30b9
p2258
I2321
sV\u6557
p2259
I2322
sV\u30dc\u30ea\u30e5\u30fc\u30e0
p2260
I342
sV\u767b\u9332
p2261
I2862
sV\u6a5f\u5668
p2262
I2325
sVimage
p2263
I2326
sV\u5e8f\u76e4
p2264
I422
sV\u5224\u660e
p2265
I4239
sV\u8aa4\u89e3
p2266
I2328
sV\u798f
p2267
I2329
sV\u7a0e
p2268
I2330
sV\u653b\u52e2
p2269
I2331
sV\u96e2\u8131
p2270
I2333
sV\u4e16
p2271
I1776
sV\u7a93\u53e3
p2272
I2335
sV\u8a55\u4fa1
p2273
I2337
sV\u306f\u308b\u304b
p2274
I2338
sV\u821e
p2275
I2339
sV\u7279\u6709
p2276
I2340
sV\u30c1\u30e3\u30f3\u30d4\u30aa\u30f3\u30ba
p2277
I1336
sV\u5b9f\u8a3c
p2278
I2342
sV\u30b0\u30e9\u30e0
p2279
I3358
sV\u5c31\u8077
p2280
I2344
sV\u9aea\u306e\u6bdb
p2281
I2345
sV\u91b8\u9020
p2282
I4841
sV\uff11\u6708
p2283
I4832
sV!\u300d
p2284
I2347
sV!\u300f
p2285
I2348
sV\u30dc\u30b9
p2286
I2349
sV\u30e9\u30f3\u30ad\u30f3\u30b0
p2287
I2350
sV\u6587\u53e5
p2288
I2351
sV\u30e9\u30f3\u30af
p2289
I2352
sV\u77e5\u8b58
p2290
I2353
sV\u5916\u76f8
p2291
I2354
sV\u63d0\u6848
p2292
I2356
sV\u4e0d\u53ef\u6b20
p2293
I2357
sV\u5916\u56fd
p2294
I2358
sV\u30b9\u30bf\u30f3\u30d7
p2295
I2359
sV\u30dc\u30d6
p2296
I2360
sV\u4f5c\u308a\u65b9
p2297
I3696
sV750
p2298
I2362
sV\u30aa\u30fc\u30d7\u30f3
p2299
I2363
sV\u901a\u308a
p2300
I2364
sV\u30a8\u30b3
p2301
I2365
sV\u7d4c
p2302
I2366
sV\u6df1\u591c
p2303
I2367
sV\u30d3\u30eb
p2304
I2368
sV\u30e9\u30f3\u30c9
p2305
I2369
sV\u30a4\u30e9\u30af
p2306
I3698
sV\u50d5
p2307
I2370
sV\u571f
p2308
I3970
sV\u5927\u80c6
p2309
I2267
sV\u539f\u5247
p2310
I2372
sV\u30e9\u30f3\u30c1
p2311
I2373
sV\u30b9\u30e9\u30a4\u30b9
p2312
I2374
sV\u697d\u3057\u307f
p2313
I2375
sV\u5206\u91ce
p2314
I2313
sV\u5206\u91cf
p2315
I1885
sV\u5831\u9053\u9663
p2316
I1034
sV\u7b11
p2317
I2379
sV\u969c\u5bb3
p2318
I2380
sV\u672c\u5841\u6253
p2319
I4219
sV\u624d\u80fd
p2320
I2381
sV\u30de\u30fc\u30b1\u30c6\u30a3\u30f3\u30b0
p2321
I4540
sV\u89e3\u7981
p2322
I2383
sV\u30b3\u30b9\u30c8
p2323
I539
sV\u3082\u3068
p2324
I4345
sV\u5e97\u9577
p2325
I4579
sV\u4f9b\u7d66
p2326
I2388
sV\u5fc5\u6b7b
p2327
I2389
sV\u5411\u4e0a
p2328
I915
sV\u7af9
p2329
I2390
sV\u3053\u307c\u308c
p2330
I4499
sV\u52dd\u5229
p2331
I2392
sV\u9ad8\u901f
p2332
I1879
sV\u7f8e\u8853\u9928
p2333
I2394
sV\u5fa9\u6d3b
p2334
I1490
sV600
p2335
I2396
sV\u822a\u7a7a
p2336
I2397
sV\u30ec\u30b9\u30c8\u30e9\u30f3
p2337
I2399
sV\u6027\u683c
p2338
I2400
sV1200
p2339
I2401
sV\u590f
p2340
I2402
sV\u6539\u5584
p2341
I2403
sV\u30af\u30de
p2342
I4427
sV\u4f01\u696d
p2343
I4340
sV\u8fd1\u96a3
p2344
I2404
sV\u683c\u5225
p2345
I2405
sVau
p2346
I2406
sVat
p2347
I2407
sV\u8ab0\u304b
p2348
I4044
sV\u3082\u3093
p2349
I2409
sV\u30c0\u30fc\u30af
p2350
I2410
sV\u4f5c\u308a
p2351
I2411
sV\u30de\u30fc\u30af
p2352
I86
sV\u5148\u767a
p2353
I2415
sVsoccer
p2354
I2821
sV\u5bfe\u5fdc
p2355
I2416
sV\u30b7\u30f3\u30ac\u30dd\u30fc\u30eb
p2356
I2417
sV\u30d6\u30ec\u30f3\u30c9
p2357
I2418
sV\u30c9\u30e9\u30a4
p2358
I2419
sV\u30c9\u30ad\u30c9\u30ad
p2359
I645
sV\u30e2\u30fc\u30bf\u30fc
p2360
I409
sV\u30ca\u30c1\u30e5\u30e9\u30eb
p2361
I2422
sV\u751f\u5730
p2362
I4688
sV\u982d\u90e8
p2363
I4927
sV\u30af\u30ea\u30fc\u30df\u30fc
p2364
I2425
sV\u30cd\u30c3\u30c8\u30ef\u30fc\u30af
p2365
I2426
sV\u5fc5\u6bba
p2366
I2427
sV\u91cd\u5b9d
p2367
I2428
sV\u6307\u63ee
p2368
I2429
sVyou
p2369
I2430
sV\u4e00\u65b9
p2370
I2431
sV\u90fd\u5408
p2371
I2432
sV\uff15\u6708
p2372
I3714
sV\u30ab\u30a6\u30f3\u30c8
p2373
I3526
sV\u6fc0
p2374
I644
sV\u30b8\u30e3\u30e0
p2375
I2435
sV\u80cc\u4e2d
p2376
I2436
sV\u4f53\u91cd
p2377
I2437
sV\u6249
p2378
I1184
sV\u682a
p2379
I3575
sV\u5317\u90e8
p2380
I3786
sV\u8db3\u9996
p2381
I2442
sV\u9589\u9396
p2382
I2443
sV\u30e2\u30d0\u30a4\u30eb
p2383
I2444
sV\u30b8\u30e3\u30f3
p2384
I2445
sV\u30ea\u30b5\u30fc\u30c1
p2385
I2446
sV\u5468\u5e74
p2386
I4551
sV\u5fd7\u5411
p2387
I2448
sV\u4ed6
p2388
I986
sV\u5165\u5834
p2389
I2450
sV\u3069\u304a\u308a
p2390
I704
sV\u30b1\u30eb\u30f3
p2391
I2452
sV13
p2392
I2343
sV\u624b\u8efd
p2393
I2454
sV\u30b9\u30c6\u30c3\u30d7
p2394
I2455
sV\u7af6\u6280
p2395
I2456
sV\u5fe0
p2396
I2457
sV\u5b63
p2397
I2458
sV\u5287\u5834
p2398
I2459
sV\u4e0a\u9678
p2399
I2460
sV\u81ea\u899a
p2400
I4053
sV\u65b9\u5f0f
p2401
I2462
sV\u898f\u5b9a
p2402
I112
sV\u7269
p2403
I2464
sV\u53cd\u767a
p2404
I3779
sV\u4ed6\u56fd
p2405
I2468
sV\u662f\u975e
p2406
I2469
sV\u660e\u8a00
p2407
I2885
sV\u7652
p2408
I2471
sVu
p2409
I2472
sV\u30a2\u30df\u30e5\u30fc\u30ba\u30e1\u30f3\u30c8
p2410
I2473
sV\u547d
p2411
I2477
sVcpu
p2412
I2478
sV\u65e5\u9593
p2413
I2479
sVbmw
p2414
I2059
sV\u6587\u5b66
p2415
I2482
sVall
p2416
I10
sV\u9078\u624b\u6a29
p2417
I2484
sV\u4fee\u884c
p2418
I2485
sV\u7a2e\u985e
p2419
I4558
sV\u6539\u826f
p2420
I2487
sV\u962a\u795e
p2421
I2488
sV\u5fc3\u5883
p2422
I31
sV\u3086\u3048
p2423
I4682
sV\u3042\u3068
p2424
I4697
sV\u30ea\u30fc\u30c9
p2425
I2493
sV\u820c
p2426
I2494
sV\u7acb\u5019\u88dc
p2427
I3048
sV\u60f3\u3044
p2428
I2495
sV\u5408\u8a08
p2429
I2496
sV\u30ce\u30fc
p2430
I2498
sV\u30da\u30a2
p2431
I410
sV\u5168\u822c
p2432
I2500
sV\u6761\u4ef6
p2433
I2501
sV\u5192\u982d
p2434
I2502
sV\u652f\u63f4
p2435
I3582
sV\u5e73\u6210
p2436
I3958
sV\u91a4\u6cb9
p2437
I2504
sV\u30ec\u30c3\u30c9
p2438
I110
sV\u3084\u308b\u6c17
p2439
I2507
sV\u5927\u3052\u3055
p2440
I124
sV\u7cfb\u5217
p2441
I2509
sV\u304d\u3087\u3046
p2442
I2510
sV\u6d77\u5916
p2443
I2891
sVtv
p2444
I2512
sV\u7bc9\u5730
p2445
I2513
sV\u5e97\u982d
p2446
I2514
sV\u8f2a
p2447
I2515
sV\u4e00\u7a2e
p2448
I2516
sV\u304a\u62ab\u9732\u76ee
p2449
I157
sV\u4fe1\u983c
p2450
I2518
sV\u56fd\u5185
p2451
I2519
sVto
p2452
I2520
sV\u4e2d\u5cf6
p2453
I2893
sV\u5acc\u3044
p2454
I4943
sV\u5b9f\u7528
p2455
I2522
sV\u65b9
p2456
I196
sV\u888b
p2457
I3733
sV\u6d3e
p2458
I2524
sV\u4f4e\u6e29
p2459
I2525
sV\u30c9\u30e9\u30a4\u30d6
p2460
I3798
sV\u8fd4\u4fe1
p2461
I4607
sV\u30bb\u30d6\u30f3
p2462
I2526
sV\u8077\u54e1
p2463
I605
sV\u95a2\u9023
p2464
I589
sV\u81ea\u52d5\u8eca
p2465
I2529
sV\u30d7\u30ec\u30bc\u30f3\u30c8
p2466
I4371
sV\u9ad8\u6821
p2467
I2530
sV\u5916\u898b
p2468
I2531
sV\u73fe\u5834
p2469
I276
sV\u4ed5\u7d44\u307f
p2470
I2533
sV\u82b8\u80fd
p2471
I2030
sV\u30d0\u30b9\u30c8
p2472
I2535
sV\u76f4\u5f8c
p2473
I2536
sV\u30c8\u30e9\u30c3\u30d7
p2474
I4567
sV\u7279\u6027
p2475
I1235
sV\u30aa\u30d0\u30de
p2476
I320
sV\u8868\u9762
p2477
I2540
sV\u6307\u5c0e
p2478
I2541
sV\u795d\u798f
p2479
I329
sV\u30d3\u30c3\u30b0
p2480
I341
sV\u4e0b\u843d
p2481
I2544
sV\u4f4e\u4e0b
p2482
I2546
sV\u4e8c\u5841\u6253
p2483
I4960
sV\u691c\u8a0e
p2484
I2547
sV\u90e8\u5206
p2485
I2548
sV\u30ef\u30b7\u30f3\u30c8\u30f3
p2486
I2549
sV\u73ed
p2487
I2550
sV\u5dee\u5225
p2488
I394
sV\u30e1\u30cb\u30e5\u30fc
p2489
I2552
sV\u5730\u65b9
p2490
I1874
sV\u4eca\u5bae
p2491
I2554
sV\u4f4e\u6e1b
p2492
I2503
sV\u5ff5
p2493
I413
sV\u6f14\u6280
p2494
I2286
sV\u6e96\u6c7a\u52dd
p2495
I2558
sV\u6176
p2496
I2559
sV\u3076\u308a
p2497
I4574
sV\u30ad\u30ce\u30b3
p2498
I2305
sV\u5341
p2499
I2899
sV\u7403
p2500
I467
sV\u6607\u683c
p2501
I4575
sVtel
p2502
I2564
sVinstagram
p2503
I2565
sV\u4e8b\u696d
p2504
I4270
sV\u9a5a\u304d
p2505
I2566
sV\u9650\u308a
p2506
I2567
sV\u8981\u8acb
p2507
I2568
sV\u7acb\u5730
p2508
I117
sV\u4e94
p2509
I2573
sV\u5217
p2510
I2574
sV\u30dc\u30c7\u30a3
p2511
I2590
sV\u666f\u6c17
p2512
I2576
sV\u518d\u73fe
p2513
I2577
sV\u8996\u5bdf
p2514
I2578
sV\u6a2a\u6d5c
p2515
I2579
sV\u6d17\u6fef
p2516
I2580
sV\u5965\u884c\u304d
p2517
I3378
sV\u4f1a
p2518
I2581
sV\u5727\u5012
p2519
I2582
sV\u5b9f\u7269
p2520
I3622
sV\u5897\u52a0
p2521
I597
sV\u904e\u6fc0
p2522
I2584
sV)(
p2523
I4735
sV\u72ac
p2524
I621
sV\u4ee5\u524d
p2525
I4523
sV\u5927\u5207
p2526
I2586
sV\u5927\u5206
p2527
I2587
sV\u6700\u65b0
p2528
I2588
sV\u6b7b\u8005
p2529
I2591
sV\u81ea\u5b85
p2530
I2593
sV\u8aad\u307f
p2531
I2594
sV\u305d\u306e\u4ed6
p2532
I2595
sV\u52e2\u529b
p2533
I2596
sV\u30d6\u30e9\u30a6\u30f3
p2534
I2597
sV\u7fd4
p2535
I1681
sV\u6b27\u7c73
p2536
I2599
sV\u30a6\u30c9
p2537
I2601
sV\u604b
p2538
I745
sV\u30bb\u30ad\u30e5\u30ea\u30c6\u30a3
p2539
I2123
sV\u4eba\u5f62
p2540
I2604
sV\u30a6\u30bd
p2541
I2605
sV\u753b\u7d20
p2542
I590
sV\u4f55
p2543
I2608
sV\u6e96\u5099
p2544
I2609
sV\u53ce\u9332
p2545
I2610
sV\u57ce
p2546
I2063
sV\u5dde
p2547
I2612
sV\u30aa\u30b9\u30b9\u30e1
p2548
I2613
sV900
p2549
I2614
sV\u7a7a
p2550
I2079
sV\u89e3\u660e
p2551
I2616
sV14
p2552
I2617
sV\u5931\u70b9
p2553
I854
sV\u9178\u5316
p2554
I2474
sV\u706b
p2555
I2621
sV\u5f8c\u534a
p2556
I2623
sV\u72ec
p2557
I2624
sV\u58f0
p2558
I2625
sV\u7c73
p2559
I2626
sV\u30b9\u30ab\u30a6\u30c8
p2560
I2627
sV)\u25cf
p2561
I2628
sV\u756a\u7d44
p2562
I2630
sV\u30ad\u30fc\u30ef\u30fc\u30c9
p2563
I4631
sV\u30b0\u30ed\u30fc\u30d0\u30eb
p2564
I2631
sV240
p2565
I2632
sV\u3081
p2566
I1933
sV\u62e1\u6563
p2567
I939
sVvia
p2568
I2635
sVmc
p2569
I1286
sV\u9806
p2570
I2636
sV\u7c89
p2571
I2637
sV\u30ce\u30fc\u30c8
p2572
I2638
sV\u3054\u5b58\u77e5
p2573
I2639
sV\u30a4\u30f3\u30c9
p2574
I581
sV\u5c4a\u3051
p2575
I2641
sV\u544a\u77e5
p2576
I4816
sV\u6a29\u5229
p2577
I2643
sV\u7a76\u6975
p2578
I3320
sV\u5224\u6c7a
p2579
I2645
sV\u6c7a\u6e08
p2580
I2646
sV\u51fa\u767a
p2581
I1392
sV\u30c7\u30a3\u30b9\u30d7\u30ec\u30a4
p2582
I2648
sV\u672a\u77e5
p2583
I2649
sV\u54c1\u7a2e
p2584
I2650
sVwith
p2585
I4359
sV\u5358\u7d14
p2586
I1041
sV\u30de\u30c3\u30d7
p2587
I1044
sV\u8a08\u753b
p2588
I2653
sV\u30df\u30c3\u30af\u30b9
p2589
I2654
sV\u30b7\u30e7\u30c3\u30af
p2590
I2655
sV\u4fee\u696d
p2591
I2656
sV\u8a2d\u5099
p2592
I2909
sV\u5f79\u8005
p2593
I2658
sV\u56db\u56fd
p2594
I2659
sV\u8abf\u5b50
p2595
I1099
sV\u30b7\u30c1\u30e5\u30a8\u30fc\u30b7\u30e7\u30f3
p2596
I2662
sV\u9ad8\u6027\u80fd
p2597
I1111
sV6
p2598
I2664
sV\u30b3\u30fc\u30ae\u30fc
p2599
I2665
sV\u5185\u5c71
p2600
I1138
sV\u6307\u91dd
p2601
I4593
sV\u4fbf
p2602
I2668
sVmore
p2603
I2669
sV\u30c6\u30ad\u30b9\u30c8
p2604
I2670
sV\u30b7\u30e7\u30c3\u30c8
p2605
I2671
sV\u9b5a\u4ecb
p2606
I2672
sV\u30af\u30ea\u30c3\u30af
p2607
I2674
sV\u6db2\u6676
p2608
I1520
sV\u5f53\u9762
p2609
I2678
sV\u30b7\u30e7\u30c3\u30d7
p2610
I2679
sV\u30bb
p2611
I2644
sV\u6c7a\u5b9a\u7684
p2612
I2681
sV\u4eee\u8a2d
p2613
I2683
sV\u7269\u8a9e
p2614
I2684
sV\u3053\u3053
p2615
I2685
sV\u6b27\u5dde
p2616
I2686
sV\u6559\u5ba4
p2617
I2687
sVpr
p2618
I4793
sV\u8cbb\u7528
p2619
I4555
sV\u9905
p2620
I2688
sV\u76f4\u524d
p2621
I2689
sV\u30d7\u30e9\u30f3
p2622
I3257
sV\u76bf
p2623
I1267
sVv
p2624
I2692
sV\u524d\u83dc
p2625
I1353
sV\u6c17\u8efd
p2626
I2694
sV\u667a
p2627
I1361
sV17
p2628
I2696
sV\u6bd4\u8f03
p2629
I2697
sV\u6c0f
p2630
I4121
sV\u79fb\u884c
p2631
I2698
sV\u30c7\u30a3\u30ca\u30fc
p2632
I2699
sV\u7fcc\u65e5
p2633
I2700
sV\u80b2\u6210
p2634
I2701
sV!!\u3000
p2635
I2702
sV\u4e2d\u5fc3
p2636
I2527
sV\u8840
p2637
I1269
sV\u4e07\u304c\u4e00
p2638
I1401
sV\u5b50\u3069\u3082
p2639
I2706
sV\u5e8a
p2640
I2707
sV\u6a19\u7684
p2641
I2708
sV80
p2642
I4933
sV\u4e0b\u65ec
p2643
I2709
sV\u52d8\u9055\u3044
p2644
I2710
sV\u5e0c\u5c11
p2645
I2970
sV\u7f8e\u4eba
p2646
I2712
sV\u79cb\u7530
p2647
I2713
sV\u4e94\u8f2a
p2648
I2714
sV\u77ac\u9593
p2649
I2715
sV\u5317
p2650
I950
sV\u5c65\u6b74
p2651
I2717
sV\u304a\u3082\u3061\u3083
p2652
I1461
sV\u958b\u767a
p2653
I1466
sV\u540c\u671f
p2654
I2720
sV\u4f4e\u8ff7
p2655
I2721
sV!
p2656
I2722
sV\u7406\u7531
p2657
I2723
sV\u6625
p2658
I2724
sV\u6c17\u6e29
p2659
I2726
sVj
p2660
I2727
sV\u738b\u9053
p2661
I2728
sV\u533b\u7642
p2662
I2729
sV\u3053\u306e\u307b\u3069
p2663
I2907
sV\u4e00\u5bb6
p2664
I2730
sV\u5bbf\u6cca
p2665
I2731
sV\u3053\u308d
p2666
I2732
sV\u89aa\u53cb
p2667
I2733
sV\u4f55\u8005
p2668
I1577
sV\u6628\u65e5
p2669
I2735
sV\u591a\u6570
p2670
I2736
sV\u8ca2\u732e
p2671
I3763
sV\u8abf\u7bc0
p2672
I1597
sV\u30de\u30b8
p2673
I4608
sV\u30b8\u30e5\u30fc\u30b7\u30fc
p2674
I3764
sV\u6f14\u51fa
p2675
I2741
sV\u8077
p2676
I2923
sVfw
p2677
I1629
sV\u30c9\u30eb
p2678
I2744
sV\u6240\u6709
p2679
I2745
sV\u624d
p2680
I2746
sV\u83cc
p2681
I2747
sVlan
p2682
I2748
sVfa
p2683
I2749
sV\u666e\u901a
p2684
I1671
sVfc
p2685
I2751
sV\u5019\u88dc
p2686
I675
sV\u5357
p2687
I2754
sV\u6642\u9593
p2688
I2755
sV\u8ecd
p2689
I4549
sVfi
p2690
I2756
sV\uff24\uff45\uff2e\uff21
p2691
I2757
sVfk
p2692
I2758
sV\u5c48\u6307
p2693
I2759
sVsp
p2694
I4262
sVa
p2695
I1723
sV\u91d1
p2696
I2762
sV\uff57\uff57\uff57
p2697
I2763
sV\u30b5\u30a4\u30c9
p2698
I2926
sV\u4e57\u5ba2
p2699
I2765
sV\u53ce\u5bb9
p2700
I3769
sV\u516b
p2701
I2767
sV\u5869\u6c17
p2702
I2768
sV\u65b9\u6cd5
p2703
I4369
sV\u826f\u597d
p2704
I2769
sV\u52dd\u8ca0
p2705
I2770
sV\u5973\u306e\u5b50
p2706
I2771
sV\u30b3\u30fc\u30c7\u30a3\u30cd\u30fc\u30c8
p2707
I2772
sV\u53cd\u5fdc
p2708
I2773
sV\u7121\u7dda
p2709
I2774
sV\u6a5f\u95a2
p2710
I1832
sV\u30c4\u30a4\u30fc\u30c8
p2711
I2778
sV\u81ea\u793e
p2712
I1130
sV1300
p2713
I1860
sV\u4e0d\u8db3
p2714
I3772
sV\u52d5\u753b
p2715
I2782
sV\u52a0\u5de5
p2716
I2783
sV\u5bb9\u5668
p2717
I4417
sV\u828b
p2718
I2785
sV\u9ad8\u3081
p2719
I2786
sV\u30e9\u30b9\u30c8
p2720
I2787
sV\u30d7\u30df\u30dd\u30f3
p2721
I2788
sV28
p2722
I2811
sV\u642d\u4e57
p2723
I2790
sV\u30ab\u6240
p2724
I2932
sV\u4e00\u77ac
p2725
I4619
sV\u5316
p2726
I1930
sV\u798f\u5cf6
p2727
I1939
sV\u6cb8\u9a30
p2728
I2795
sV\u6307\u540d
p2729
I3775
sV\u30bf\u30a4\u30d7
p2730
I2799
sV\u670d\u88c5
p2731
I1963
sV25
p2732
I2801
sVstyle
p2733
I1972
sV27
p2734
I1630
sV20
p2735
I2804
sV21
p2736
I2805
sV22
p2737
I1689
sV23
p2738
I1993
sV\u30bf\u30a4\u30e0
p2739
I2808
sV\u738b\u5ba4
p2740
I4617
sV\u81ea\u4f53
p2741
I2810
sV\u5727\u529b
p2742
I1908
sV\uff12\u30e9\u30f3
p2743
I1658
sV\u30d2\u30eb\u30ba
p2744
I2813
sV\u7bb1
p2745
I2815
sV\u611b\u5a9b
p2746
I2816
sV\u767a\u8868
p2747
I4749
sV\u8ca0\u3051
p2748
I2817
sV\u30dc\u30c7\u30a3\u30fc
p2749
I2622
sV\u8336
p2750
I1687
sV\u4e3b\u50ac
p2751
I2465
sV\u6614
p2752
I2561
sV\u683c
p2753
I2072
sV\u51b7\u9759
p2754
I2077
sV\u6ce8\u610f
p2755
I2824
sV\u57fa\u672c
p2756
I2825
sV\u30af\u30a4\u30ba
p2757
I2827
sV\u4e00\u5841
p2758
I2097
sV\u75c5
p2759
I2829
sV\u8a3c\u8a00
p2760
I4623
sV\u73fe\u5730
p2761
I4882
sV\u72b6\u6cc1
p2762
I1322
sVceo
p2763
I2832
sV\u4eba\u5de5
p2764
I2119
sV\u597d\u307f
p2765
I2125
sV\u6253\u6570
p2766
I2225
sV\u30b7\u30ea\u30fc\u30ba
p2767
I2136
sV\u798f\u5ca1
p2768
I2837
sV\u51fa\u7523
p2769
I2146
sV\u6839
p2770
I4625
sV\u30ea\u30c3\u30c8\u30eb
p2771
I2840
sV\u6271\u3044
p2772
I2841
sV\u30c8\u30fc\u30af
p2773
I4587
sV\u6708\u66dc\u65e5
p2774
I4942
sV\u8a71\u984c
p2775
I2843
sV\u80cc\u756a\u53f7
p2776
I1913
sV\uff5e
p2777
I2845
sV\u52e2\u3044
p2778
I2846
sV\u4f1d\u7d71
p2779
I1537
sV\u906e\u65ad
p2780
I2849
sV\u65e9\u671f
p2781
I2850
sV\u6b66
p2782
I886
sV\u5b50\u4f9b
p2783
I134
sV\u91d1\u66dc\u65e5
p2784
I2853
sV\u71c3\u6599
p2785
I2939
sV\u30f6\u6708
p2786
I2855
sV\u5009\u5eab
p2787
I2856
sV\u30ad\u30e3\u30b9\u30c8
p2788
I2274
sV\u52b9\u679c
p2789
I2281
sV\u597d\u304d
p2790
I2859
sV\u5049\u696d
p2791
I4626
sV\u6295\u7403
p2792
I2861
sV\u9280
p2793
I892
sV\u30d0\u30f3\u30c9
p2794
I2332
sV\u30b9\u30fc\u30d1\u30fc
p2795
I2864
sV\u76e3\u7763
p2796
I2865
sV\u91cf\u7523
p2797
I2867
sV\u808c
p2798
I479
sV\u76f4\u7d50
p2799
I2869
sV\u4ee5\u964d
p2800
I3890
sV\u9699
p2801
I2870
sV\u30b9\u30da\u30b7\u30e3\u30eb
p2802
I2871
sV\u30d5\u30a1\u30a4\u30eb
p2803
I1092
sV\u8a55\u5224
p2804
I2875
sV/\u25a0
p2805
I2876
sV\u58f2\u4e0a
p2806
I2877
sV\u30b9\u30a4\u30fc\u30c4
p2807
I2117
sV\u30d3\u30b8\u30e5\u30a2\u30eb
p2808
I2879
sV\u9ec4\u91d1
p2809
I2880
sV\u795e\u6238
p2810
I2881
sV\u518d\u958b
p2811
I3538
sV\u30c0\u30e1
p2812
I2882
sV29
p2813
I2884
sV\u96fb\u529b
p2814
I2470
sV\u7def\u5ea6
p2815
I2886
sV\u30af\u30e9\u30a4\u30de\u30c3\u30af\u30b9
p2816
I2887
sV\u30ac
p2817
I2888
sV\u9ad8\u5024
p2818
I2889
sV\u9244\u677f
p2819
I2511
sV\u30ab\u30ed\u30ea\u30fc
p2820
I2892
sV\u8b70\u54e1
p2821
I2521
sV\u767b\u58c7
p2822
I3939
sV\u6d88\u8cbb
p2823
I4461
sV7
p2824
I2894
sV\u8ddd\u96e2
p2825
I2895
sV\u4ed5\u7acb\u3066
p2826
I2896
sV\u6bba\u5bb3
p2827
I2897
sV\u30bb\u30f3\u30b5\u30fc
p2828
I4207
sV\u4ed5\u639b\u3051
p2829
I2898
sV\u7537\u6027
p2830
I2562
sV\u30bf\u30d6\u30ec\u30c3\u30c8
p2831
I403
sV\u30bf\u30ef\u30fc
p2832
I2901
sV\u624b
p2833
I2902
sV\u80cc
p2834
I2903
sV\u98f2\u307f\u7269
p2835
I2618
sV\u89d2
p2836
I2905
sV\u30a2\u30c7\u30df\u30a6\u30bd\u30f3
p2837
I2906
sV\u5bae\u5d0e
p2838
I4751
sV\u6226\u4e89
p2839
I1147
sV\u795d
p2840
I2657
sV\u30fb
p2841
I2910
sV\u30a4\u30f3\u30c1
p2842
I2911
sV\u822a\u7a7a\u6a5f
p2843
I4644
sV\u89b3\u70b9
p2844
I2912
sV\u30c0\u30a6
p2845
I2913
sV\u4eba\u7d44
p2846
I2914
sV\u6761\u306f
p2847
I2651
sV\u516d
p2848
I2916
sV\u30ec
p2849
I2917
sV\u30a2\u30eb\u30b3\u30fc\u30eb
p2850
I2918
sV\u5bfe\u6297
p2851
I2919
sV\u5e73
p2852
I2921
sV\u30b3\u30a2
p2853
I3717
sV\u7d75
p2854
I2922
sVw
p2855
I2742
sV\u66f8
p2856
I2924
sV\u30b5\u30a4\u30c8
p2857
I2925
sV\u534a\u5c0e\u4f53
p2858
I2784
sV\u697d
p2859
I2927
sV\u96c6\u4e2d
p2860
I2928
sV\u62d8\u675f
p2861
I4646
sV\u582a\u80fd
p2862
I2930
sV\u5831\u9053
p2863
I2931
sV\u77e5\u540d\u5ea6
p2864
I2791
sV\u30d6\u30eb\u30fc
p2865
I2933
sV\u5185\u6226
p2866
I2936
sV\u5be9\u67fb
p2867
I3796
sV\u660e
p2868
I2937
sV\u7d71\u4e00
p2869
I1911
sV\u5f62\u72b6
p2870
I2854
sV\u30cb\u30e5\u30fc\u30e8\u30fc\u30af
p2871
I2940
sV\u30b3\u30fc\u30ca\u30fc
p2872
I2866
sV\u30b3\u30d4\u30fc
p2873
I217
sV\u6628\u5b63
p2874
I2874
sV\u591c
p2875
I2890
sV\u55a7\u5629
p2876
I2945
sV\u4e88\u611f
p2877
I2946
sV\u725b\u4e73
p2878
I2947
sV\u5b58\u5728
p2879
I2949
sV"
p2880
I2950
sV\u540c\u5e02
p2881
I2951
sV\u8b70\u9577
p2882
I2952
sV\u5354\u8b70
p2883
I4557
sV\u6226\u95d8
p2884
I2955
sV\u4fee\u6b63
p2885
I1950
sV\u52d5\u5411
p2886
I2957
sV\u30af\u30fc\u30dd\u30f3
p2887
I2958
sV180
p2888
I2959
sV\u4e88\u9632
p2889
I4662
sV\u304b\u56fd
p2890
I4652
sV\u4e0d\u52d5\u7523
p2891
I2961
sV\u30e4\u30fc\u30c9
p2892
I2962
sV\u80cc\u666f
p2893
I4701
sV\u6700\u512a\u79c0
p2894
I2964
sV\u4f4f\u6c11
p2895
I2615
sV\u5ba3\u4f1d
p2896
I2967
sV\uff24\uff26
p2897
I2968
sV\u5165\u308a\u53e3
p2898
I4892
sV\u7236
p2899
I548
sV\u611f\u67d3
p2900
I2971
sV\u65cf
p2901
I2972
sV\u96c6\u56e3
p2902
I4535
sV\u540c\u5e74
p2903
I2974
sV\u5f62
p2904
I2975
sV\u6cd5
p2905
I2976
sV\u4fbf\u5229
p2906
I2977
sV\u6574\u7406
p2907
I2978
sV\u30ab\u30c3\u30d7\u30eb
p2908
I2980
sV\u597d\u610f
p2909
I2981
sV\u9593\u969b
p2910
I2983
sV\u900f\u660e
p2911
I2984
sV\u6c11\u9593
p2912
I21
sVb
p2913
I2986
sV\u901a\u8ca8
p2914
I2987
sV\u901a\u8ca9
p2915
I2988
sV\u8c6a
p2916
I2989
sV\u30ed
p2917
I2990
sVyoutu
p2918
I2991
sV\u624b\u524d
p2919
I2992
sV\u8a8d\u8b58
p2920
I2993
sV\u571f\u66dc
p2921
I4418
sV\u9ad8\u9f62
p2922
I4692
sV\u535a\u58eb
p2923
I4901
sV2020
p2924
I2995
sVstore
p2925
I2965
sV\u63a1\u53d6
p2926
I2997
sV\u4f0a\u85e4
p2927
I2129
sV\u6804\u990a\u58eb
p2928
I2999
sV\u30c6\u30fc\u30d6\u30eb
p2929
I3000
sV\u88fd
p2930
I3001
sV\u57fc\u7389
p2931
I3002
sV\u60f3\u5b9a
p2932
I949
sV\u97f3\u58f0
p2933
I2156
sV\u30e1\u30ea\u30c3\u30c8
p2934
I1290
sV\u30b2\u30b9\u30c8
p2935
I3006
sV\u5c55\u793a
p2936
I1813
sV\u98a8\u5473
p2937
I3008
sV\u8996
p2938
I3009
sV\u683d\u57f9
p2939
I3010
sV\u4eee\u88c5
p2940
I3011
sV\u8a13\u7df4
p2941
I3013
sV\u539f\u6587
p2942
I3808
sV\u83ef\u3084\u304b
p2943
I3016
sV\u6226\u7565
p2944
I3018
sV\u30af\u30bb
p2945
I4489
sV\u96d1\u8ca8
p2946
I4872
sV\u53bb\u5e74
p2947
I3730
sVmy
p2948
I3020
sV\u6642\u4e8b
p2949
I3021
sV\u9023\u8f09
p2950
I3022
sV\u629c\u304d
p2951
I3023
sV\u30a2\u30ca\u30a6\u30f3\u30b5\u30fc
p2952
I3024
sV\u5f8c\u9000
p2953
I3025
sV\u30d2\u30ed\u30a4\u30f3
p2954
I671
sV\u30ea\u30fc\u30ba\u30ca\u30d6\u30eb
p2955
I3027
sV\u732b
p2956
I3028
sV\u6c7a\u7740
p2957
I3029
sV\u51ac
p2958
I3030
sV\u76ae
p2959
I3031
sV\u5468\u308a
p2960
I3032
sV\u52a0\u71b1
p2961
I4722
sV\u96f2
p2962
I3033
sV\u307e\u3068\u3081
p2963
I4413
sV\u3063\u3071\u306a\u3057
p2964
I3035
sV\u98a8\u5442
p2965
I3036
sV\u9023\u4f11
p2966
I3038
sV\u9069\u6642
p2967
I3039
sV\u4e09\u6d66
p2968
I280
sV\u5272\u5f15
p2969
I3042
sV\u7b52
p2970
I3043
sV\u5bfe\u7b56
p2971
I1710
sV\u539a\u751f
p2972
I3277
sV\u5e83\u5834
p2973
I3045
sV\u30b1\u30f3\u30ab
p2974
I3046
sV\u642d\u8f09
p2975
I3047
sV\u5cf6
p2976
I2164
sV\u81ea\u8eab
p2977
I3049
sV\u56db\u7403
p2978
I2173
sV76
p2979
I3052
sV\u4f53
p2980
I3053
sV\u30d7\u30ed\u30c7\u30e5\u30fc\u30b9
p2981
I1320
sV73
p2982
I3055
sV72
p2983
I2257
sV\u6bd4\u7387
p2984
I2165
sV\u3055\u3064\u307e\u3044\u3082
p2985
I2385
sV79
p2986
I3059
sV78
p2987
I3060
sVkg
p2988
I3061
sV\u85e4
p2989
I3062
sV\u73fe\u5b9f
p2990
I3063
sVwindows
p2991
I3618
sV\u30dc\u30c8\u30eb
p2992
I3044
sV\u4e21\u7acb
p2993
I3066
sV\u8cea
p2994
I3067
sV\u98df\u6b32
p2995
I525
sV\u9032\u51fa
p2996
I3069
sV\u30ed\u30f3\u30b0
p2997
I3070
sV\u5c71\u53e3
p2998
I3071
sV\u5316\u7ca7
p2999
I3072
sV\u30c8\u30f3
p3000
I3073
sV\u64ae\u5f71
p3001
I699
sV\u6b7b
p3002
I3075
sV\u30b9\u30eb\u30fc
p3003
I2168
sV\u30aa\u30fc\u30b9\u30c8\u30e9\u30ea\u30a2
p3004
I47
sV\u90fd\u77e5\u4e8b
p3005
I542
sV\u8a8d\u5b9a
p3006
I3079
sV\u30b5\u30fc\u30e2\u30f3
p3007
I4470
sV\u30aa\u30ec\u30f3\u30b8
p3008
I3080
sV\u5916\u89b3
p3009
I2555
sV\u5c02\u9580
p3010
I3083
sV\u3072\u3068\u3068\u304d
p3011
I3041
sV\u5b89\u6253
p3012
I3085
sV\u5408\u683c
p3013
I2806
sV\u4ea4\u4ee3
p3014
I3087
sV\u8aac
p3015
I3088
sV\u660e\u6cbb
p3016
I3090
sV\u30de\u30a4\u30af
p3017
I3091
sV\u540c\u793e
p3018
I3092
sV\u30d1\u30c3\u30c9
p3019
I3093
sV\u5143\u6c17
p3020
I3094
sV\u7814\u7a76\u6240
p3021
I3095
sV\u80cc\u9762
p3022
I3096
sV\u59cb\u3081
p3023
I3097
sV\u5f79\u5272
p3024
I3098
sV\u5f53\u521d
p3025
I3099
sV\u89aa
p3026
I3495
sV\u30d8\u30a2
p3027
I3101
sV\u304a\u5b50\u3055\u3093
p3028
I3102
sV\u30ab\u30e9\u30fc
p3029
I2174
sV\u4f7f\u3044\u52dd\u624b
p3030
I3104
sV\u72af
p3031
I3105
sV\u904a\u3073
p3032
I337
sV\u6708\u672b
p3033
I3107
sV\u30cb\u30e5\u30fc
p3034
I3108
sV\u6700\u5148\u7aef
p3035
I3109
sV\u5728\u4f4f
p3036
I3110
sV\u51e6\u7406
p3037
I3111
sV\u5728\u4f4d
p3038
I3112
sV8
p3039
I3113
sV\u8cbb
p3040
I3114
sV\u6cbf\u3044
p3041
I3115
sV\u30bf\u30fc\u30b2\u30c3\u30c8
p3042
I3116
sV\u8abf
p3043
I3117
sV\u9769\u547d
p3044
I2943
sV\u5742
p3045
I1770
sV\u9244
p3046
I3121
sV\u5bae\u57ce
p3047
I3122
sVpermission
p3048
I816
sV\u59c9
p3049
I3124
sV\u5927\u56fd
p3050
I3125
sV\u5b66\u7fd2
p3051
I2985
sV\u30cf\u30e0
p3052
I3127
sV\u69cb\u60f3
p3053
I3128
sV\u601d\u3044
p3054
I3129
sV\u30cf\u30fc
p3055
I3130
sV\u7b46\u8005
p3056
I3131
sV\u62db\u5f85
p3057
I3132
sV\u8c4a\u5cf6
p3058
I1951
sV\u7269\u4fa1
p3059
I3134
sV\u611f\u60c5
p3060
I3135
sV\u6642\u901f
p3061
I1896
sV\u30b9\u30af\u30ea\u30fc\u30f3
p3062
I3137
sV\u30d9\u30f3
p3063
I3824
sV\u62c5\u5f53
p3064
I3139
sV\u7aef\u5b50
p3065
I3140
sV\u898b\u5b66
p3066
I3799
sV\u5065\u4e8c
p3067
I2324
sV\uff11\uff10\u6708
p3068
I3142
sV\u53c2\u52a0
p3069
I3143
sV\u30c0\u30a4\u30ca\u30df\u30c3\u30af
p3070
I3144
sV\u4fdd\u8a3c
p3071
I3146
sV\u6226\u529b
p3072
I2201
sV\u611f\u60f3
p3073
I3148
sV\u6b7b\u4ea1
p3074
I4683
sV\u5e74\u4ee3
p3075
I3150
sV\u7d50\u5a5a\u5f0f
p3076
I3151
sV\u7f72
p3077
I3152
sV\u6b66\u88c5
p3078
I207
sV\u6570\u5024
p3079
I3154
sV49
p3080
I4939
sVx
p3081
I3155
sV\u975e\u96e3
p3082
I3156
sV\u30d1\u30c3\u30af
p3083
I3157
sV\u96e2\u5a5a
p3084
I3158
sV\u8ca1\u7523
p3085
I3160
sV\u4fa1\u5024
p3086
I1548
sV\u305d\u3053
p3087
I3162
sV\u76ee\u5b89
p3088
I1338
sV\u30e9\u30a4\u30d6
p3089
I3164
sV\u30b3\u30fc\u30c7\u30a3\u30cd\u30fc\u30bf\u30fc
p3090
I4303
sV\u30e9\u30a4\u30d5
p3091
I2569
sV\u670d
p3092
I3166
sV\u5b8c\u4e86
p3093
I3506
sV\u5171\u6709
p3094
I3168
sV\u30d1\u30cd\u30eb
p3095
I3169
sV83
p3096
I4930
sV\u30e9\u30a4\u30c8
p3097
I3118
sV\u83ef\u9e97
p3098
I697
sVled
p3099
I3830
sV\u7d44\u7e54
p3100
I3174
sV\u91d1\u5c5e
p3101
I3017
sV\u30cd\u30ac\u30c6\u30a3\u30d6
p3102
I2851
sV\u5e9c
p3103
I3089
sV\u5f93\u6765
p3104
I3178
sV\u6e0b\u8c37
p3105
I3770
sV\u76f8\u624b
p3106
I1457
sV#
p3107
I1683
sV\u305d\u3070
p3108
I3181
sV\u6c7a\u52dd
p3109
I3182
sV\u30b9\u30b3\u30a2
p3110
I3183
sV\u51b7\u51cd
p3111
I3184
sV\u5c0f\u9ea6\u7c89
p3112
I3159
sV\u75db\u307f
p3113
I428
sV\u6b4c\u624b
p3114
I3187
sV\u90fd\u4f1a
p3115
I3188
sV\u624b\u9593
p3116
I3189
sV\u4e16\u8a71
p3117
I3190
sV\u30ec\u30c3\u30b9\u30f3
p3118
I3191
sV\u5449\u5c4b
p3119
I3192
sV\u767a\u58f2
p3120
I3193
sV\u7f8e\u5973
p3121
I2835
sV\u611f\u6027
p3122
I3195
sV\u30d4\u30fc\u30b9
p3123
I4367
sV\u6570\u30ab\u6708
p3124
I3196
sV\u30af\u30fc\u30eb
p3125
I3197
sV\u30c4\u30c3\u30b3\u30df
p3126
I2661
sV\u304b\u305f\u3061
p3127
I4604
sV\u7a7a\u6e2f
p3128
I3199
sV\u8868\u73fe
p3129
I3200
sV\u697d\u66f2
p3130
I3201
sV\u30a8\u30d4\u30bd\u30fc\u30c9
p3131
I3202
sV\u8a66\u307f
p3132
I3203
sV\u914d\u616e
p3133
I3204
sV\u708e\u4e0a
p3134
I4691
sV\u898f\u6a21
p3135
I3205
sV\u671f\u9650
p3136
I3206
sV\u5927\u91cf
p3137
I2998
sV\u8853
p3138
I3209
sV\u53c2\u5217
p3139
I3210
sV\u56de\u53ce
p3140
I3211
sV\u7159
p3141
I3212
sV\u500b\u4eba
p3142
I3213
sV\u69d8\u5b50
p3143
I3214
sV\u65b0\u6f5f
p3144
I4643
sV\u5f53\u305f\u308a\u524d
p3145
I3215
sVc
p3146
I2809
sV\u969b
p3147
I4687
sV\u30dd\u30eb\u30c8\u30ac\u30eb
p3148
I3217
sV\u30e9\u30a4\u30b9
p3149
I258
sV\u30b9\u30bf\u30a4\u30ea\u30c3\u30b7\u30e5
p3150
I3219
sV02
p3151
I2620
sV\u30a4\u30f3\u30d1\u30af\u30c8
p3152
I3221
sVtop
p3153
I4038
sV\u5f71\u97ff
p3154
I236
sV\u3044\u3061\u3070\u3093
p3155
I3223
sV\u3068\u3093\u3067\u3082
p3156
I660
sV\u4e3b\u5c06
p3157
I3225
sV\u30ad\u30ec
p3158
I3226
sV\u8179
p3159
I3227
sV\u80f8
p3160
I1016
sV\u4e3b\u5c0e
p3161
I3229
sV\u30d5\u30a1\u30a4\u30ca\u30eb
p3162
I3230
sV\u767a\u63ee
p3163
I3232
sV\u898b\u76f4\u3057
p3164
I3233
sV\u5546\u696d
p3165
I4220
sVmini
p3166
I2966
sV\u30c6\u30ec\u30d3\u671d\u65e5
p3167
I1976
sV03
p3168
I3236
sV+
p3169
I3864
sV\u79cb\u51ac
p3170
I3238
sV\u7533\u8acb
p3171
I3239
sV\u6545\u969c
p3172
I3240
sV\u7f70\u91d1
p3173
I3004
sV\u5e30\u5b85
p3174
I3243
sV\u4e0a\u8a18
p3175
I3005
sV\u30af\u30e9\u30b7\u30c3\u30af
p3176
I3245
sV\u5b9f
p3177
I3246
sV\u671d\u520a
p3178
I3247
sV\u30d1\u30a6\u30c0\u30fc
p3179
I3248
sVps
p3180
I3249
sV\u4fdd\u8b77
p3181
I252
sV\u4e2d\u5b66
p3182
I3251
sV\u51fa\u7248
p3183
I3252
sV\u307e\u307e
p3184
I3253
sV\u30d4\u30f3\u30af
p3185
I3254
sV00
p3186
I3255
sV\u98fc\u3044\u4e3b
p3187
I3256
sV\u5272\u5408
p3188
I3843
sV\u6a2a
p3189
I3258
sV\u9023\u8987
p3190
I3259
sV\u53ce\u96c6
p3191
I3260
sV\u718a\u672c
p3192
I3262
sVpc
p3193
I3263
sV\u30bb\u30fc\u30d6
p3194
I3264
sV\u5b8c\u6295
p3195
I3265
sV\u523a\u8eab
p3196
I4422
sV\u6d3b\u767a
p3197
I3266
sVpk
p3198
I3268
sV\u8981\u6ce8\u610f
p3199
I3269
sV\u5927\u578b
p3200
I3270
sV\u3063\u3077\u308a
p3201
I3271
sV\u54c1
p3202
I3272
sV\u30c8\u30ec\u30fc\u30cb\u30f3\u30b0
p3203
I3846
sV\u5642
p3204
I3274
sV\u6c7a\u3081\u624b
p3205
I3276
sV\u30bb\u30ea\u30d5
p3206
I3278
sV\u7f36
p3207
I3279
sV\u65b0\u805e
p3208
I3280
sV\u30e2\u30c6
p3209
I3847
sV\u99b4\u67d3\u307f
p3210
I1430
sV\u6301\u7d9a
p3211
I4052
sV\u6bb5\u968e
p3212
I3283
sV\u52d5\u7269
p3213
I3284
sV\u611b\u7528
p3214
I1960
sV\u30a4\u30f3\u30c6\u30ea\u30a2
p3215
I4
sV\u897f\u90e8
p3216
I9
sV\u30d9\u30fc\u30b9
p3217
I37
sV\u5150\u7ae5
p3218
I4755
sV\u5de6\u8155
p3219
I3290
sV\u30d5\u30a1\u30f3\u30bf\u30b8\u30fc
p3220
I3291
sV\u904e\u8a00
p3221
I63
sV\u5c71\u4e2d
p3222
I3293
sV\u30d8\u30c3\u30c9
p3223
I74
sV\u30d9\u30eb\u30ae\u30fc
p3224
I549
sV\u30bf\u30c3\u30d7
p3225
I2253
sV\u30de\u30eb
p3226
I4664
sV\u5236\u9650
p3227
I3297
sV\u30d5\u30a1\u30ca\u30c6\u30a3\u30c3\u30af
p3228
I3298
sV\u7269\u4e8b
p3229
I3299
sV\u691c\u7d22
p3230
I1982
sV\u30ab\u30fc
p3231
I3301
sV\u4e0a\u8cea
p3232
I3302
sV\u30ec\u30dd\u30fc\u30c8
p3233
I3303
sV\u30bf\u30c3\u30c1
p3234
I3304
sV\u8178
p3235
I3305
sV\u4eca\u5ea6
p3236
I3306
sV\u4e00\u5f79
p3237
I3307
sV\u7206\u767a
p3238
I3037
sV\u5dfb\u304d
p3239
I3310
sV\u30a2\u30eb\u30d0\u30e0
p3240
I283
sV30
p3241
I3853
sV\u5834\u5408
p3242
I3312
sV\u308d
p3243
I3313
sV\u5927\u5730
p3244
I3314
sV\u63a1\u7528
p3245
I3316
sV\u6328\u62f6
p3246
I3317
sV\u304a\u91d1
p3247
I3318
sV\u6c11
p3248
I209
sV\u30b0\u30e9\u30b9
p3249
I3321
sV\u6027\u5225
p3250
I3322
sV\u604b\u4eba
p3251
I3325
sV\u77ed\u671f
p3252
I3326
sV\u5dee
p3253
I3327
sV\u6bce\u5e74
p3254
I3328
sV\u6570\u91cf
p3255
I3329
sV\u98db\u884c
p3256
I3330
sV\u30e9\u30b8\u30aa
p3257
I3331
sV\u9b42
p3258
I3332
sV\u751f\u6d3b
p3259
I288
sV\u7b11\u9854
p3260
I290
sV\u5165\u624b
p3261
I3335
sV\u4eca\u5e74
p3262
I302
sV\u4f9d\u983c
p3263
I895
sV\u30a2\u30d1\u30fc\u30c8
p3264
I2213
sV\u6210\u679c
p3265
I942
sV\u5973\u512a
p3266
I3342
sV\u30ca\u30f3\u30d0\u30fc
p3267
I923
sV\u5b8c\u6210
p3268
I3344
sV\u571f\u6728
p3269
I3345
sV9
p3270
I3346
sV\u6211\u3005
p3271
I2461
sV\u30a2\u30d7\u30ea
p3272
I3275
sV\u8cc7\u672c
p3273
I3349
sV\u901a\u8a71
p3274
I379
sVac
p3275
I2395
sV\u679c\u7269
p3276
I3352
sV\u30d7\u30ed\u30b8\u30a7\u30af\u30c8
p3277
I388
sV\u5143
p3278
I3354
sVused
p3279
I3355
sV\u304c\u3093
p3280
I3357
sV\u5468\u56f2
p3281
I2190
sV\u65e9\u671d
p3282
I2848
sV\u91ce\u751f
p3283
I1372
sV\u53d7\u8cde
p3284
I4201
sV\u540c\u58eb
p3285
I3361
sV\u8996\u70b9
p3286
I3241
sV\u88c5\u7740
p3287
I4496
sV\u5909\u63db
p3288
I3363
sV\u8ed2
p3289
I450
sV\u6bd4
p3290
I3365
sV\u76db\u308a\u3060\u304f\u3055\u3093
p3291
I3366
sV\u6210\u7acb
p3292
I3367
sV\u6a5f\u5185
p3293
I3368
sV\u53cd\u5bfe
p3294
I18
sV\u30bb\u30ab\u30f3\u30c9
p3295
I3865
sV\u5834\u6240
p3296
I3371
sV\u53cc\u65b9
p3297
I495
sV\u2461
p3298
I3373
sV\u30ab\u30ea\u30ab\u30ea
p3299
I4719
sV\u672c\u6765
p3300
I1893
sV\u7121\u99c4
p3301
I3376
sV\u304a\u3082\u3066\u306a\u3057
p3302
I3377
sV\u30b9\u30bf\u30a4\u30eb
p3303
I524
sV\u5409\u7530
p3304
I3379
sV\u7d44\u307f\u5408\u308f\u305b
p3305
I3380
sV\u30b9\u30c8\u30c3\u30d7
p3306
I3381
sV\u7687\u592a\u5b50
p3307
I3382
sV\u30ef\u30a4\u30e4\u30ec\u30b9
p3308
I3383
sV\u5c71
p3309
I3384
sV\u4e8b\u614b
p3310
I3026
sV\u5973
p3311
I3386
sV\u30ed\u30dc\u30c3\u30c8
p3312
I3387
sV\u72ed\u5c71
p3313
I3388
sV\u30b1\u30fc\u30b9
p3314
I267
sVy
p3315
I3390
sVafpbb
p3316
I3391
sV\u8ee2\u63db
p3317
I3392
sV\u696d\u8005
p3318
I3393
sV\u771f\u5b9f
p3319
I3394
sV\u30ec\u30e2\u30f3
p3320
I3395
sV\u8981\u6c42
p3321
I3396
sV\u5185
p3322
I3397
sV\u30c9\u30fc\u30e0
p3323
I4764
sVfrom
p3324
I3892
sV\u5b89
p3325
I3399
sV\u8ffd\u60bc
p3326
I649
sV\u5b58\u5206
p3327
I3401
sV\u548c\u98a8
p3328
I673
sV\u51fa\u54c1
p3329
I3403
sV\u304a\u524d
p3330
I685
sV\u51b7\u5374
p3331
I3405
sV\u51fa\u5178
p3332
I3406
sV\u6b8b\u5ff5
p3333
I706
sV\u30d7\u30ec\u30fc\u30c8
p3334
I3408
sV\u4f50\u85e4
p3335
I4348
sVpdtfrom
p3336
I3409
sV\u56db
p3337
I4727
sV\u767a\u60f3
p3338
I3412
sV\u30df\u30cd\u30e9\u30eb
p3339
I3413
sV\u82b8\u80fd\u4eba
p3340
I3414
sV\u90aa\u9b54
p3341
I781
sV\u30aa\u30fc\u30c0\u30fc
p3342
I3416
sV\u5ba3\u8a00
p3343
I3417
sV\u98df\u6750
p3344
I3418
sV\uff11\uff11\u6708
p3345
I3419
sV\u81ea\u8ee2\u8eca
p3346
I3420
sV\u7591\u3044
p3347
I4542
sV\u30c6\u30cb\u30b9
p3348
I2814
sV\u7279\u5b9a
p3349
I3422
sV\u5834
p3350
I3423
sV\u6b63\u9762
p3351
I3424
sV\u30af\u30e9\u30d6
p3352
I347
sV\u83dc
p3353
I3426
sV\u3063\u5b50
p3354
I3427
sV\u6d66\u548c
p3355
I3428
sVapp
p3356
I3876
sV\u6709\u6599
p3357
I3430
sV...
p3358
I3431
sV\u5f53\u9078
p3359
I874
sV\u30b4\u30fc\u30eb\u30c7\u30f3
p3360
I3433
sV\u3044
p3361
I3434
sV\u3073
p3362
I3435
sV\u30ab\u6708
p3363
I3437
sV\u547c\u5438
p3364
I3438
sV\u30ab\u30b9\u30bf\u30de\u30a4\u30ba
p3365
I3375
sV\u6253\u6483
p3366
I3440
sV\u98df\u4e8b
p3367
I3442
sV\u30af\u30e9\u30b9
p3368
I2133
sV\u904e\u304e
p3369
I4175
sVbit
p3370
I3444
sV\u30bd\u30fc\u30b9
p3371
I3445
sV\u5ddd
p3372
I3446
sV%
p3373
I3447
sV\u98df
p3374
I3448
sV\u5927\u4e08\u592b
p3375
I3449
sV\u30e2\u30c0\u30f3
p3376
I1038
sV\u30ab\u30c3\u30b3
p3377
I3983
sV\u88c5\u7f6e
p3378
I3451
sVd
p3379
I1310
sVt\u30b7\u30e3\u30c4
p3380
I3453
sV\u79d1
p3381
I3454
sV\u51fa\u6765\u4e8b
p3382
I3455
sV\u5927\u304d\u3081
p3383
I3456
sV\u30b8\u30e5\u30fc\u30b9
p3384
I1019
sV\u71b1\u5fc3
p3385
I3458
sV\u6d0b\u670d
p3386
I3459
sV\u8102
p3387
I3460
sV\u4ff3\u512a
p3388
I4363
sV\u9006\u8ee2
p3389
I3461
sV\u304f\u305b
p3390
I3462
sV\u5bc6\u63a5
p3391
I3463
sVusb
p3392
I3893
sV\u548c\u98df
p3393
I1990
sV\u518d\u751f
p3394
I3465
sV\u4f5c\u696d
p3395
I1069
sV\u79fb\u4f4f
p3396
I1073
sV\u60aa\u5316
p3397
I2229
sV\u6642\u523b
p3398
I3469
sV\u7701
p3399
I3470
sV\u30d6\u30fc\u30b9
p3400
I3471
sVgoogle
p3401
I3473
sV\u4ed5\u65b9
p3402
I3474
sV\u30d6\u30ed\u30c3\u30af
p3403
I3475
sV\u30b3\u30f3\u30d3\u30cb
p3404
I3476
sV\u677e\u5c71
p3405
I3477
sV\u6f5c\u5728
p3406
I3478
sV\u30de\u30b0\u30cb\u30c1\u30e5\u30fc\u30c9
p3407
I3479
sV\u30e9\u30f3\u30ca\u30fc
p3408
I3480
sV\u796d\u308a
p3409
I3481
sV\u9577\u7537
p3410
I3482
sV\u6e90
p3411
I3483
sV\u30d5\u30a1\u30fc\u30b9\u30c8
p3412
I4485
sV\u30db\u30ef\u30a4\u30c8
p3413
I3484
sV\u8996\u7dda
p3414
I3486
sV\u306b\u3093\u306b\u304f
p3415
I3487
sV\u5de8\u5927
p3416
I3488
sV\u82b8\u8853
p3417
I4808
sV\u9451\u8cde
p3418
I3489
sV\u907a\u4f53
p3419
I3491
sV\u72ec\u5360
p3420
I3492
sV\u78ba\u4fdd
p3421
I4740
sV\u3069\u3063\u3061
p3422
I3494
sV\u5065\u592a
p3423
I1305
sV\u30c8\u30e8\u30bf
p3424
I3496
sVcast
p3425
I2583
sV\u5f31
p3426
I180
sV\u901a\u8def
p3427
I2803
sV\u69cb\u6210
p3428
I739
sV\u6226\u3044
p3429
I3500
sV\u8d64
p3430
I4243
sV\u82b8
p3431
I3502
sV\u4e3b
p3432
I3503
sV\u304f\u3093
p3433
I3504
sVt
p3434
I3505
sV\u30b9\u30bf\u30e1\u30f3
p3435
I2378
sV\u756a\u53f7
p3436
I3507
sV\u611b\u77e5
p3437
I3508
sV\u6d25\u6ce2
p3438
I4811
sV\u4ed8\u304d
p3439
I3509
sV\u7b49
p3440
I1329
sV\u664b
p3441
I382
sV\u8272
p3442
I3820
sV\u30d5\u30a1\u30c3\u30b7\u30e7\u30f3
p3443
I3512
sV\u4f9d\u5b58
p3444
I1964
sVmodelpress
p3445
I3514
sV\u5e74\u9593
p3446
I3515
sV\u719f\u6210
p3447
I3516
sV\u4e0a\u4f4d
p3448
I1364
sV\u30ea\u30d5\u30ec\u30c3\u30b7\u30e5
p3449
I3518
sV\u6392\u51fa
p3450
I2673
sV\u63a8\u6e2c
p3451
I3520
sV\u30a2\u30cb\u30e1\u30fc\u30b7\u30e7\u30f3
p3452
I2704
sVvirates
p3453
I3523
sV\u4ed8\u3051
p3454
I3524
sVby
p3455
I3525
sV\u4e3b\u5e2d
p3456
I1404
sV\u72af\u7f6a
p3457
I3527
sV\u6761
p3458
I3528
sV\u5b9f\u73fe
p3459
I1412
sV\u5ea7\u5e2d
p3460
I4436
sV\u4e0b\u8a18
p3461
I4744
sV\u5c0f\u578b
p3462
I3531
sV\u30ab\u30dc\u30c1\u30e3
p3463
I3532
sV\u716e\u8fbc\u307f
p3464
I3533
sV\u6b69
p3465
I3534
sV\u307b\u3046
p3466
I4988
sV\u9ad8\u6821\u751f
p3467
I3536
sV75
p3468
I3537
sV\u7d4c\u6e08
p3469
I1464
sV\u60b2\u3057\u307f
p3470
I3076
sV\u771f\u646f
p3471
I1473
sV\u9707\u5ea6
p3472
I1478
sV\u30c1\u30f3
p3473
I3541
sV\u68d2
p3474
I3054
sV\u5185\u5bb9
p3475
I3543
sV\u30ea\u30c3\u30c1
p3476
I1491
sV\u5947\u8de1
p3477
I3545
sV\u7cbe\u795e
p3478
I1511
sV\u30d7\u30ec\u30df\u30a2
p3479
I3547
sV\u7a7a\u6c17
p3480
I3548
sV\u89e3\u653e
p3481
I3056
sV\u672c\u6587
p3482
I1535
sV\u5730\u70b9
p3483
I3895
sV\u5104
p3484
I3551
sV\u30d1\u30a4\u30ed\u30c3\u30c8
p3485
I4994
sV\u9855\u8457
p3486
I2915
sV70
p3487
I3057
sV\u671f\u9593
p3488
I3552
sV\u6642\u534a
p3489
I1580
sV\u672c\u7269
p3490
I3554
sV\u5973\u738b
p3491
I3555
sV\u7269\u8cea
p3492
I3557
sV\u82e6\u7b11\u3044
p3493
I3558
sV\u521d\u56de
p3494
I4929
sV\u963f\u90e8
p3495
I3559
sV\u6295\u5165
p3496
I1607
sV\u7d71\u8a08
p3497
I1613
sV\u65b0\u8208
p3498
I3562
sV\u901a
p3499
I1623
sV\u524d\u65b9
p3500
I3564
sV\u30a6\u30a7\u30a2
p3501
I3565
sV\u30d5\u30a9\u30ed\u30ef\u30fc
p3502
I3566
sV\u793e\u4f1a
p3503
I3567
sV\u4f53\u611f
p3504
I3568
sV\u30b8\u30e3\u30f3\u30d7
p3505
I3569
sV\u6d3b\u52d5
p3506
I3570
sV\u4e26
p3507
I1669
sV\u5ca1\u7530
p3508
I3572
sV\u7570\u6027
p3509
I2377
sV\u30b9\u30c6\u30fc\u30b7\u30e7\u30f3
p3510
I3574
sV\u5bb6\u4e8b
p3511
I1054
sV\u5e02\u8ca9
p3512
I75
sV\u56fd\u969b
p3513
I3577
sV\u308f\u304c\u56fd
p3514
I3578
sV\u624b\u4f5c\u308a
p3515
I3940
sV\u6cbb\u7642
p3516
I3579
sV\u6253\u7387
p3517
I4400
sV\u8a08\u6e2c
p3518
I4545
sV\uff14\u6708
p3519
I3580
sV\u5897\u7530
p3520
I3581
sV:
p3521
I2820
sV\u5074\u9762
p3522
I1753
sV980
p3523
I3584
sV\u6253\u8005
p3524
I3585
sV\u4ea4\u63db
p3525
I2486
sV\u76db\u3093
p3526
I1769
sV\u7740
p3527
I3588
sV\u30b0\u30e9\u30f3\u30c9
p3528
I2675
sV\u524d\u63d0
p3529
I3591
sV\u30b9\u30b1\u30b8\u30e5\u30fc\u30eb
p3530
I3407
sV\u8ca9\u58f2
p3531
I3592
sV\u958b\u50ac
p3532
I4033
sV\u98a8\u90aa
p3533
I3594
sV\u3075\u304f
p3534
I3595
sV\u5b9a\u671f
p3535
I1836
sVgetty
p3536
I3597
sV\u958b\u696d
p3537
I2570
sV\u8c6a\u5feb
p3538
I1850
sV\u76db\u308a
p3539
I1858
sV\u4e3b\u7fa9
p3540
I1862
sV\u3075\u3046
p3541
I1867
sV\u6301\u3061\u4e3b
p3542
I3604
sV\u30cf\u30fc\u30d5
p3543
I3605
sV\u660e\u3089\u304b
p3544
I3606
sV\u515a
p3545
I3607
sV\u9003\u8d70
p3546
I3608
sV\u5916\u4ea4
p3547
I3609
sV\u30cf\u30fc\u30d6
p3548
I3610
sV\u56de\u907f
p3549
I1912
sV\u30dd\u30c3\u30d7
p3550
I3612
sV\u3065\u304f\u308a
p3551
I3613
sV\u4e2d\u592e
p3552
I3614
sVup
p3553
I1156
sV\u5f93\u696d
p3554
I4920
sV\u52a0\u76df
p3555
I3909
sV\u52d5\u304d
p3556
I3617
sV\u7d0d\u5f97
p3557
I3619
sV\u3054\u308d
p3558
I1956
sV\u88ab\u707d
p3559
I3621
sVuk
p3560
I1312
sV\u30eb\u30f4\u30a1\u30f3\u30ab\u30c3\u30d7
p3561
I3623
sV\u7d76\u5999
p3562
I3624
sV\u571f\u65e5
p3563
I1984
sV\u8d64\u3061\u3083\u3093
p3564
I1193
sV\u91d1\u984d
p3565
I3627
sV\u5730\u9707
p3566
I3629
sV\u3054\u307e
p3567
I3630
sV\u30c8\u30ec\u30f3\u30c9
p3568
I3631
sV\u4e0d\u660e
p3569
I3632
sV\u5b9f\u529b
p3570
I3633
sV\u30b3\u30de
p3571
I3634
sV\u56fd\u9632
p3572
I3635
sV\u6b63\u89e3
p3573
I3636
sV\u4e3b\u5f79
p3574
I1325
sV\u30c9\u30e9\u30de
p3575
I2049
sV\u640d
p3576
I3639
sV\u5185\u90e8
p3577
I4612
sV\u30db\u30c6\u30eb
p3578
I3068
sVimages
p3579
I2256
sV\u56de\u308a
p3580
I3642
sV\u7532\u5b50\u5712
p3581
I3912
sV\uff27\uff23
p3582
I3644
sV\u5e02\u6c11
p3583
I2083
sV\u3054\u3068
p3584
I3646
sV\u3075\u308a
p3585
I251
sV\u30c9\u30ea\u30f3\u30af
p3586
I3648
sV\u7d42\u4e86
p3587
I3649
sVcafe
p3588
I3650
sV\uff27\uff2b
p3589
I3651
sV\u7279\u5fb4
p3590
I3652
sV\u6771\u7d4c
p3591
I3653
sV\u30b3\u30c4
p3592
I3654
sV\u67a0
p3593
I3656
sV\u30b3\u30ec\u30af\u30b7\u30e7\u30f3
p3594
I3657
sV\u53c2\u7167
p3595
I3658
sV\u6025
p3596
I3285
sV\u592b\u5a66
p3597
I3660
sV\u798f\u7949
p3598
I2153
sV\u81ea\u7c9b
p3599
I2642
sV\u6a29
p3600
I3663
sV\u5f8c\u308d
p3601
I3664
sV\u63d0\u51fa
p3602
I3665
sV\u8efd\u6e1b
p3603
I3666
sV\u4ea4\u6d41
p3604
I3667
sV\u30c7\u30fc\u30c8
p3605
I3668
sV\u30b5\u30af\u30c3
p3606
I3961
sV\u767a\u751f
p3607
I3669
sV\u30c6\u30a4\u30af\u30a2\u30a6\u30c8
p3608
I2209
sV\u4e88\u6e2c
p3609
I3671
sV\u30b3\u30ec
p3610
I3672
sV\u8239
p3611
I2217
sV\u53d6\u308a\u6271\u3044
p3612
I3674
sV\u72ec\u7279
p3613
I3675
sV\u5411\u3051
p3614
I4770
sV\u7acb\u3061
p3615
I2248
sV\u9078\u629e\u80a2
p3616
I3678
sV\u56fa\u5b9a
p3617
I3679
sV\u3081\u3061\u3083\u304f\u3061\u3083
p3618
I1810
sV\u30c7\u30fc\u30bf
p3619
I2270
sV\u7d4c\u5ea6
p3620
I862
sV\u76ee\u6483
p3621
I3683
sV\u6307\u5b9a
p3622
I3684
sV\u652f\u6301
p3623
I3685
sV\u30d5\u30a9\u30fc\u30ab\u30b9
p3624
I3686
sV\u4e00\u7dd2
p3625
I3687
sV\u723d\u3084\u304b
p3626
I3688
sV\u30de\u30fc\u30b1\u30c3\u30c8
p3627
I3689
sV\u30b9\u30c8\u30ec\u30fc\u30c8
p3628
I3690
sV\u65e5\u672c\u30c6\u30ec\u30d3
p3629
I3691
sV\u6311\u6226
p3630
I3692
sV\u30c8\u30de\u30c8
p3631
I3693
sV\u30bc\u30ed
p3632
I3694
sV\u30e1\u30f3\u30c6\u30ca\u30f3\u30b9
p3633
I3695
sV\u2661
p3634
I2361
sV\u771f\u9762\u76ee
p3635
I3918
sV\u6c60\u7530
p3636
I2551
sV\u30ed\u30fc\u30c9
p3637
I2250
sVe
p3638
I3699
sV\u3054\u89a7
p3639
I3700
sV\u5150
p3640
I3701
sV\u8a69
p3641
I3702
sVdvd
p3642
I3703
sV\u5916\u91ce
p3643
I3704
sV\u5357\u4eac
p3644
I3705
sVyoutube
p3645
I3706
sV\u53f0
p3646
I3707
sVmicrosoft
p3647
I3077
sV2002
p3648
I3709
sV2003
p3649
I2028
sV2000
p3650
I2336
sV\u4e0d\u5b89\u5b9a
p3651
I3712
sV2006
p3652
I973
sV2007
p3653
I2433
sV2004
p3654
I3715
sV2005
p3655
I2441
sV\u8fb2\u696d
p3656
I2449
sV2008
p3657
I3718
sV2009
p3658
I3719
sV\u9a5a\u7570
p3659
I3720
sV\u897f
p3660
I3722
sV\u5f7c\u3089
p3661
I3723
sV\u304a\u3057\u3083\u308c
p3662
I3724
sV\u52dd\u6557
p3663
I3725
sV\u56fd\u5185\u5916
p3664
I3726
sVkm
p3665
I3645
sV\u4e00\u5207
p3666
I3728
sV\u5287
p3667
I2560
sV\u5f37\u5316
p3668
I3710
sV\u5589
p3669
I3731
sV\u5408
p3670
I3732
sV09
p3671
I3602
sV\u4f1a\u8ac7
p3672
I3734
sV\u30bf\u30aa\u30eb
p3673
I2271
sV\u30ec\u30d3\u30e5\u30fc
p3674
I1422
sV\u4f53\u6e29
p3675
I1510
sV\u56fd\u55b6
p3676
I3082
sV\u901a\u7528
p3677
I1662
sV\u5916
p3678
I3739
sVgo
p3679
I3740
sV\u8a2a\u65e5
p3680
I2575
sV\u3052
p3681
I1732
sV\u56fd\u4f1a
p3682
I3742
sVgk
p3683
I3743
sV\u8fd1\u6240
p3684
I4250
sV\u5ddd\u5d0e
p3685
I1425
sV\u7121\u7406
p3686
I3745
sV\u30aa\u30f3\u30e9\u30a4\u30f3
p3687
I2725
sV\u793a\u5506
p3688
I3747
sV\u30cb\u30e5\u30fc\u30b9
p3689
I3748
sV\u30bb\u30c3\u30c8
p3690
I3749
sV\u71b1
p3691
I3750
sV\u9577\u7d9a\u304d
p3692
I3751
sV\u30b5\u30dd\u30fc\u30bf\u30fc
p3693
I2602
sV\u6c38
p3694
I3752
sV\u5f53\u305f\u308a
p3695
I3753
sVgb
p3696
I3738
sV\u5e0c\u671b
p3697
I3754
sV\u9577\u5b98
p3698
I3756
sV\u79c1
p3699
I3757
sV\u8457\u8005
p3700
I3758
sV\u30cf\u30a4
p3701
I3086
sV\u6c37
p3702
I4785
sV\u52c7
p3703
I3760
sV\u5146
p3704
I3761
sV\u8fbc\u307f
p3705
I3762
sV\uff23\uff33
p3706
I3641
sV\u30de\u30b7\u30f3
p3707
I2276
sV\u6bcd
p3708
I3765
sV\u5668\u5177
p3709
I3766
sV\u4ecf
p3710
I3767
sV\u8133
p3711
I2812
sV\u30bf\u30fc\u30f3
p3712
I1714
sV\u6a2a\u65ad
p3713
I2766
sVfacebook
p3714
I3655
sV\u983b\u5ea6
p3715
I2777
sV\u885d\u6483
p3716
I2781
sV\u30b7\u30f3\u30b0\u30eb
p3717
I4787
sV\u7de8
p3718
I3773
sV\u51fa\u5f35
p3719
I3774
sV\u30db
p3720
I2798
sV\u63a5\u5ba2
p3721
I3776
sV\u66ae\u3089\u3057
p3722
I3777
sV\u30b2\u30fc\u30e0
p3723
I3778
sV\u30d5\u30e9\u30a4\u30d1\u30f3
p3724
I777
sV\u61f8\u5ff5
p3725
I2505
sV\u4ed6\u4eba
p3726
I4956
sV\u58eb
p3727
I3783
sV\u5145\u5b9f
p3728
I3784
sV\u30b8\u30e3\u30ac\u30a4\u30e2
p3729
I3785
sV\u6c34\u7523
p3730
I2279
sV\u7a74
p3731
I3153
sV\u9078\u6319
p3732
I3788
sV\u4e0a\u4e0b
p3733
I3647
sV\u3060\u3089\u3051
p3734
I2414
sV\u76f8\u4e92
p3735
I3790
sV\u770b\u8b77
p3736
I3791
sV\u30bb\u30af\u30b7\u30fc
p3737
I4792
sV\u5185\u7530
p3738
I3793
sV\u30aa\u30d7\u30b7\u30e7\u30f3
p3739
I3794
sV\u7518\u5473
p3740
I4539
sV\u30ea\u30fc
p3741
I3795
sV\u30cf\u30c3\u30b7\u30e5
p3742
I3443
sV\u266a
p3743
I3797
sV\uff05
p3744
I967
sV\u5473\u308f\u3044
p3745
I2065
sV\u539f\u6599
p3746
I3800
sV1080
p3747
I1029
sV\u540d\u8a89
p3748
I3933
sV\u8a8c
p3749
I2973
sV\u8a2d\u7acb
p3750
I3803
sVlicensed
p3751
I3804
sV\u9023\u643a
p3752
I3805
sV\u3055\u307e
p3753
I4795
sV\u9996
p3754
I3807
sV\u7d19
p3755
I3014
sV\u9699\u9593
p3756
I3810
sV\u59c9\u59b9
p3757
I3811
sV\u4e2d\u76e4
p3758
I3812
sV\u9903\u5b50
p3759
I1084
sV\u5acc\u6c17
p3760
I3814
sV\u79d8\u66f8
p3761
I3815
sV\u5e2f
p3762
I3816
sV\u30d7\u30ed\u30d5\u30a3\u30fc\u30eb
p3763
I3817
sV\u30d9\u30f3\u30c1\u30e3\u30fc
p3764
I3100
sV\u983b\u7e41
p3765
I3819
sV\u30e2\u30f3\u30b9\u30bf\u30fc
p3766
I3324
sV\u6b69\u884c
p3767
I3821
sV\u4e2d\u56fd
p3768
I3822
sV\u30a4\u30ae\u30ea\u30b9
p3769
I3823
sV\u9ad8\u9a30
p3770
I3138
sV\u30a8\u30f3\u30b8\u30f3
p3771
I2412
sV\u4f1a\u8a71
p3772
I1228
sV\u30ef\u30fc\u30af
p3773
I3827
sV\u5224\u65ad
p3774
I3829
sV\u4f1a\u8a08
p3775
I3173
sV\uff26\uff37
p3776
I3185
sV\u9577\u5d0e
p3777
I4776
sV\u76f4\u7403
p3778
I4314
sV\u30ea\u30e9\u30c3\u30af\u30b9
p3779
I3833
sV\u52a0\u5165
p3780
I4752
sV\u516c\u958b
p3781
I3834
sV\u753b\u671f\u7684
p3782
I3835
sV\u30a4\u30f3\u30bf\u30fc\u30cd\u30c3\u30c8
p3783
I462
sV\u30a4\u30e4
p3784
I3837
sV\u60f3\u50cf
p3785
I3838
sVweb
p3786
I4690
sV\u30de\u30af\u30c9\u30ca\u30eb\u30c9
p3787
I3839
sV\u30e2\u30f3
p3788
I3840
sV\u30e2\u30fc
p3789
I3841
sV\u30ef\u30fc\u30c9
p3790
I3842
sV\u30de\u30a4\u30ca\u30d3\u30a6\u30fc\u30de\u30f3
p3791
I3323
sV\u30b8\u30e7\u30f3
p3792
I3844
sV\u3084\u308a\u3068\u308a
p3793
I3273
sV\u6751
p3794
I4804
sV39
p3795
I3281
sV38
p3796
I3848
sV360
p3797
I4409
sV\u6ed1\u3089\u304b
p3798
I1470
sV33
p3799
I3084
sV32
p3800
I3851
sV31
p3801
I2161
sV\u30b9\u30c6\u30a3\u30c3\u30af
p3802
I2677
sV37
p3803
I1003
sV36
p3804
I3319
sV35
p3805
I3856
sV34
p3806
I1059
sV\u4fa1
p3807
I4689
sV\u5225\u3005
p3808
I3858
sV\u5473
p3809
I3859
sV\u53f2
p3810
I3860
sV\u5177\u4f53
p3811
I3347
sV\u30a4\u30ec\u30d6\u30f3
p3812
I3862
sV\u5024\u6bb5
p3813
I3863
sV\u30a2\u30d7\u30ea\u30b1\u30fc\u30b7\u30e7\u30f3
p3814
I91
sV\u30a4\u30f3\u30bf\u30d3\u30e5\u30fc
p3815
I3074
sV\u8155
p3816
I4807
sV\u4f01\u753b
p3817
I3370
sV\u713c\u304d
p3818
I2041
sV\u30ef\u30f3
p3819
I3065
sV\u30df\u30eb\u30af
p3820
I3867
sV\u5206\u6790
p3821
I3869
sV\u9806\u756a
p3822
I3870
sVapple
p3823
I3872
sV\u7387
p3824
I3873
sV\u9006
p3825
I3874
sV\u30ed\u30f3\u30c9\u30f3
p3826
I3875
sV\u5408\u540c
p3827
I3161
sV\u5171\u901a
p3828
I3877
sV\u767a\u4fe1
p3829
I3439
sV\u4e00\u5e2f
p3830
I3879
sV\u30c7\u30b6\u30a4\u30f3
p3831
I3450
sV\u5f85\u6a5f
p3832
I3881
sV\u9014\u4e2d
p3833
I3882
sV\u5473\u564c
p3834
I4309
sV\u897f\u6b66
p3835
I2934
sV\u3046\u3048
p3836
I3884
sVreserved
p3837
I3952
sV\u8c6a\u83ef
p3838
I3886
sV\u5f37\u70c8
p3839
I3106
sV\u25b6
p3840
I3888
sV\u53d7\u4ed8
p3841
I3889
sV\u9001\u4fe1
p3842
I3436
sV\u9078\u624b
p3843
I3891
sV\u53cd\u7701
p3844
I1085
sV\u624b\u9806
p3845
I25
sV\u30a8\u30f3\u30b8\u30cb\u30a2
p3846
I2545
sV\u5de6
p3847
I4760
sV\u767b\u5834
p3848
I2883
sV\u89aa\u5b50
p3849
I3896
sV\u8ee2\u8f09
p3850
I3897
sV\u80fd\u529b
p3851
I1045
sV\u30d6\u30c3\u30af
p3852
I3899
sV\u3046\u3061
p3853
I3571
sV\uff32
p3854
I3902
sV\u9014\u4e0a
p3855
I3903
sV\u77e5\u308a\u5408\u3044
p3856
I693
sV\u56fd\u5883
p3857
I3905
sV\u4ffa
p3858
I3866
sV\u6cb9
p3859
I3906
sV\u81ea\u5206
p3860
I3603
sV\u4efb\u610f
p3861
I3908
sV\u6ce8\u6587
p3862
I3616
sV\u58c1
p3863
I3910
sV\u51fa\u5e2d
p3864
I3911
sV\u30a4\u30b9\u30e9\u30e0
p3865
I3849
sV\u624b\u5165\u308c
p3866
I3643
sV\u9069\u91cf
p3867
I3913
sVon
p3868
I2300
sV\u89e3\u8aac
p3869
I4376
sV\u6b4c
p3870
I3916
sV\u9023\u65e5
p3871
I666
sV\u30d4\u30f3
p3872
I3959
sV\u6b53\u559c
p3873
I3662
sV\u76ee\u6a19
p3874
I3919
sV\u30b0\u30eb\u30e1
p3875
I2091
sV\u611b\u60c5
p3876
I3921
sV\u653e\u9001
p3877
I1155
sV\u5965
p3878
I3923
sV\u305d\u308c\u3089
p3879
I3924
sV\u52dd
p3880
I3746
sV\u57df
p3881
I3926
sV\u53ce\u7d0d
p3882
I4819
sV\u9a12\u52d5
p3883
I8
sV5000
p3884
I2598
sVf
p3885
I3929
sVthis
p3886
I3787
sV\u4e88\u60f3
p3887
I3789
sV\u30d5\u30ec\u30fc\u30e0
p3888
I1411
sV\u52d5\u54e1
p3889
I3058
sV\u4e3c
p3890
I3934
sV\u653b\u6483
p3891
I3935
sV\u6f14\u594f
p3892
I3735
sV\u8d77\u52d5
p3893
I3485
sV\u5272
p3894
I3915
sV\u958b\u5e97
p3895
I533
sV\u9774
p3896
I867
sV\u5ec3\u6b62
p3897
I2303
sV\u63b2\u793a\u677f
p3898
I3942
sV\u30d4\u30ea
p3899
I3965
sV\u793e
p3900
I3944
sV\uff21\uff26\uff30
p3901
I3945
sV\u30a2\u30a4\u30c9\u30eb
p3902
I3946
sV\u67ff
p3903
I3947
sV\uff11\u3064
p3904
I3948
sV\u5e97\u5185
p3905
I3950
sV\u5de6\u8db3
p3906
I1252
sV\u89b3\u5bdf
p3907
I3885
sV\u30d1\u30d5\u30a9\u30fc\u30de\u30f3\u30b9
p3908
I3953
sV\u6709\u6a5f
p3909
I3954
sV\u30dd\u30b1\u30e2\u30f3
p3910
I1321
sV\u5409
p3911
I3956
sV\u3053\u3063\u3061
p3912
I3957
sV\u968a
p3913
I1091
sV\u7fa4\u99ac
p3914
I3119
sV\u4f11\u307f
p3915
I3960
sV\u5b58\u7d9a
p3916
I2719
sV\u4f7f\u3044\u65b9
p3917
I3962
sV\u6442\u53d6
p3918
I3963
sV\u30a2\u30ca\u30a6\u30f3\u30b9
p3919
I2245
sV\u88c5\u5099
p3920
I3943
sV\u8b66\u8996\u5e81
p3921
I3966
sV\u7d20\u76f4
p3922
I3967
sV\u4fdd\u6709
p3923
I3925
sV\u7279\u96c6
p3924
I4825
sV\u521d
p3925
I3968
sV\u611b
p3926
I3969
sV\u771f
p3927
I2538
sV\u30a4\u30ab
p3928
I3971
sV\u6821
p3929
I3972
sV\u77f3\u6cb9
p3930
I3973
sV\u30b8\u30e3\u30b1\u30c3\u30c8
p3931
I4166
sV\u7d50\u5a5a
p3932
I3974
sV\u73fe\u91d1
p3933
I3975
sV\u30c0\u30d6\u30eb
p3934
I894
sV\u7d46
p3935
I3123
sV\u691c\u51fa
p3936
I3978
sV\u5c0f\u58f2
p3937
I3979
sV\u9031
p3938
I3980
sV\u512a\u5148
p3939
I3981
sV\u671f
p3940
I2269
sV\u9762\u5012
p3941
I2954
sV\u8b1b\u5e2b
p3942
I3984
sV\u4ed9\u53f0
p3943
I3985
sV\u524d\u7dda
p3944
I4493
sV\u6e29\u5ea6
p3945
I3986
sVafp
p3946
I3987
sVsim
p3947
I3988
sVprofile
p3948
I3989
sV\u7d42\u76e4
p3949
I3990
sV\u81ea\u5df1
p3950
I3991
sV\u3044\u304f\u3089
p3951
I3992
sV\u5e45
p3952
I3993
sV\u30a2\u30d5\u30ea\u30ab
p3953
I2312
sV\u5fc3\u914d
p3954
I3994
sV\u30d4\u30b6
p3955
I3995
sV\u30d5\u30a3\u30c3\u30c8
p3956
I3996
sV\u98f2\u6599
p3957
I3998
sV\u30aa\u30fc\u30c7\u30a3\u30aa
p3958
I3999
sV\u5927\u5b66
p3959
I4000
sV\u30ab\u30c3\u30d7
p3960
I4001
sV\u76f4\u9762
p3961
I3825
sV\u5b57
p3962
I4002
sV\u9055\u3044
p3963
I2346
sV\u533b\u5e2b
p3964
I4004
sV\u30d3\u30fc\u30d5
p3965
I4005
sV\u53cd\u97ff
p3966
I4006
sV\u614e
p3967
I4007
sV\u30a2\u30af\u30bb\u30b9
p3968
I1682
sV\u8a2d\u5b9a
p3969
I4009
sV\u4e00\u53e3
p3970
I4010
sV\u4f5c\u66f2
p3971
I4011
sV\u30d3\u30fc\u30eb
p3972
I4014
sV\u30cb\u30e3\u30f3\u30b3
p3973
I3398
sV\u81ea\u52d5
p3974
I4016
sV\u30da\u30fc\u30b9
p3975
I4017
sV\u30da\u30fc\u30b8
p3976
I4018
sV\u5473\u564c\u6c41
p3977
I4019
sV\u97f3\u8cea
p3978
I4020
sV\u9078\u629e
p3979
I4021
sV\u7de9\u548c
p3980
I2150
sV\u9078\u629c
p3981
I165
sV\u5b89\u4fa1
p3982
I4025
sV\u89b3\u5ba2
p3983
I2423
sV\u4eac\u90fd
p3984
I4027
sV\u9023\u6557
p3985
I4028
sV\u967d
p3986
I3334
sV\u677f
p3987
I4030
sV\u65e5\u5e38
p3988
I4031
sV\u8eab\u5143
p3989
I4032
sV\u56fd\u5bb6
p3990
I3003
sV\u30e6\u30fc\u30ed
p3991
I4035
sV\u8abf\u3079
p3992
I4036
sV\u81ea\u7136
p3993
I4037
sV\u6570\u3005
p3994
I3133
sV\u7279\u5225
p3995
I4039
sV\u7ffb\u8a33
p3996
I4040
sV\u6210
p3997
I4041
sV130
p3998
I4042
sV\u5897
p3999
I4043
sV\u4f4f\u5b85
p4000
I4012
sV\u30bd\u30ed
p4001
I4045
sV\u5b9a\u8a55
p4002
I4046
sV\u529b
p4003
I4047
sV\u7d1a
p4004
I4048
sV\u6642\u671f
p4005
I4049
sV\u632f\u8208
p4006
I3831
sV\u7d76\u54c1
p4007
I3064
sV\u30cf\u30a6\u30b9
p4008
I1502
sV\u5f18\u884c
p4009
I2323
sV\u7d76\u597d
p4010
I4055
sV\u89b3\u6e2c
p4011
I4056
sV\u4e0d\u900f\u660e
p4012
I4057
sV\u30ac\u30a4\u30c9
p4013
I4058
sV\u7a3c\u50cd
p4014
I3626
sV\u9280\u5ea7
p4015
I4060
sV\u3073\u3063\u304f\u308a
p4016
I4061
sV\u30de\u30c3\u30b5\u30fc\u30b8
p4017
I4063
sV\u71c3\u8cbb
p4018
I4064
sV\u30e0\u30fc\u30d3\u30fc
p4019
I2096
sV2018
p4020
I4065
sV\u30a8\u30f3
p4021
I4066
sV\u604b\u611b
p4022
I3871
sV\u4e38
p4023
I4068
sV2017
p4024
I4069
sV\u795e
p4025
I4070
sV\u30ea\u30a2\u30eb
p4026
I1820
sV2010
p4027
I4072
sV2013
p4028
I4073
sV\u56de\u5fa9
p4029
I3818
sV\u30d7\u30ec\u30c3\u30b7\u30e3\u30fc
p4030
I4075
sV\u5efa\u8a2d
p4031
I4076
sV\u5343\u8449
p4032
I4077
sV\u8abf\u6574
p4033
I2327
sV\u914d\u4fe1
p4034
I4079
sV\u897f\u5ddd
p4035
I3780
sV\u2460
p4036
I3141
sV\u5b9f\u9a13
p4037
I4843
sV\u8a00\u8449
p4038
I2711
sV\u6700\u4f4e
p4039
I4084
sV\u884c
p4040
I4085
sV\u65b0\u4f5c
p4041
I4086
sV\u72ec\u7acb
p4042
I4844
sV\u30ea\u30be\u30fc\u30c8
p4043
I4087
sV\uff2d\uff26
p4044
I683
sV\u516c\u5712
p4045
I4089
sV\u7b56
p4046
I4090
sV\u8eca\u5185
p4047
I4091
sV\u592b
p4048
I4029
sV\u3061\u3083\u3093
p4049
I3497
sV\u5b97\u6559
p4050
I4093
sV\u4ee3
p4051
I4094
sV\u30b5\u30e0\u30b9\u30f3
p4052
I1488
sV\u30b7\u30fc\u30f3
p4053
I4096
sV\u4e00\u3064
p4054
I4097
sV\u4e3b\u529b
p4055
I4098
sV\u4f1a\u8b70
p4056
I4099
sV\u30aa\u30ea\u30fc\u30d6
p4057
I4848
sV\u66f4\u65b0
p4058
I4101
sV://
p4059
I268
sV\u643a\u5e2f
p4060
I4103
sV\u56f3
p4061
I4104
sV\u9996\u8133
p4062
I4105
sV\u30ab\u30a6\u30f3\u30bf\u30fc
p4063
I4106
sV\u3069\u3053\u308d
p4064
I4107
sV\u8868
p4065
I4108
sV\u5f53\u5c40
p4066
I4109
sV\u65e2\u5b58
p4067
I4110
sV\u88dc\u7d66
p4068
I1674
sV\u30b5\u30a4\u30ba
p4069
I4112
sV\u30a2\u30b8\u30a2
p4070
I4294
sV\u540d\u53e4\u5c4b
p4071
I4113
sV\u9593\u9055\u3044
p4072
I3120
sV\u6750\u6599
p4073
I3147
sV\u5426\u5b9a
p4074
I4115
sV\u7761\u7720
p4075
I4116
sV\u30d5\u30a9\u30c8
p4076
I4117
sV\u584a
p4077
I4118
sV\u5e73\u548c
p4078
I2334
sV700
p4079
I4120
sV\u8996\u91ce
p4080
I1151
sV\u6301\u53c2
p4081
I4034
sV\u753b\u9762
p4082
I910
sV88
p4083
I4125
sV89
p4084
I2740
sV\u62b5\u6297
p4085
I4379
sV\uff5e\u300d
p4086
I4127
sV\u30b7\u30eb\u30d0\u30fc
p4087
I4128
sV\u3064\u307e\u308a
p4088
I4129
sV82
p4089
I1479
sV\uff5e\u3001
p4090
I4131
sV\u30b0\u30ec\u30fc\u30c9
p4091
I3549
sV\u75c5\u9662
p4092
I640
sV\u751f\u6210
p4093
I4134
sV\u5927\u4e45\u4fdd
p4094
I4135
sV\u6b21
p4095
I4136
sV\u8aa0
p4096
I4137
sV'
p4097
I4139
sV\u66f8\u7c4d
p4098
I4140
sV\u5730\u533a
p4099
I4141
sV\u8cc7\u683c
p4100
I4142
sV\u6620\u50cf
p4101
I4143
sV\u4e00\u751f
p4102
I4145
sV\u30de\u30b9\u30b3\u30df
p4103
I4146
sV\u30d5\u30a9\u30f3
p4104
I4147
sV\u4eba\u751f
p4105
I4148
sV\u770c
p4106
I4718
sV\u52dd\u624b
p4107
I4853
sV\u5175\u5eab
p4108
I4150
sV\u30ab\u30ec\u30fc
p4109
I4151
sV\u91ce\u6751
p4110
I4152
sV\u672c\u683c
p4111
I4153
sV\u5e74\u751f
p4112
I3007
sV\u7528\u610f
p4113
I1583
sV\u30b9\u30bf\u30f3\u30c9
p4114
I4155
sV\u30bb\u30ec\u30d6
p4115
I4156
sV\u3064\u304d
p4116
I4088
sV\u7523\u696d
p4117
I469
sV\u75c7\u72b6
p4118
I2341
sV\u8a18\u9332
p4119
I3208
sV\u904e\u7a0b
p4120
I52
sV\u540d\u79f0
p4121
I4161
sV\u9ad8\u984d
p4122
I4158
sV\u73fe\u72b6
p4123
I4163
sV\u30ab\u30c3\u30c8
p4124
I4164
sV\u6700\u8fd1
p4125
I142
sV\u640d\u5931
p4126
I144
sV\u307f\u306a
p4127
I4167
sV\u30bd\u9023
p4128
I4168
sV\u525b
p4129
I163
sV\u7dda
p4130
I4170
sV\u57fa\u5730
p4131
I4172
sV\u307f\u305d
p4132
I4173
sV\u524d\u56de
p4133
I4174
sV\u4ed5\u69d8
p4134
I565
sVg
p4135
I4176
sV\u5e38\u6642
p4136
I219
sV\u30d5\u30e9\u30c3\u30b7\u30e5
p4137
I4178
sV\u4e00\u90e8
p4138
I4179
sV\u8907\u6570
p4139
I4860
sV\u796d
p4140
I4181
sV\u8266
p4141
I4244
sV\u30e1\u30b8\u30e3\u30fc
p4142
I4183
sV\u96f0\u56f2\u6c17
p4143
I2355
sVlte
p4144
I4185
sV\u8ffd\u6c42
p4145
I4186
sV\u6f2b\u753b
p4146
I4187
sV\u8ef8
p4147
I4188
sV\u3064\u3051
p4148
I602
sV\u30e9\u30fc\u30e1\u30f3
p4149
I4192
sV\u84c4\u7a4d
p4150
I323
sV\u7518\u307f
p4151
I3904
sV\u5206
p4152
I3521
sV\u8aac\u660e
p4153
I4193
sV\u30b0\u30ec\u30fc
p4154
I4194
sV\u30a4\u30f3
p4155
I4195
sV\u629c\u7c8b
p4156
I4196
sV\u5929\u7136
p4157
I4197
sV\u69cb\u9020
p4158
I4198
sV\u5408\u610f
p4159
I4199
sV\u82e6\u6226
p4160
I4200
sV\uff18
p4161
I400
sV\u304a\u5ba2\u69d8
p4162
I4202
sV\u964d\u677f
p4163
I4203
sV\u8d77\u70b9
p4164
I4204
sV\u30cf\u30ed\u30a6\u30a3\u30f3
p4165
I4205
sV\u5897\u5927
p4166
I4206
sV\u78ba\u8a8d
p4167
I421
sV\u6b8b\u308a
p4168
I3931
sV\u304a\u4e92\u3044
p4169
I2752
sV\u304a\u304b\u305a
p4170
I443
sV\u6226
p4171
I446
sV\u6728
p4172
I4211
sV\uff09\uff5e
p4173
I3163
sV\u7d30\u90e8
p4174
I4254
sV\u304a\u304b\u3052
p4175
I4212
sV\u53d7\u6ce8
p4176
I477
sV\u30d5\u30a3\u30b9\u30b3
p4177
I4214
sV\u5909
p4178
I4215
sV\u7537\u306e\u5b50
p4179
I487
sV\u30e1\u30a4\u30c9
p4180
I4217
sV\u304b\u3051
p4181
I4251
sV\u51fa\u5c55
p4182
I4218
sV\u6e80\u70b9
p4183
I518
sV\u306f\u3058\u3081
p4184
I1601
sV\u5fc3
p4185
I4221
sV\u6e80\u8f09
p4186
I2690
sV\u30df\u30e5\u30fc\u30b8\u30c3\u30af
p4187
I4223
sV\u7d44
p4188
I4224
sV\u5de5\u592b
p4189
I4225
sV\u4f1a\u898b
p4190
I560
sV\u4eca\u79cb
p4191
I4227
sV\u30b9\u30de
p4192
I4871
sV\u9752\u6625
p4193
I4231
sV\u756a\u76ee
p4194
I4232
sV\u8ffd\u8de1
p4195
I4233
sV\u5b66\u751f
p4196
I4234
sV\uff5e\uff09
p4197
I4235
sV\u60c5\u5831
p4198
I4236
sV\u884c\u4e8b
p4199
I3615
sV\u305d\u306e\u5f8c
p4200
I4237
sV\u307b\u306e\u304b
p4201
I4746
sV\u611f\u6fc0
p4202
I4238
sV\u9678\u4e0a
p4203
I2948
sV\u682a\u5f0f\u4f1a\u793e
p4204
I4240
sV\u8a95\u751f
p4205
I4241
sV\u96fb\u5b50
p4206
I2272
sV\u4e0d\u6e80
p4207
I681
sV\u7f8e\u5bb9
p4208
I336
sV\u516d\u672c\u6728
p4209
I700
sV\u30b3\u30f3\u30d1\u30af\u30c8
p4210
I4246
sV\u51fa\u73fe
p4211
I4247
sV\u30d8\u30ea\u30b3\u30d7\u30bf\u30fc
p4212
I4248
sV\u5148\u9032
p4213
I2087
sV\u77f3
p4214
I737
sV\u30a2\u30a4\u30b3
p4215
I4252
sV\u65e8
p4216
I4253
sV\u793e\u5185
p4217
I4102
sV\u30c1\u30ad\u30f3
p4218
I769
sV\u82e6\u624b
p4219
I4255
sV\u30a2\u30a4\u30b9
p4220
I4256
sV\u65e2\u5a5a
p4221
I4138
sV\u30ec\u30b9
p4222
I4258
sV\u5c06
p4223
I3234
sV\u4ec1
p4224
I4260
sV\u6291\u5236
p4225
I4261
sV\u96ea
p4226
I1513
sV\u30dc\u30fc\u30ab\u30eb
p4227
I3171
sV\u4eba\u985e
p4228
I4264
sV\u8a72\u5f53
p4229
I4265
sV\u30a2\u30a6\u30a7\u30fc
p4230
I4924
sV\u6839\u62e0
p4231
I4266
sV\u30d3\u30c7\u30aa
p4232
I3920
sV\u97f3\u6e90
p4233
I4267
sV\u516c\u76ca
p4234
I4268
sV\u4e00\u89d2
p4235
I4269
sV\u30de\u30c3\u30c8
p4236
I2633
sV\u602a\u6211
p4237
I4062
sV\u5f37\u307f
p4238
I3172
sV\u30ea\u30b9\u30af
p4239
I1840
sV\u30de\u30a4\u30af\u30ed
p4240
I4274
sV\u98fc\u80b2
p4241
I4880
sV\u30b7\u30ca\u30ea\u30aa
p4242
I4276
sV\u30d9\u30b9\u30c8
p4243
I4277
sV\u751f
p4244
I4278
sV\u5b66\u5712
p4245
I4279
sV\u539a
p4246
I3175
sV\u95a2\u7bc0
p4247
I4281
sV\u65b0\u4eba
p4248
I924
sV\u8a00\u8a9e
p4249
I3176
sV\u30cf\u30f3\u30c9\u30eb
p4250
I1735
sV\u982d
p4251
I4284
sV\u99ac
p4252
I4285
sV\u7dca\u6025
p4253
I4003
sV\u5927\u962a
p4254
I3177
sV\u653f\u7b56
p4255
I4283
sV320
p4256
I4288
sV\u5404\u56fd
p4257
I4289
sV\u5352\u696d
p4258
I3741
sV\u81ea\u3089
p4259
I965
sV\u7d9a\u51fa
p4260
I4291
sV\u30b0\u30eb\u30fc\u30d7
p4261
I4292
sV\u89b3\u5149
p4262
I4293
sV\u4eee\u60f3
p4263
I2476
sV=
p4264
I4295
sV\u6b74\u4ee3
p4265
I4296
sV\u30b9\u30bf\u30f3\u30c0\u30fc\u30c9
p4266
I3535
sV\u7bc0
p4267
I1697
sV\u884c\u697d
p4268
I4300
sV\u51e6\u5206
p4269
I2818
sV\u30c9\u30ca\u30eb\u30c9
p4270
I657
sV\u5225\u308c
p4271
I3179
sV\u9662
p4272
I4304
sV\u7d39\u4ecb
p4273
I3180
sV\u4e2d\u53e4
p4274
I4609
sV\u52b4\u50cd
p4275
I4306
sV\u30b0\u30e9\u30d3\u30a2
p4276
I4884
sV\u4e2d\u9593
p4277
I4308
sV\u4e0a\u624b
p4278
I1088
sV\u6bce\u9031
p4279
I4310
sV\u30b9\u30dd\u30fc\u30c4
p4280
I4311
sV\u540c\u56fd
p4281
I4312
sV\u305d
p4282
I4313
sV\u56de\u8ee2
p4283
I1524
sV\u56de
p4284
I4315
sV\u4ee5\u4e0a
p4285
I1291
sV\u8acb\u6c42
p4286
I4316
sV\u51fa\u5e97
p4287
I4317
sV\u30d0\u30ea\u30a8\u30fc\u30b7\u30e7\u30f3
p4288
I4318
sV\u81ea\u885b\u968a
p4289
I1135
sV\u6750
p4290
I4886
sV\u6669
p4291
I1143
sV\u9332\u753b
p4292
I4321
sV\u30eb\u30fc\u30ad\u30fc
p4293
I4322
sV\u4eca\u9031
p4294
I4323
sV\u6df1\u307f
p4295
I4324
sV\u6e29\u6cc9
p4296
I4325
sV\u5929
p4297
I639
sV\u53ef\u80fd
p4298
I4184
sV\u30a8\u30f3\u30c7\u30a3\u30f3\u30b0
p4299
I4327
sV\u305f\u3063\u3077\u308a
p4300
I4026
sV\u6771\u90e8
p4301
I1283
sV\u30aa\u30fc\u30d0\u30fc
p4302
I1207
sV\u9020\u308a
p4303
I3850
sV\u6c5a\u308c
p4304
I4333
sV\u30ad\u30e5\u30fc\u30c8
p4305
I1584
sV\u8003\u6848
p4306
I1238
sV\u5b85
p4307
I4336
sV\u5fc5\u9808
p4308
I4337
sV\u5e02\u5185
p4309
I3019
sV\u30ad\u30e3\u30c3\u30c1
p4310
I4339
sVtext
p4311
I1261
sV\u30ab\u30e1\u30e9
p4312
I1696
sV\u6e56
p4313
I2371
sV\u4e0a\u65ec
p4314
I4405
sV\u30e9\u30a4\u30f3
p4315
I4342
sV\u30b7\u30a7\u30d5
p4316
I3356
sV\u30a8\u30a2
p4317
I4344
sV\u7dcf\u5408
p4318
I3050
sV\u4e8b\u4ef6
p4319
I4347
sV\u5e97
p4320
I4228
sV\u4e3b\u984c\u6b4c
p4321
I2523
sV\u5999
p4322
I262
sV\u52df\u96c6
p4323
I1314
sV\u751f\u304d\u7269
p4324
I4352
sV\u610f\u5473
p4325
I1324
sV\u529f
p4326
I4354
sV\u5b50\u80b2\u3066
p4327
I1351
sV\u7537\u5b50
p4328
I4083
sV\u88c1\u5224
p4329
I4357
sV6000
p4330
I4358
sV(
p4331
I3501
sV\u9ad8\u5ea6
p4332
I332
sV\u76f8\u8ac7
p4333
I4361
sV\u65e5\u6642
p4334
I4362
sV\u62d2\u5426
p4335
I2750
sV\u30e9\u30a4\u30d0\u30eb
p4336
I1536
sV\u5b50\u72ac
p4337
I2376
sV\u516c\u5171
p4338
I4365
sV\u30e2\u30ce
p4339
I3852
sV\u4ee3\u91d1
p4340
I1116
sV\u7dba\u9e97
p4341
I1259
sV\u672c\u4eba
p4342
I1515
sV\u663c
p4343
I1439
sV\u5148\u65e5
p4344
I2969
sV\u559c\u3073
p4345
I4372
sV\u61b2\u6cd5
p4346
I1456
sV\u6295\u7a3f
p4347
I4374
sV\u30c1\u30e7\u30b3\u30ec\u30fc\u30c8
p4348
I4375
sV\u30d1\u30bd\u30b3\u30f3
p4349
I4983
sV\u5546
p4350
I3216
sV\u30a4\u30d9\u30f3\u30c8
p4351
I4377
sV\u30ab\u30d0\u30fc
p4352
I4378
sVtbs
p4353
I1610
sV\u5c0f\u5b66\u751f
p4354
I3708
sV\u56de\u7b54
p4355
I4381
sV\u6804\u990a
p4356
I2600
sV\u4eba\u53e3
p4357
I4383
sV120
p4358
I4384
sV122
p4359
I4385
sV\u5206\u62c5
p4360
I946
sV\u30d1\u30fc\u30c8\u30ca\u30fc
p4361
I4387
sV\u82f1\u8a9e
p4362
I1541
sV\u907f\u96e3
p4363
I4389
sV\u7e70\u308a\u8fd4\u3057
p4364
I4390
sV\u3082\u3061
p4365
I3315
sV\u8de1
p4366
I4392
sV\u6c60
p4367
I4393
sV\u30e6\u30cd\u30b9\u30b3
p4368
I4394
sV\u4e0d\u8981
p4369
I4395
sV\u5370\u5237
p4370
I4396
sV\u97f3\u697d
p4371
I4397
sV\u30b7\u30a7\u30a2
p4372
I4398
sV\u9759\u5ca1
p4373
I4399
sV\u5973\u6027
p4374
I744
sV\u767a\u898b
p4375
I4401
sV\u30ae\u30e3\u30e9\u30ea\u30fc
p4376
I1543
sV\u7aef
p4377
I4403
sV\u5bb6\u65cf
p4378
I1617
sV\u8857
p4379
I1654
sV\u6642\u77ed
p4380
I4406
sV\u30f3
p4381
I4407
sV\u30c7\u30b6\u30fc\u30c8
p4382
I4408
sV\u30c8\u30eb\u30af
p4383
I828
sV\u7121\u3057
p4384
I4410
sV\u64cd\u4f5c
p4385
I4411
sV\u9031\u672b
p4386
I4412
sV\u69cb\u7bc9
p4387
I3468
sV\u610f\u5411
p4388
I4415
sV|
p4389
I4111
sV\u5236\u5fa1
p4390
I4355
sV\u9803
p4391
I1691
sV\u3061\u308a
p4392
I1437
sV\u30d2\u30f3\u30c8
p4393
I2847
sV\u30ed\u30c3\u30c6
p4394
I4421
sV\u7a7a\u4e2d
p4395
I3198
sV\u6210\u4eba
p4396
I4423
sV\u5c11\u306a\u3081
p4397
I1717
sV\u5f8c\u4efb
p4398
I4425
sV\u5fc3\u7406
p4399
I1729
sV\u5168\u8eab
p4400
I2155
sV\u3072\u3068\u3064\u3072\u3068\u3064
p4401
I1755
sV\u8077\u5834
p4402
I4429
sV\u533b\u5b66
p4403
I4430
sV\u5bc4\u4ed8
p4404
I4431
sV\u5378\u58f2
p4405
I4432
sV\u30ae\u30ea\u30ae\u30ea
p4406
I4433
sV\u541b
p4407
I4434
sV\u30de\u30c3\u30c1
p4408
I4435
sV\u65b0\u898f
p4409
I1792
sV\u6599\u91d1
p4410
I3736
sV\u7406\u4e8b
p4411
I4438
sV\u5316\u5b66
p4412
I272
sV\u51fa\u529b
p4413
I3389
sV\u819d
p4414
I4441
sV\u5168\u56fd
p4415
I4442
sV\u30b9\u30bf\u30c3\u30d5
p4416
I1849
sV\u53f3
p4417
I4444
sV\u30d0\u30c3\u30af
p4418
I4742
sV\u56db\u5b63
p4419
I4446
sV\u65e5\u66dc
p4420
I1871
sV\u5c71\u5f62
p4421
I4448
sVgalaxy
p4422
I4050
sV\u6717\u5831
p4423
I1887
sV\u6b4c\u8a5e
p4424
I4451
sV\u30e1\u30a4\u30af
p4425
I1056
sV\u671d\u9bae
p4426
I587
sV\u5929\u7687
p4427
I4454
sV\u4e2d\u5b66\u751f
p4428
I4382
sV\u30c0\u30a4\u30ec\u30af\u30c8
p4429
I4456
sV\u30e2\u30fc\u30cb\u30f3\u30b0
p4430
I4457
sV\u6574\u5099
p4431
I3681
sV\u30c6\u30af\u30ce\u30ed\u30b8\u30fc
p4432
I1941
sV\u30b1\u30fc\u30ad
p4433
I4459
sV\u9060\u85e4
p4434
I4460
sV\u512a\u52dd
p4435
I4051
sV\u5149
p4436
I4462
sV\u4fdd\u967a
p4437
I4463
sV\u90ca\u5916
p4438
I1961
sV\u4f4d\u7f6e
p4439
I4465
sV\u4f4d
p4440
I4466
sV\u5fdc\u3048
p4441
I4467
sV\u30d3\u30bf\u30df\u30f3
p4442
I4468
sV\u666e\u53ca
p4443
I2779
sV\u3053\u308c\u3089
p4444
I4469
sV\u5076\u7136
p4445
I2010
sV\u3042\u3061\u3053\u3061
p4446
I4471
sV\u8d70\u308a
p4447
I4472
sV\u884c\u653f
p4448
I4473
sV\u88cf\u5074
p4449
I4474
sVios
p4450
I4642
sV\u30d5\u30b8\u30c6\u30ec\u30d3
p4451
I3350
sV\u6e80\u9762
p4452
I4476
sV\u8863
p4453
I4477
sV\u6050\u6016
p4454
I4478
sV\u30e1\u30a4\u30f3
p4455
I4479
sV\u30a4\u30aa\u30f3
p4456
I4123
sV\u88fd\u4f5c
p4457
I4482
sV\u80cc\u5f8c
p4458
I2081
sV\u4e8b\u52d9\u6240
p4459
I4484
sV\u767a\u8a00
p4460
I441
sV\u91cd\u8996
p4461
I4620
sV\u5468\u6ce2\u6570
p4462
I4915
sV\u30c9\u30ed\u30c3\u30d7
p4463
I4486
sV\u7de0\u7d50
p4464
I2737
sV\u682a\u5f0f
p4465
I2466
sV\u9375
p4466
I2121
sV\u88dc\u6b63
p4467
I4490
sV\u5149\u666f
p4468
I2842
sV\u88f8
p4469
I4492
sV\u7a7a\u9593
p4470
I2393
sV\u30e9\u30c3\u30d7
p4471
I4494
sV\u628a\u63e1
p4472
I3012
sV\u30bb\u30fb\u30ea\u30fc\u30b0
p4473
I4497
sVck
p4474
I4498
sV\u30b0\u30c3\u30ba
p4475
I158
sV\u8abf\u9054
p4476
I4059
sVco
p4477
I4501
sV\u99c6\u52d5
p4478
I2187
sV\u4f5c\u6210
p4479
I2475
sV\u7406
p4480
I4504
sV\u3089
p4481
I3402
sV\u79f0\u8cdb
p4482
I4506
sV\u7d76\u53eb
p4483
I2211
sV\u5c11\u5973
p4484
I2280
sVcd
p4485
I4509
sV\u304a\u7236\u3055\u3093
p4486
I4510
sV\u5b85\u914d
p4487
I4511
sV\u7d99\u7d9a
p4488
I4512
sV\u30af\u30ea\u30a2
p4489
I2238
sV\u62db\u96c6
p4490
I4514
sV\u5f97
p4491
I2247
sV\u91d1\u5229
p4492
I3351
sV\u30b3\u30e9\u30dc\u30ec\u30fc\u30b7\u30e7\u30f3
p4493
I4517
sV\u671f\u5f85
p4494
I4518
sV\u30c8\u30e9\u30c3\u30af
p4495
I4519
sV\u5171\u540c
p4496
I4520
sV\u539f
p4497
I4521
sV\u82e5\u5e72
p4498
I4522
sV\u30ad\u30e3\u30f3\u30da\u30fc\u30f3
p4499
I3832
sV\u304a\u3059\u3059\u3081
p4500
I2287
sV\u7de8\u96c6
p4501
I4443
sV\u5927\u5b66\u751f
p4502
I4525
sV\u80a9
p4503
I2310
sV\u30a4\u30c1
p4504
I4527
sV\u30e1\u30e2\u30ea
p4505
I4528
sV\u822a
p4506
I2320
sV\u5ead
p4507
I4530
sV\u6e2c\u5b9a
p4508
I4353
sV\u30b9\u30bf\u30b8\u30a2\u30e0
p4509
I4532
sV\u4f5c\u6226
p4510
I4533
sV\u5e78\u305b
p4511
I4534
sV\u304a\u6e6f
p4512
I3231
sV\u9762\u7a4d
p4513
I4536
sV\u30af\u30c1\u30b3\u30df
p4514
I4537
sV\u6bce\u56de
p4515
I4538
sV\u30d6\u30e9\u30f3\u30c9
p4516
I3887
sV\u30c0\u30a6\u30f3
p4517
I3802
sV\u5185\u5074
p4518
I2878
sV\u753b\u50cf
p4519
I2382
sV\u6b21\u671f
p4520
I4541
sV\u6b21\u4e16\u4ee3
p4521
I2391
sV\u4e2d\u90e8
p4522
I4779
sV\u4e00\u6589
p4523
I4543
sV\u4eca\u6708
p4524
I4544
sV\u9ad8\u7b49
p4525
I4126
sV\u30ce\u30a4\u30ba
p4526
I2607
sV\u7126\u70b9
p4527
I913
sV\u6551\u51fa
p4528
I4548
sV\u5727\u5dfb
p4529
I2440
sV\u9023\u52dd
p4530
I4008
sV\u4e57\u7528\u8eca
p4531
I2447
sV\u30c6\u30af\u30cb\u30c3\u30af
p4532
I4552
sV\u53d6\u6750
p4533
I4553
sV2015
p4534
I4067
sV\u30a2\u30b7\u30b9\u30c8
p4535
I2467
sV\u30c8\u30eb\u30b3
p4536
I4556
sV\u524d\u8ff0
p4537
I1050
sV\u5fd7
p4538
I2572
sV\u30db\u30e9\u30fc
p4539
I2492
sV\u72ec\u8eab
p4540
I4560
sV\u8981\u671b
p4541
I3308
sV\u6bcd\u89aa
p4542
I3410
sV\u5f92\u6b69
p4543
I4563
sV\u7279\u9577
p4544
I4564
sV\u6d17\u7df4
p4545
I4907
sV\u30d1\u30e9\u30ea\u30f3\u30d4\u30c3\u30af
p4546
I4565
sV\u307f\u305f\u3044
p4547
I4566
sV\u30b3\u30b9
p4548
I3697
sV\u73fe\u4ee3
p4549
I4568
sV\u30aa\u30a4\u30eb
p4550
I4569
sV\u672a\u5b9a
p4551
I4570
sV\u30b9\u30ab\u30a4
p4552
I4571
sV\u4e8b\u4f8b
p4553
I4572
sV2011
p4554
I4071
sV\u901a\u904e
p4555
I4508
sV\u4ea4\u6e09
p4556
I3218
sV\u30c6\u30a3\u30fc
p4557
I4576
sV\u30e9\u30a4\u30f3\u30ca\u30c3\u30d7
p4558
I2942
sV\u4f4f\u6240
p4559
I2629
sV\u9055\u53cd
p4560
I1551
sV\u3076\u3093
p4561
I4580
sV\u52e4\u52d9
p4562
I4581
sV\u51fd\u9928
p4563
I4582
sV\u611f\u89e6
p4564
I4583
sV2012
p4565
I4074
sV\u7968
p4566
I4585
sV\u76f8\u5834
p4567
I4586
sV\u30b3\u30df\u30e5\u30cb\u30c6\u30a3
p4568
I4450
sV\u304a\u3058\u3055\u3093
p4569
I4588
sV\u4e0a\u6d77
p4570
I3220
sV\u30c9\u30e9\u30d5\u30c8
p4571
I4590
sV\u5236\u5ea6
p4572
I4591
sV\u751f\u30af\u30ea\u30fc\u30e0
p4573
I4833
sV\u82f1\u7d19
p4574
I4592
sV\u30a2\u30c3\u30d7\u30eb
p4575
I3103
sV\u6d0b
p4576
I2667
sV\u56db\u534a\u671f
p4577
I4595
sV\u7b11\u307f
p4578
I4596
sV\u30de\u30ca\u30fc
p4579
I4597
sV\u72a0\u7272
p4580
I4598
sV\u5730\u7403
p4581
I4599
sVvr
p4582
I4600
sVvs
p4583
I1032
sV\u9732\u51fa
p4584
I3222
sV\uff17
p4585
I4603
sV\u7269\u4f53
p4586
I4332
sV\u30bf\u30a4\u30df\u30f3\u30b0
p4587
I3472
sV\u30bd\u30d5\u30a1
p4588
I1987
sV\u91d1\u92ad
p4589
I4606
sV\u540c\u70b9
p4590
I279
sV\u4e0d\u6c17\u5473
p4591
I2739
sV\u30de\u30b9
p4592
I2743
sV\u771f\u4f3c
p4593
I4610
sV\u91cd\u8981
p4594
I4611
sV\u614e\u91cd
p4595
I2760
sV\u898f\u5236
p4596
I4613
sV)
p4597
I4614
sV\u30aa\u30d5
p4598
I3828
sV\u30aa\u30d6
p4599
I4616
sV\u5927\u58f0
p4600
I4081
sV\u5e2d
p4601
I4618
sV\u8863\u88c5
p4602
I2792
sV\u53cd\u8ad6
p4603
I782
sV\u50d5\u3089
p4604
I4621
sV\u611f
p4605
I2413
sV\u4ed5\u4e8b
p4606
I2830
sV\u5317\u7530
p4607
I4624
sV\u30b7\u30e5\u30fc\u30c8
p4608
I2839
sV\u5317\u7c73
p4609
I3224
sVandroid
p4610
I4627
sV\u6559\u5e2b
p4611
I4628
sV\u30d5\u30a3\u30ea\u30d4\u30f3
p4612
I1679
sV\u5b63\u7bc0
p4613
I3339
sV\u8ca7\u56f0
p4614
I2048
sV\u81ea\u56fd
p4615
I4632
sV\u767b\u5c71
p4616
I4633
sVmaterial
p4617
I4634
sV\u30bb\u30f3\u30c1
p4618
I1214
sV\u4eba\u7269
p4619
I4636
sV\u30de\u30de
p4620
I4637
sV\u5bff\u53f8
p4621
I4638
sV\u885b\u751f
p4622
I4639
sV\u30c4\u30a2\u30fc
p4623
I4640
sViot
p4624
I4641
sV\u30bf\u30ec\u30f3\u30c8
p4625
I2147
sV\u907a\u7523
p4626
I2908
sV\u500b\u6027
p4627
I4605
sV\u5168\u4f53
p4628
I4573
sV\u904b\u52d5
p4629
I4023
sV\u672c\u4f53
p4630
I2929
sV\u30d5\u30eb
p4631
I4647
sV\u6a21\u69d8
p4632
I3228
sV\u30de\u30c4\u30c0
p4633
I4649
sV\u30ec\u30f3\u30ba
p4634
I4650
sV\u306b\u3093\u3058\u3093
p4635
I4651
sV\u30ec\u30f3\u30b8
p4636
I2960
sV\u5730\u5473
p4637
I4654
sV\u95a2\u4fc2
p4638
I4655
sVi
p4639
I4656
sV\u30d4\u30f3\u30c1
p4640
I4657
sV\u897f\u6d0b
p4641
I4658
sV\u30de\u30f3
p4642
I4659
sV\u523a\u6fc0
p4643
I1501
sV\u6642\u70b9
p4644
I4661
sV\u898b\u3069\u3053\u308d
p4645
I2420
sV\u5ca9\u624b
p4646
I4663
sV\u5229\u76ca
p4647
I218
sV\u5275
p4648
I4665
sV\u30d8\u30c7\u30a3\u30f3\u30b0
p4649
I4666
sV\u4e09\u632f
p4650
I4667
sV47
p4651
I1593
sV\u56fd\u7c4d
p4652
I4669
sV\u9031\u520a
p4653
I3744
sV\u540c\u50da
p4654
I4670
sV\u52a9\u3051
p4655
I4015
sV\u5927\u6839
p4656
I4888
sV\u8868\u793a
p4657
I4672
sV\u30af\u30ea\u30a8\u30a4\u30c6\u30a3\u30d6
p4658
I4589
sV\u30d0\u30e9\u30a8\u30c6\u30a3
p4659
I2421
sV\u904b\u547d
p4660
I4894
sV\u5f7c\u5973
p4661
I4674
sV\u9032\u5316
p4662
I2634
sV\u7389
p4663
I4675
sV42
p4664
I4944
sV\u4e8b
p4665
I4676
sV\u904b\u7528
p4666
I4677
sV\u8abf\u5473
p4667
I4678
sV\u81ea\u7531
p4668
I2860
sV\u6d6e\u6c17
p4669
I4475
sV\u691c\u67fb
p4670
I3490
sV\u5229\u7528
p4671
I3145
sV\u30d0\u30c3\u30c8
p4672
I3149
sV\u6a5f\u80fd
p4673
I4305
sV\uff16
p4674
I2682
sV\u5e30\u308a
p4675
I4685
sV\u5a18
p4676
I4686
sV\u75c5\u6c17
p4677
I613
sV41
p4678
I4947
sV\u4e0d\u4fbf
p4679
I4092
sV\u75b2\u52b4
p4680
I4331
sV\u9818\u57df
p4681
I4602
sV\u5404\u5730
p4682
I4013
sV\u4e0b
p4683
I4754
sV\u8868\u660e
p4684
I4693
sV\u958b\u59cb
p4685
I4694
sV\u6e80\u55ab
p4686
I4695
sV\u81ea\u4e3b
p4687
I1435
sV\u534a\u6570
p4688
I2796
sV\u9032\u5b66
p4689
I3937
sV\u6557\u6226
p4690
I3928
sV\u6c34\u6e96
p4691
I3235
sV\u627f\u8a8d
p4692
I4699
sV\u8eab\u9577
p4693
I2789
sV\u52c9\u5f37
p4694
I4531
sV\u7acb\u3061\u4e0a\u304c\u308a
p4695
I786
sV\u30d7\u30e9\u30c3\u30c8\u30d5\u30a9\u30fc\u30e0
p4696
I4703
sV\u30c7\u30ab
p4697
I3868
sV\u30a2\u30af\u30bb\u30f3\u30c8
p4698
I4705
sV\u30bb\u30f3\u30b9
p4699
I2852
sV\u58f2\u308a\u5834
p4700
I4707
sV\u592a
p4701
I4404
sV\u99c5
p4702
I4709
sV\u6839\u672c
p4703
I4710
sV\u7bc0\u7d04
p4704
I4711
sV\u63d0\u793a
p4705
I4712
sV\u7248
p4706
I4713
sV\u4ecb
p4707
I4714
sV\u30a2\u30eb\u30df\u30cb\u30a6\u30e0
p4708
I573
sV\u78ba\u4fe1
p4709
I3362
sV\u88cf
p4710
I328
sV\u4fdd\u5b58
p4711
I796
sV\u8f38\u51fa
p4712
I3374
sV\u30d1\u30fc\u30c8
p4713
I3015
sV\u62d3
p4714
I4721
sV\u6962
p4715
I3938
sV\u53e3\u8abf
p4716
I4723
sV\u6709\u52b9
p4717
I4724
sV\u6cd5\u7684
p4718
I4725
sV\u30ed\u30b7\u30a2
p4719
I3901
sV\u30cb\u30fc\u30ba
p4720
I4726
sV\u30b5\u30d7\u30e9\u30a4\u30ba
p4721
I3411
sV\u30b9\u30a4\u30c3\u30c1
p4722
I3338
sV\u6307\u6a19
p4723
I4729
sV\u8272\u5408\u3044
p4724
I4730
sV\u30df
p4725
I4731
sV\u6d78\u900f
p4726
I4732
sV\u4fe1
p4727
I4733
sV\u8a2d\u7f6e
p4728
I4529
sV\u653f\u5e9c
p4729
I3441
sV\u9032\u5c55
p4730
I4708
sV\u30d5\u30a7\u30a2
p4731
I4736
sV\u30d0\u30c3\u30b0
p4732
I4737
sV\u6a39\u8102
p4733
I4738
sV\u672c\u8cea
p4734
I2105
sV\u5175\u58eb
p4735
I4491
sV\u6a5f\u7a2e
p4736
I3493
sV\u6d3e\u624b
p4737
I2387
sV\u5074
p4738
I507
sV\u5c0a\u91cd
p4739
I4720
sV\u8abf\u7406
p4740
I4743
sV\u51dd\u7e2e
p4741
I3530
sV\u5e73\u65e5
p4742
I4745
sV\u6d3b
p4743
I3348
sV\u5f01
p4744
I4747
sV\u756a
p4745
I2764
sV\u7d05\u8449
p4746
I2386
sV\u3081\u3057
p4747
I799
sV\u4e0d\u6b63
p4748
I4144
sV\u6587\u5316
p4749
I331
sV\u7dd1
p4750
I4753
sVtwitter
p4751
I335
sV\u518a
p4752
I3589
sV\u690d\u7269
p4753
I4756
sV\u7a0e\u5225
p4754
I3593
sV\u4ed5\u4e0a\u3052
p4755
I3598
sV\u8d77\u7528
p4756
I4759
sV115
p4757
I766
sV\u672c\u6c17
p4758
I4761
sV\u6cd5\u4eba
p4759
I3682
sV\u5927\u624b
p4760
I1368
sV\u76ee\u7dda
p4761
I2252
sV\u30d0\u30eb
p4762
I4481
sV\u30cf\u30fc\u30d5\u30bf\u30a4\u30e0
p4763
I767
sV\u610f\u56f3
p4764
I4767
sV\u30b3\u30e1\u30f3\u30c8
p4765
I4768
sV\u901f
p4766
I4769
sV\u767a\u884c
p4767
I3676
sV\u8b66\u6212
p4768
I4771
sV\u30ab\u30fc\u30d7
p4769
I4772
sV\u3059\u304e
p4770
I3955
sV\u5c4b\u5185
p4771
I4773
sV\u30c6\u30f3\u30b7\u30e7\u30f3
p4772
I4774
sV\u51b7\u8535\u5eab
p4773
I4775
sV\u5b9f\u5bb6
p4774
I3716
sV\u5e2b
p4775
I3721
sV\u5f62\u5f0f
p4776
I4778
sV\u5b98\u623f
p4777
I4741
sV\u7de8\u6210
p4778
I3782
sV\u3057\u3087\u3046\u304c
p4779
I2439
sV\u4e00\u74b0
p4780
I4782
sV\u66f8\u985e
p4781
I4783
sV\u7d76\u5bfe
p4782
I4784
sV\u30aa\u30fc\u30d7\u30cb\u30f3\u30b0
p4783
I3907
sV\u30b9\u30c8\u30ec\u30c3\u30c1
p4784
I4786
sV\u591a\u5f69
p4785
I1784
sV\uff13\u3064
p4786
I2606
sV\u5411\u304d
p4787
I4789
sV\u30ab\u30fc\u30c9
p4788
I4790
sV?
p4789
I4791
sV\u8457\u66f8
p4790
I3792
sV\u5404\u7a2e
p4791
I3165
sV\u6d6e\u4e0a
p4792
I4794
sV\u4e00\u54c1
p4793
I3806
sV\u30b5\u30a6\u30f3\u30c9
p4794
I4796
sV\u7d44\u5408
p4795
I4797
sV\u5c71\u7530
p4796
I4798
sV\u8377\u7269
p4797
I3519
sV\u8208\u596e
p4798
I4800
sV\u30d0\u30b9
p4799
I4801
sV\u53ce\u76ca
p4800
I3250
sV\u8f38\u5165
p4801
I4803
sV\u30b9\u30fc\u30c4
p4802
I1603
sV\u30d0\u30bf\u30fc
p4803
I240
sV\u30c4\u30a4\u30c3\u30bf\u30fc
p4804
I4806
sV\u7384\u95a2
p4805
I4360
sV\u30dc\u30fc\u30c8
p4806
I3343
sV\u3042\u3093
p4807
I688
sV\u30dd\u30f3\u30c9
p4808
I4209
sV\u9ad8
p4809
I3883
sV\u30e2\u30c1\u30d9\u30fc\u30b7\u30e7\u30f3
p4810
I4810
sV\u8e8d\u52d5
p4811
I1037
sV\u5e30\u56fd
p4812
I4812
sV\u5916\u8cc7
p4813
I4696
sV\u8003\u616e
p4814
I4814
sV\u4e00\u9023
p4815
I4815
sV\u30c0\u30e1\u30fc\u30b8
p4816
I3914
sV\u6559\u80b2
p4817
I4817
sV\u30bb\u30ec\u30af\u30c8
p4818
I4818
sV\u305d\u308c\u305e\u308c
p4819
I3927
sV\u5358\u72ec
p4820
I4820
sV\u6280\u8853
p4821
I4821
sV\u4ee5\u5185
p4822
I4822
sV\u54c1\u8cea
p4823
I4823
sVhttp
p4824
I4824
sV\u5fb9\u5e95\u7684
p4825
I3755
sV\u5730\u9762
p4826
I4826
sV\u4eca\u65e5
p4827
I4827
sV\u30c8\u30fc\u30b9\u30c8
p4828
I4828
sV\u4e45\u3057\u3076\u308a
p4829
I4829
sV\u30c1\u30e7\u30b3
p4830
I4830
sV\u5feb\u52dd
p4831
I4831
sV\u30d5\u30a7\u30a4\u30b9
p4832
I1711
sV\u666f\u8272
p4833
I247
sV\u30d5\u30e9\u30f3\u30b9
p4834
I4834
sV!!
p4835
I4835
sV\u6563\u6b69
p4836
I4836
sV\u6587\u66f8
p4837
I4837
sV\u6570\u5b57
p4838
I4838
sV\u30d7\u30e9\u30b9
p4839
I4653
sV\u4eca\u5f8c
p4840
I4840
sV\u63a5\u7d9a
p4841
I2819
sV\u4f8b
p4842
I759
sV\u9b45\u4e86
p4843
I4078
sV\u7df4\u7fd2
p4844
I4082
sV\u3053\u3061\u3089
p4845
I2506
sV\u30d5\u30a9\u30eb\u30e0
p4846
I4845
sV110
p4847
I4846
sV\u3054\u98ef
p4848
I4847
sV\u30ec\u30fc\u30b9
p4849
I4100
sV\u30d5\u30ea\u30fc
p4850
I4849
sV\u6295\u7968
p4851
I4850
sV\u9999
p4852
I4350
sV\u30b9\u30a4\u30b9
p4853
I4851
sV\u30af\u30eb\u30de
p4854
I4287
sV\u30b5\u30e9\u30c0
p4855
I3529
sV\u5192\u967a
p4856
I4717
sV\u6700\u9ad8
p4857
I2451
sV!?
p4858
I4149
sV\u30d1\u30fc\u30c6\u30a3\u30fc
p4859
I4854
sV\u30b9\u30c8
p4860
I4855
sV\u30cf\u30c3\u30d4\u30fc
p4861
I4856
sV\u9805\u76ee
p4862
I4857
sV\u79cb\u8449\u539f
p4863
I4858
sV1980
p4864
I4859
sV\u8ca0\u62c5
p4865
I4180
sV\u30ab\u30e9\u30d5\u30eb
p4866
I4861
sV\u7b11\u3044
p4867
I4622
sV*
p4868
I4863
sV\u53ce\u7a6b
p4869
I3951
sV\u89b3
p4870
I4864
sV\u9806\u4f4d
p4871
I2453
sV\u4e00\u4f53
p4872
I4982
sV\u30ed\u30b4
p4873
I4630
sV\u5727\u5012\u7684
p4874
I4867
sVpa
p4875
I4868
sV\u30ed\u30b1
p4876
I4869
sV\u5c55\u958b
p4877
I4870
sV\u30ad\u30ea\u30f3
p4878
I4229
sV)\u300d
p4879
I2198
sV\u7236\u89aa
p4880
I4874
sV\u7591\u554f
p4881
I4875
sV\u30d5\u30a3\u30eb\u30bf\u30fc
p4882
I4876
sV\u75b2\u308c
p4883
I4877
sV\u898b\u8fbc\u307f
p4884
I4878
sV\u3084\u308a\u53d6\u308a
p4885
I4879
sV\u30a2\u30ab\u30c7\u30df\u30fc
p4886
I4275
sV\u75c7
p4887
I4881
sV\u5e02
p4888
I4500
sVhp
p4889
I4883
sV\u6b63
p4890
I4979
sV\u30b5\u30f3\u30c9
p4891
I4307
sV\u518d\u767a
p4892
I4788
sV\u70b9
p4893
I1047
sV\u70ba\u66ff
p4894
I4887
sV\u5c0f
p4895
I2776
sV\u51fa\u5834
p4896
I4889
sV\u6620\u753b
p4897
I4890
sVbe
p4898
I4891
sV\u7f8e
p4899
I3781
sV\u5b9a\u4f11
p4900
I4893
sVhd
p4901
I461
sV\u6848\u5185
p4902
I4368
sV\u88fd\u6cd5
p4903
I4896
sV\u5730\u56f3
p4904
I4897
sV\u6e80\u54e1
p4905
I4898
sV\u5354\u5b9a
p4906
I4899
sV\u5317\u671d\u9bae
p4907
I4900
sV\u74b0\u5883
p4908
I1204
sV\u4e00\u756a
p4909
I4902
sV\u5feb\u9069
p4910
I4903
sV\u8a66\u3057
p4911
I2463
sV\u5b98\u516c\u5e81
p4912
I4905
sV\u5909\u8eab
p4913
I1195
sV\u8cea\u554f
p4914
I2982
sV\u6301\u3061\u8fbc\u307f
p4915
I4908
sV\u767a\u899a
p4916
I23
sV\u6297\u8b70
p4917
I1675
sV\u5bb9\u7591
p4918
I4911
sV\u30ed\u30fc
p4919
I4912
sV\u30d0\u30e9\u30f3\u30b9
p4920
I4913
sV\u6c7a\u7b97
p4921
I4914
sV\u5c0a\u656c
p4922
I682
sV\u98df\u3079\u7269
p4923
I4916
sV\u8a8d\u77e5
p4924
I1201
sV\u8a3a\u65ad
p4925
I4918
sV\u611f\u8b1d
p4926
I4919
sV\u6817
p4927
I1612
sV\u5507
p4928
I4921
sV\u7686
p4929
I4922
sV\u4e2d\u91ce
p4930
I4923
sV\u8a08\u7b97
p4931
I2481
sV\u3068\u3053\u308d
p4932
I1965
sV\u9ad8\u7d1a
p4933
I4926
sV\uff19
p4934
I4130
sV\u30cf\u30ed\u30a6\u30a3\u30f3\u30b3\u30b9\u30d7\u30ec
p4935
I3353
sV\u514d\u8a31
p4936
I4928
sV\u4e00\u751f\u61f8\u547d
p4937
I2873
sV\u7acb\u5834
p4938
I4594
sV\u5b98
p4939
I4931
sV\u4e0a\u6607
p4940
I4932
sV\uff5e\u3002
p4941
I4132
sVinc
p4942
I4934
sV\u8ca1\u5e03
p4943
I4935
sV81
p4944
I4936
sV\u30ad\u30fc\u30d7
p4945
I4937
sV48
p4946
I4938
sV\u95a2\u5fc3
p4947
I1959
sV46
p4948
I4940
sV\u4eba\u3005
p4949
I1082
sV44
p4950
I4671
sV\u8f38\u9001
p4951
I3237
sV\u30d9\u30f3\u30c1
p4952
I3309
sV43
p4953
I4945
sV\u9577\u5e74
p4954
I4645
sV\u30c7\u30e2
p4955
I3949
sV\u7d50\u5c40
p4956
I4948
sV\u691c\u77e5
p4957
I4949
sV\u672c\u65e5
p4958
I4950
sV\u5ea6\u76ee
p4959
I4951
sV\u65ac\u65b0
p4960
I4952
sV\u3075\u305f\u308a
p4961
I4953
sV\u6a39
p4962
I2571
sV\u30af\u30ea\u30fc\u30e0\u30c1\u30fc\u30ba
p4963
I4955
sV\u9762
p4964
I3900
sV\u5fc3\u5730
p4965
I4734
sV\u4e0a\u6620
p4966
I4958
sV\u8ce0\u511f
p4967
I4959
sV\u8a18\u5ff5
p4968
I845
sV\u79cb\u5b63
p4969
I4961
sV\u30b0\u30ea\u30fc\u30f3
p4970
I4962
sV\u5927\u597d\u304d
p4971
I4750
sV\u8ab2\u984c
p4972
I2938
sV\u6d77
p4973
I4989
sV\u30b9\u30c8\u30fc\u30ea\u30fc
p4974
I4963
sV\u96c6
p4975
I4964
sV\u677e\u7530
p4976
I4965
sV\u5c0f\u9ea6
p4977
I4966
sV\u671d\u98df
p4978
I4967
sV\u5973\u5b50
p4979
I4968
sV\u653b\u3081
p4980
I2074
sV\u9280\u884c
p4981
I4970
sV\u30d7\u30fc\u30eb
p4982
I4971
sV\u9283
p4983
I4972
sV\u30d7\u30ec\u30a4\u30e4\u30fc
p4984
I4973
sV\u57fa\u8abf
p4985
I4974
sV\u4f38\u3073
p4986
I4976
sV\u307b\u3069
p4987
I4977
sV\u4e21\u56fd
p4988
I4862
sV\u3086
p4989
I4904
sV\u6ce2
p4990
I4980
sV\u6027
p4991
I4981
sV\u672c\u97f3
p4992
I2068
sV\u8107
p4993
I2027
sV\u304a\u7b11\u3044
p4994
I4984
sV\u6642\u4ee3
p4995
I2307
sV\u30ed\u30fc\u30bd\u30f3
p4996
I4987
sV\u30d3\u30ad\u30cb
p4997
I1676
sV\u660e\u65e5
p4998
I4550
sV\u4ef6
p4999
I1483
sV\u307b\u304b
p5000
I4991
sV\u4f59\u5730
p5001
I4975
sV\u7269\u7406
p5002
I2480
sV\u52c7\u6a39
p5003
I2499
sV\u52a0\u901f
p5004
I4995
sV\u304a\u5ba2
p5005
I4996
ssS'dfs'
p5006
(dp5007
I0
I17
sI1
I32
sI2
I15
sI3
I18
sI4
I19
sI5
I10
sI6
I12
sI7
I16
sI8
I26
sI9
I12
sI10
I21
sI11
I11
sI12
I13
sI13
I20
sI14
I24
sI15
I13
sI16
I62
sI17
I79
sI18
I37
sI19
I28
sI20
I41
sI21
I26
sI22
I35
sI23
I18
sI24
I26
sI25
I20
sI26
I50
sI27
I14
sI28
I17
sI29
I10
sI30
I85
sI31
I10
sI32
I29
sI33
I20
sI34
I16
sI35
I12
sI36
I70
sI37
I82
sI38
I18
sI39
I18
sI40
I24
sI41
I34
sI42
I18
sI43
I15
sI44
I13
sI45
I10
sI46
I22
sI47
I34
sI48
I15
sI49
I19
sI50
I17
sI51
I15
sI52
I22
sI53
I116
sI54
I68
sI55
I28
sI56
I11
sI57
I11
sI58
I19
sI59
I82
sI60
I16
sI61
I19
sI62
I13
sI63
I12
sI64
I26
sI65
I11
sI66
I22
sI67
I12
sI68
I96
sI69
I18
sI70
I10
sI71
I12
sI72
I32
sI73
I14
sI74
I30
sI75
I23
sI76
I25
sI77
I13
sI78
I30
sI79
I19
sI80
I10
sI81
I14
sI82
I18
sI83
I473
sI84
I10
sI85
I13
sI86
I57
sI87
I114
sI88
I69
sI89
I26
sI90
I105
sI91
I18
sI92
I99
sI93
I13
sI94
I72
sI95
I19
sI96
I53
sI97
I12
sI98
I10
sI99
I11
sI100
I116
sI101
I38
sI102
I11
sI103
I14
sI104
I17
sI105
I27
sI106
I10
sI107
I15
sI108
I15
sI109
I20
sI110
I14
sI111
I14
sI112
I18
sI113
I32
sI114
I20
sI115
I20
sI116
I38
sI117
I13
sI118
I37
sI119
I23
sI120
I22
sI121
I15
sI122
I17
sI123
I11
sI124
I10
sI125
I18
sI126
I190
sI127
I43
sI128
I12
sI129
I29
sI130
I28
sI131
I16
sI132
I31
sI133
I323
sI134
I90
sI135
I19
sI136
I23
sI137
I72
sI138
I40
sI139
I11
sI140
I13
sI141
I14
sI142
I154
sI143
I17
sI144
I15
sI145
I35
sI146
I21
sI147
I15
sI148
I24
sI149
I23
sI150
I12
sI151
I22
sI152
I10
sI153
I11
sI154
I421
sI155
I35
sI156
I14
sI157
I11
sI158
I24
sI159
I22
sI160
I394
sI161
I56
sI162
I37
sI163
I18
sI164
I12
sI165
I10
sI166
I41
sI167
I10
sI168
I27
sI169
I13
sI170
I80
sI171
I11
sI172
I30
sI173
I12
sI174
I15
sI175
I27
sI176
I139
sI177
I29
sI178
I17
sI179
I16
sI180
I19
sI181
I11
sI182
I21
sI183
I63
sI184
I17
sI185
I20
sI186
I14
sI187
I73
sI188
I10
sI189
I10
sI190
I14
sI191
I11
sI192
I55
sI193
I21
sI194
I10
sI195
I14
sI196
I427
sI197
I113
sI198
I12
sI199
I16
sI200
I10
sI201
I11
sI202
I15
sI203
I11
sI204
I10
sI205
I15
sI206
I10
sI207
I16
sI208
I19
sI209
I12
sI210
I44
sI211
I43
sI212
I25
sI213
I197
sI214
I11
sI215
I50
sI216
I14
sI217
I13
sI218
I34
sI219
I13
sI220
I10
sI221
I29
sI222
I53
sI223
I94
sI224
I75
sI225
I11
sI226
I25
sI227
I19
sI228
I17
sI229
I29
sI230
I81
sI231
I44
sI232
I25
sI233
I11
sI234
I35
sI235
I15
sI236
I161
sI237
I27
sI238
I31
sI239
I27
sI240
I30
sI241
I55
sI242
I11
sI243
I22
sI244
I22
sI245
I15
sI246
I11
sI247
I19
sI248
I11
sI249
I10
sI250
I97
sI251
I10
sI252
I64
sI253
I34
sI254
I11
sI255
I32
sI256
I10
sI257
I10
sI258
I10
sI259
I10
sI260
I13
sI261
I20
sI262
I10
sI263
I10
sI264
I45
sI265
I39
sI266
I17
sI267
I72
sI268
I253
sI269
I17
sI270
I13
sI271
I19
sI272
I34
sI273
I15
sI274
I45
sI275
I10
sI276
I84
sI277
I11
sI278
I379
sI279
I34
sI280
I21
sI281
I11
sI282
I19
sI283
I16
sI284
I49
sI285
I17
sI286
I24
sI287
I13
sI288
I165
sI289
I66
sI290
I78
sI291
I10
sI292
I10
sI293
I110
sI294
I25
sI295
I70
sI296
I17
sI297
I36
sI298
I27
sI299
I102
sI300
I68
sI301
I14
sI302
I259
sI303
I14
sI304
I67
sI305
I12
sI306
I11
sI307
I19
sI308
I54
sI309
I50
sI310
I67
sI311
I10
sI312
I199
sI313
I36
sI314
I41
sI315
I11
sI316
I26
sI317
I37
sI318
I61
sI319
I10
sI320
I16
sI321
I22
sI322
I10
sI323
I15
sI324
I30
sI325
I47
sI326
I26
sI327
I122
sI328
I66
sI329
I18
sI330
I30
sI331
I80
sI332
I18
sI333
I29
sI334
I11
sI335
I137
sI336
I36
sI337
I34
sI338
I14
sI339
I40
sI340
I215
sI341
I20
sI342
I39
sI343
I97
sI344
I127
sI345
I19
sI346
I36
sI347
I48
sI348
I19
sI349
I10
sI350
I101
sI351
I42
sI352
I465
sI353
I37
sI354
I92
sI355
I38
sI356
I15
sI357
I66
sI358
I25
sI359
I38
sI360
I35
sI361
I11
sI362
I11
sI363
I10
sI364
I18
sI365
I10
sI366
I20
sI367
I21
sI368
I39
sI369
I18
sI370
I28
sI371
I10
sI372
I60
sI373
I26
sI374
I30
sI375
I12
sI376
I21
sI377
I42
sI378
I17
sI379
I20
sI380
I35
sI381
I11
sI382
I15
sI383
I11
sI384
I10
sI385
I11
sI386
I31
sI387
I93
sI388
I44
sI389
I15
sI390
I42
sI391
I14
sI392
I12
sI393
I15
sI394
I18
sI395
I10
sI396
I17
sI397
I27
sI398
I18
sI399
I101
sI400
I233
sI401
I11
sI402
I30
sI403
I16
sI404
I13
sI405
I11
sI406
I14
sI407
I12
sI408
I30
sI409
I22
sI410
I17
sI411
I170
sI412
I12
sI413
I12
sI414
I15
sI415
I23
sI416
I12
sI417
I12
sI418
I49
sI419
I18
sI420
I47
sI421
I192
sI422
I19
sI423
I30
sI424
I10
sI425
I13
sI426
I23
sI427
I106
sI428
I19
sI429
I56
sI430
I80
sI431
I17
sI432
I16
sI433
I159
sI434
I12
sI435
I10
sI436
I37
sI437
I19
sI438
I23
sI439
I29
sI440
I24
sI441
I57
sI442
I63
sI443
I16
sI444
I20
sI445
I21
sI446
I223
sI447
I10
sI448
I71
sI449
I12
sI450
I24
sI451
I67
sI452
I145
sI453
I22
sI454
I55
sI455
I16
sI456
I28
sI457
I15
sI458
I13
sI459
I13
sI460
I23
sI461
I13
sI462
I57
sI463
I25
sI464
I12
sI465
I22
sI466
I13
sI467
I73
sI468
I16
sI469
I46
sI470
I15
sI471
I66
sI472
I16
sI473
I136
sI474
I20
sI475
I28
sI476
I11
sI477
I13
sI478
I13
sI479
I43
sI480
I42
sI481
I49
sI482
I14
sI483
I107
sI484
I24
sI485
I12
sI486
I10
sI487
I12
sI488
I10
sI489
I11
sI490
I47
sI491
I26
sI492
I14
sI493
I41
sI494
I70
sI495
I22
sI496
I83
sI497
I439
sI498
I28
sI499
I38
sI500
I12
sI501
I19
sI502
I40
sI503
I12
sI504
I23
sI505
I54
sI506
I17
sI507
I143
sI508
I98
sI509
I25
sI510
I11
sI511
I10
sI512
I18
sI513
I12
sI514
I31
sI515
I41
sI516
I17
sI517
I16
sI518
I23
sI519
I17
sI520
I107
sI521
I12
sI522
I29
sI523
I10
sI524
I67
sI525
I25
sI526
I17
sI527
I14
sI528
I14
sI529
I13
sI530
I12
sI531
I10
sI532
I30
sI533
I13
sI534
I47
sI535
I10
sI536
I18
sI537
I41
sI538
I10
sI539
I39
sI540
I38
sI541
I196
sI542
I18
sI543
I124
sI544
I13
sI545
I72
sI546
I11
sI547
I60
sI548
I34
sI549
I11
sI550
I12
sI551
I60
sI552
I478
sI553
I29
sI554
I10
sI555
I18
sI556
I27
sI557
I21
sI558
I62
sI559
I14
sI560
I41
sI561
I15
sI562
I27
sI563
I134
sI564
I22
sI565
I56
sI566
I11
sI567
I38
sI568
I272
sI569
I26
sI570
I186
sI571
I30
sI572
I18
sI573
I11
sI574
I41
sI575
I38
sI576
I10
sI577
I38
sI578
I30
sI579
I14
sI580
I23
sI581
I29
sI582
I29
sI583
I71
sI584
I32
sI585
I24
sI586
I17
sI587
I11
sI588
I14
sI589
I214
sI590
I11
sI591
I145
sI592
I30
sI593
I10
sI594
I25
sI595
I11
sI596
I32
sI597
I48
sI598
I101
sI599
I10
sI600
I11
sI601
I208
sI602
I10
sI603
I31
sI604
I87
sI605
I22
sI606
I39
sI607
I13
sI608
I32
sI609
I22
sI610
I20
sI611
I43
sI612
I23
sI613
I27
sI614
I60
sI615
I44
sI616
I12
sI617
I56
sI618
I12
sI619
I22
sI620
I10
sI621
I44
sI622
I54
sI623
I15
sI624
I13
sI625
I47
sI626
I103
sI627
I28
sI628
I21
sI629
I25
sI630
I23
sI631
I31
sI632
I31
sI633
I11
sI634
I27
sI635
I55
sI636
I20
sI637
I12
sI638
I19
sI639
I23
sI640
I56
sI641
I64
sI642
I10
sI643
I24
sI644
I14
sI645
I20
sI646
I14
sI647
I33
sI648
I59
sI649
I10
sI650
I12
sI651
I11
sI652
I140
sI653
I13
sI654
I11
sI655
I17
sI656
I16
sI657
I10
sI658
I11
sI659
I23
sI660
I14
sI661
I37
sI662
I29
sI663
I12
sI664
I32
sI665
I15
sI666
I12
sI667
I25
sI668
I13
sI669
I72
sI670
I24
sI671
I19
sI672
I15
sI673
I20
sI674
I21
sI675
I63
sI676
I20
sI677
I60
sI678
I35
sI679
I11
sI680
I38
sI681
I33
sI682
I22
sI683
I11
sI684
I23
sI685
I22
sI686
I11
sI687
I12
sI688
I11
sI689
I278
sI690
I13
sI691
I259
sI692
I20
sI693
I11
sI694
I11
sI695
I185
sI696
I55
sI697
I11
sI698
I16
sI699
I296
sI700
I27
sI701
I10
sI702
I19
sI703
I10
sI704
I14
sI705
I249
sI706
I66
sI707
I357
sI708
I15
sI709
I15
sI710
I35
sI711
I15
sI712
I15
sI713
I14
sI714
I124
sI715
I26
sI716
I17
sI717
I12
sI718
I14
sI719
I141
sI720
I15
sI721
I27
sI722
I10
sI723
I10
sI724
I19
sI725
I24
sI726
I12
sI727
I33
sI728
I38
sI729
I47
sI730
I19
sI731
I42
sI732
I10
sI733
I100
sI734
I44
sI735
I10
sI736
I17
sI737
I22
sI738
I37
sI739
I45
sI740
I30
sI741
I34
sI742
I12
sI743
I13
sI744
I326
sI745
I45
sI746
I15
sI747
I17
sI748
I20
sI749
I14
sI750
I13
sI751
I147
sI752
I16
sI753
I25
sI754
I29
sI755
I16
sI756
I90
sI757
I20
sI758
I13
sI759
I55
sI760
I10
sI761
I11
sI762
I11
sI763
I25
sI764
I10
sI765
I70
sI766
I11
sI767
I10
sI768
I32
sI769
I12
sI770
I109
sI771
I17
sI772
I25
sI773
I11
sI774
I13
sI775
I26
sI776
I12
sI777
I23
sI778
I62
sI779
I33
sI780
I10
sI781
I22
sI782
I19
sI783
I126
sI784
I20
sI785
I74
sI786
I14
sI787
I152
sI788
I24
sI789
I111
sI790
I27
sI791
I43
sI792
I12
sI793
I64
sI794
I19
sI795
I18
sI796
I52
sI797
I14
sI798
I39
sI799
I10
sI800
I53
sI801
I23
sI802
I19
sI803
I58
sI804
I31
sI805
I10
sI806
I15
sI807
I18
sI808
I19
sI809
I42
sI810
I60
sI811
I26
sI812
I31
sI813
I29
sI814
I175
sI815
I35
sI816
I11
sI817
I15
sI818
I10
sI819
I15
sI820
I56
sI821
I36
sI822
I41
sI823
I29
sI824
I10
sI825
I10
sI826
I15
sI827
I130
sI828
I10
sI829
I10
sI830
I21
sI831
I167
sI832
I43
sI833
I11
sI834
I20
sI835
I12
sI836
I24
sI837
I19
sI838
I14
sI839
I97
sI840
I37
sI841
I11
sI842
I91
sI843
I26
sI844
I260
sI845
I126
sI846
I154
sI847
I11
sI848
I13
sI849
I36
sI850
I29
sI851
I16
sI852
I16
sI853
I17
sI854
I52
sI855
I14
sI856
I113
sI857
I12
sI858
I161
sI859
I25
sI860
I11
sI861
I60
sI862
I11
sI863
I28
sI864
I187
sI865
I10
sI866
I12
sI867
I26
sI868
I13
sI869
I15
sI870
I12
sI871
I76
sI872
I30
sI873
I10
sI874
I14
sI875
I47
sI876
I43
sI877
I18
sI878
I19
sI879
I13
sI880
I10
sI881
I25
sI882
I137
sI883
I10
sI884
I29
sI885
I143
sI886
I13
sI887
I20
sI888
I21
sI889
I17
sI890
I48
sI891
I21
sI892
I19
sI893
I35
sI894
I23
sI895
I23
sI896
I315
sI897
I20
sI898
I51
sI899
I40
sI900
I13
sI901
I15
sI902
I16
sI903
I75
sI904
I10
sI905
I67
sI906
I11
sI907
I50
sI908
I28
sI909
I22
sI910
I57
sI911
I16
sI912
I16
sI913
I15
sI914
I14
sI915
I72
sI916
I14
sI917
I13
sI918
I61
sI919
I59
sI920
I30
sI921
I21
sI922
I52
sI923
I18
sI924
I23
sI925
I24
sI926
I52
sI927
I15
sI928
I27
sI929
I35
sI930
I96
sI931
I40
sI932
I34
sI933
I11
sI934
I18
sI935
I23
sI936
I47
sI937
I125
sI938
I12
sI939
I19
sI940
I29
sI941
I13
sI942
I36
sI943
I11
sI944
I16
sI945
I19
sI946
I13
sI947
I23
sI948
I81
sI949
I31
sI950
I44
sI951
I15
sI952
I25
sI953
I16
sI954
I21
sI955
I19
sI956
I15
sI957
I70
sI958
I10
sI959
I10
sI960
I18
sI961
I33
sI962
I18
sI963
I11
sI964
I13
sI965
I97
sI966
I29
sI967
I186
sI968
I112
sI969
I13
sI970
I39
sI971
I17
sI972
I18
sI973
I14
sI974
I40
sI975
I183
sI976
I11
sI977
I24
sI978
I140
sI979
I90
sI980
I50
sI981
I10
sI982
I15
sI983
I15
sI984
I92
sI985
I36
sI986
I213
sI987
I113
sI988
I28
sI989
I13
sI990
I15
sI991
I27
sI992
I31
sI993
I17
sI994
I25
sI995
I31
sI996
I111
sI997
I29
sI998
I40
sI999
I14
sI1000
I42
sI1001
I16
sI1002
I10
sI1003
I61
sI1004
I12
sI1005
I17
sI1006
I18
sI1007
I21
sI1008
I13
sI1009
I11
sI1010
I21
sI1011
I31
sI1012
I20
sI1013
I171
sI1014
I25
sI1015
I10
sI1016
I80
sI1017
I21
sI1018
I14
sI1019
I16
sI1020
I36
sI1021
I148
sI1022
I10
sI1023
I22
sI1024
I16
sI1025
I244
sI1026
I13
sI1027
I12
sI1028
I24
sI1029
I11
sI1030
I17
sI1031
I16
sI1032
I19
sI1033
I29
sI1034
I12
sI1035
I21
sI1036
I59
sI1037
I12
sI1038
I16
sI1039
I21
sI1040
I12
sI1041
I28
sI1042
I23
sI1043
I18
sI1044
I10
sI1045
I53
sI1046
I10
sI1047
I277
sI1048
I19
sI1049
I14
sI1050
I12
sI1051
I14
sI1052
I96
sI1053
I19
sI1054
I20
sI1055
I13
sI1056
I31
sI1057
I28
sI1058
I114
sI1059
I69
sI1060
I35
sI1061
I20
sI1062
I26
sI1063
I77
sI1064
I104
sI1065
I68
sI1066
I56
sI1067
I12
sI1068
I12
sI1069
I59
sI1070
I12
sI1071
I28
sI1072
I130
sI1073
I11
sI1074
I28
sI1075
I15
sI1076
I17
sI1077
I11
sI1078
I20
sI1079
I12
sI1080
I18
sI1081
I12
sI1082
I80
sI1083
I60
sI1084
I10
sI1085
I16
sI1086
I13
sI1087
I151
sI1088
I34
sI1089
I19
sI1090
I19
sI1091
I19
sI1092
I18
sI1093
I366
sI1094
I18
sI1095
I36
sI1096
I40
sI1097
I15
sI1098
I13
sI1099
I23
sI1100
I124
sI1101
I17
sI1102
I11
sI1103
I11
sI1104
I14
sI1105
I21
sI1106
I10
sI1107
I110
sI1108
I34
sI1109
I92
sI1110
I14
sI1111
I13
sI1112
I13
sI1113
I10
sI1114
I10
sI1115
I58
sI1116
I13
sI1117
I22
sI1118
I15
sI1119
I11
sI1120
I13
sI1121
I10
sI1122
I13
sI1123
I46
sI1124
I13
sI1125
I38
sI1126
I11
sI1127
I131
sI1128
I10
sI1129
I19
sI1130
I25
sI1131
I13
sI1132
I142
sI1133
I49
sI1134
I19
sI1135
I16
sI1136
I88
sI1137
I23
sI1138
I10
sI1139
I20
sI1140
I43
sI1141
I18
sI1142
I72
sI1143
I14
sI1144
I44
sI1145
I124
sI1146
I16
sI1147
I33
sI1148
I13
sI1149
I56
sI1150
I14
sI1151
I11
sI1152
I36
sI1153
I31
sI1154
I19
sI1155
I118
sI1156
I21
sI1157
I15
sI1158
I189
sI1159
I23
sI1160
I22
sI1161
I16
sI1162
I15
sI1163
I13
sI1164
I12
sI1165
I27
sI1166
I32
sI1167
I21
sI1168
I31
sI1169
I49
sI1170
I45
sI1171
I28
sI1172
I10
sI1173
I10
sI1174
I11
sI1175
I45
sI1176
I23
sI1177
I74
sI1178
I17
sI1179
I14
sI1180
I23
sI1181
I15
sI1182
I18
sI1183
I138
sI1184
I15
sI1185
I16
sI1186
I25
sI1187
I23
sI1188
I20
sI1189
I11
sI1190
I15
sI1191
I14
sI1192
I38
sI1193
I27
sI1194
I49
sI1195
I18
sI1196
I16
sI1197
I10
sI1198
I13
sI1199
I13
sI1200
I97
sI1201
I21
sI1202
I12
sI1203
I11
sI1204
I139
sI1205
I10
sI1206
I24
sI1207
I29
sI1208
I41
sI1209
I14
sI1210
I17
sI1211
I12
sI1212
I15
sI1213
I38
sI1214
I22
sI1215
I45
sI1216
I27
sI1217
I31
sI1218
I274
sI1219
I63
sI1220
I11
sI1221
I23
sI1222
I13
sI1223
I16
sI1224
I15
sI1225
I78
sI1226
I13
sI1227
I26
sI1228
I44
sI1229
I26
sI1230
I24
sI1231
I10
sI1232
I94
sI1233
I11
sI1234
I75
sI1235
I27
sI1236
I115
sI1237
I85
sI1238
I11
sI1239
I39
sI1240
I68
sI1241
I37
sI1242
I13
sI1243
I15
sI1244
I45
sI1245
I28
sI1246
I34
sI1247
I34
sI1248
I48
sI1249
I20
sI1250
I30
sI1251
I26
sI1252
I21
sI1253
I142
sI1254
I24
sI1255
I20
sI1256
I190
sI1257
I73
sI1258
I44
sI1259
I28
sI1260
I10
sI1261
I15
sI1262
I28
sI1263
I12
sI1264
I16
sI1265
I17
sI1266
I68
sI1267
I29
sI1268
I99
sI1269
I33
sI1270
I27
sI1271
I17
sI1272
I26
sI1273
I17
sI1274
I49
sI1275
I12
sI1276
I24
sI1277
I44
sI1278
I12
sI1279
I15
sI1280
I15
sI1281
I11
sI1282
I21
sI1283
I11
sI1284
I31
sI1285
I30
sI1286
I22
sI1287
I180
sI1288
I11
sI1289
I65
sI1290
I26
sI1291
I368
sI1292
I35
sI1293
I26
sI1294
I28
sI1295
I10
sI1296
I35
sI1297
I31
sI1298
I12
sI1299
I20
sI1300
I23
sI1301
I24
sI1302
I57
sI1303
I11
sI1304
I238
sI1305
I10
sI1306
I22
sI1307
I12
sI1308
I35
sI1309
I39
sI1310
I65
sI1311
I52
sI1312
I21
sI1313
I16
sI1314
I18
sI1315
I22
sI1316
I18
sI1317
I22
sI1318
I39
sI1319
I40
sI1320
I21
sI1321
I17
sI1322
I190
sI1323
I27
sI1324
I138
sI1325
I27
sI1326
I96
sI1327
I52
sI1328
I28
sI1329
I89
sI1330
I36
sI1331
I30
sI1332
I35
sI1333
I26
sI1334
I23
sI1335
I63
sI1336
I14
sI1337
I17
sI1338
I10
sI1339
I31
sI1340
I19
sI1341
I10
sI1342
I22
sI1343
I29
sI1344
I24
sI1345
I19
sI1346
I50
sI1347
I16
sI1348
I82
sI1349
I15
sI1350
I15
sI1351
I21
sI1352
I13
sI1353
I11
sI1354
I16
sI1355
I13
sI1356
I91
sI1357
I62
sI1358
I32
sI1359
I28
sI1360
I26
sI1361
I16
sI1362
I14
sI1363
I12
sI1364
I56
sI1365
I262
sI1366
I27
sI1367
I15
sI1368
I60
sI1369
I188
sI1370
I26
sI1371
I12
sI1372
I12
sI1373
I30
sI1374
I12
sI1375
I26
sI1376
I25
sI1377
I18
sI1378
I33
sI1379
I12
sI1380
I52
sI1381
I11
sI1382
I34
sI1383
I36
sI1384
I235
sI1385
I30
sI1386
I17
sI1387
I19
sI1388
I24
sI1389
I19
sI1390
I19
sI1391
I17
sI1392
I19
sI1393
I21
sI1394
I13
sI1395
I30
sI1396
I10
sI1397
I180
sI1398
I13
sI1399
I232
sI1400
I12
sI1401
I12
sI1402
I18
sI1403
I12
sI1404
I15
sI1405
I94
sI1406
I15
sI1407
I38
sI1408
I32
sI1409
I15
sI1410
I32
sI1411
I16
sI1412
I135
sI1413
I15
sI1414
I13
sI1415
I147
sI1416
I11
sI1417
I11
sI1418
I35
sI1419
I11
sI1420
I28
sI1421
I10
sI1422
I22
sI1423
I13
sI1424
I42
sI1425
I16
sI1426
I61
sI1427
I10
sI1428
I15
sI1429
I13
sI1430
I11
sI1431
I13
sI1432
I19
sI1433
I10
sI1434
I12
sI1435
I11
sI1436
I24
sI1437
I14
sI1438
I15
sI1439
I23
sI1440
I15
sI1441
I11
sI1442
I157
sI1443
I20
sI1444
I16
sI1445
I20
sI1446
I35
sI1447
I53
sI1448
I12
sI1449
I81
sI1450
I16
sI1451
I98
sI1452
I25
sI1453
I12
sI1454
I47
sI1455
I38
sI1456
I10
sI1457
I194
sI1458
I12
sI1459
I84
sI1460
I29
sI1461
I21
sI1462
I71
sI1463
I56
sI1464
I103
sI1465
I21
sI1466
I184
sI1467
I26
sI1468
I86
sI1469
I10
sI1470
I13
sI1471
I10
sI1472
I29
sI1473
I10
sI1474
I20
sI1475
I14
sI1476
I21
sI1477
I17
sI1478
I19
sI1479
I10
sI1480
I15
sI1481
I12
sI1482
I22
sI1483
I76
sI1484
I13
sI1485
I11
sI1486
I94
sI1487
I34
sI1488
I18
sI1489
I20
sI1490
I43
sI1491
I10
sI1492
I11
sI1493
I12
sI1494
I19
sI1495
I68
sI1496
I17
sI1497
I37
sI1498
I17
sI1499
I73
sI1500
I17
sI1501
I44
sI1502
I11
sI1503
I52
sI1504
I51
sI1505
I82
sI1506
I10
sI1507
I23
sI1508
I10
sI1509
I10
sI1510
I12
sI1511
I51
sI1512
I22
sI1513
I20
sI1514
I28
sI1515
I59
sI1516
I19
sI1517
I16
sI1518
I21
sI1519
I14
sI1520
I13
sI1521
I26
sI1522
I18
sI1523
I37
sI1524
I33
sI1525
I12
sI1526
I10
sI1527
I10
sI1528
I15
sI1529
I17
sI1530
I42
sI1531
I41
sI1532
I14
sI1533
I21
sI1534
I23
sI1535
I16
sI1536
I30
sI1537
I49
sI1538
I30
sI1539
I60
sI1540
I11
sI1541
I44
sI1542
I108
sI1543
I37
sI1544
I11
sI1545
I63
sI1546
I18
sI1547
I29
sI1548
I65
sI1549
I13
sI1550
I25
sI1551
I34
sI1552
I70
sI1553
I10
sI1554
I36
sI1555
I75
sI1556
I14
sI1557
I39
sI1558
I13
sI1559
I18
sI1560
I71
sI1561
I24
sI1562
I36
sI1563
I28
sI1564
I17
sI1565
I15
sI1566
I11
sI1567
I15
sI1568
I17
sI1569
I41
sI1570
I76
sI1571
I83
sI1572
I72
sI1573
I10
sI1574
I95
sI1575
I59
sI1576
I19
sI1577
I13
sI1578
I81
sI1579
I191
sI1580
I17
sI1581
I19
sI1582
I33
sI1583
I102
sI1584
I30
sI1585
I13
sI1586
I46
sI1587
I15
sI1588
I10
sI1589
I66
sI1590
I48
sI1591
I21
sI1592
I10
sI1593
I17
sI1594
I12
sI1595
I26
sI1596
I13
sI1597
I12
sI1598
I96
sI1599
I10
sI1600
I17
sI1601
I82
sI1602
I15
sI1603
I12
sI1604
I219
sI1605
I19
sI1606
I14
sI1607
I38
sI1608
I19
sI1609
I135
sI1610
I29
sI1611
I47
sI1612
I18
sI1613
I18
sI1614
I18
sI1615
I11
sI1616
I12
sI1617
I110
sI1618
I63
sI1619
I16
sI1620
I13
sI1621
I14
sI1622
I18
sI1623
I22
sI1624
I13
sI1625
I24
sI1626
I11
sI1627
I11
sI1628
I11
sI1629
I51
sI1630
I119
sI1631
I10
sI1632
I14
sI1633
I17
sI1634
I18
sI1635
I17
sI1636
I280
sI1637
I71
sI1638
I70
sI1639
I60
sI1640
I52
sI1641
I29
sI1642
I26
sI1643
I24
sI1644
I101
sI1645
I11
sI1646
I13
sI1647
I25
sI1648
I35
sI1649
I29
sI1650
I93
sI1651
I13
sI1652
I19
sI1653
I10
sI1654
I104
sI1655
I22
sI1656
I83
sI1657
I70
sI1658
I15
sI1659
I11
sI1660
I18
sI1661
I35
sI1662
I12
sI1663
I27
sI1664
I11
sI1665
I20
sI1666
I15
sI1667
I26
sI1668
I102
sI1669
I14
sI1670
I36
sI1671
I101
sI1672
I22
sI1673
I20
sI1674
I10
sI1675
I15
sI1676
I10
sI1677
I10
sI1678
I75
sI1679
I14
sI1680
I107
sI1681
I28
sI1682
I43
sI1683
I19
sI1684
I33
sI1685
I10
sI1686
I52
sI1687
I14
sI1688
I25
sI1689
I211
sI1690
I13
sI1691
I122
sI1692
I36
sI1693
I15
sI1694
I69
sI1695
I13
sI1696
I80
sI1697
I81
sI1698
I14
sI1699
I11
sI1700
I30
sI1701
I14
sI1702
I34
sI1703
I10
sI1704
I12
sI1705
I41
sI1706
I10
sI1707
I12
sI1708
I24
sI1709
I10
sI1710
I82
sI1711
I23
sI1712
I16
sI1713
I11
sI1714
I10
sI1715
I32
sI1716
I10
sI1717
I11
sI1718
I13
sI1719
I11
sI1720
I12
sI1721
I22
sI1722
I27
sI1723
I121
sI1724
I70
sI1725
I14
sI1726
I10
sI1727
I17
sI1728
I18
sI1729
I18
sI1730
I13
sI1731
I18
sI1732
I21
sI1733
I16
sI1734
I34
sI1735
I16
sI1736
I19
sI1737
I69
sI1738
I15
sI1739
I12
sI1740
I16
sI1741
I27
sI1742
I13
sI1743
I14
sI1744
I372
sI1745
I32
sI1746
I26
sI1747
I317
sI1748
I29
sI1749
I13
sI1750
I18
sI1751
I13
sI1752
I144
sI1753
I18
sI1754
I21
sI1755
I10
sI1756
I19
sI1757
I42
sI1758
I42
sI1759
I53
sI1760
I35
sI1761
I19
sI1762
I44
sI1763
I10
sI1764
I106
sI1765
I16
sI1766
I26
sI1767
I43
sI1768
I40
sI1769
I14
sI1770
I10
sI1771
I22
sI1772
I32
sI1773
I50
sI1774
I17
sI1775
I321
sI1776
I34
sI1777
I20
sI1778
I61
sI1779
I73
sI1780
I10
sI1781
I69
sI1782
I27
sI1783
I107
sI1784
I14
sI1785
I11
sI1786
I22
sI1787
I69
sI1788
I10
sI1789
I13
sI1790
I13
sI1791
I23
sI1792
I28
sI1793
I14
sI1794
I11
sI1795
I13
sI1796
I23
sI1797
I17
sI1798
I17
sI1799
I54
sI1800
I16
sI1801
I21
sI1802
I83
sI1803
I21
sI1804
I30
sI1805
I125
sI1806
I26
sI1807
I12
sI1808
I34
sI1809
I59
sI1810
I15
sI1811
I53
sI1812
I26
sI1813
I37
sI1814
I31
sI1815
I114
sI1816
I17
sI1817
I73
sI1818
I11
sI1819
I89
sI1820
I38
sI1821
I13
sI1822
I11
sI1823
I24
sI1824
I12
sI1825
I36
sI1826
I102
sI1827
I72
sI1828
I12
sI1829
I67
sI1830
I12
sI1831
I13
sI1832
I92
sI1833
I45
sI1834
I19
sI1835
I145
sI1836
I30
sI1837
I16
sI1838
I64
sI1839
I21
sI1840
I47
sI1841
I22
sI1842
I167
sI1843
I97
sI1844
I11
sI1845
I56
sI1846
I43
sI1847
I15
sI1848
I12
sI1849
I67
sI1850
I23
sI1851
I18
sI1852
I80
sI1853
I13
sI1854
I22
sI1855
I457
sI1856
I20
sI1857
I25
sI1858
I13
sI1859
I35
sI1860
I12
sI1861
I41
sI1862
I30
sI1863
I53
sI1864
I43
sI1865
I11
sI1866
I36
sI1867
I11
sI1868
I48
sI1869
I181
sI1870
I88
sI1871
I27
sI1872
I93
sI1873
I23
sI1874
I58
sI1875
I63
sI1876
I14
sI1877
I14
sI1878
I12
sI1879
I42
sI1880
I14
sI1881
I11
sI1882
I15
sI1883
I90
sI1884
I36
sI1885
I16
sI1886
I52
sI1887
I12
sI1888
I10
sI1889
I72
sI1890
I13
sI1891
I138
sI1892
I10
sI1893
I69
sI1894
I16
sI1895
I27
sI1896
I13
sI1897
I17
sI1898
I17
sI1899
I22
sI1900
I10
sI1901
I55
sI1902
I20
sI1903
I12
sI1904
I12
sI1905
I15
sI1906
I24
sI1907
I13
sI1908
I13
sI1909
I104
sI1910
I16
sI1911
I20
sI1912
I30
sI1913
I16
sI1914
I27
sI1915
I18
sI1916
I12
sI1917
I19
sI1918
I54
sI1919
I42
sI1920
I12
sI1921
I18
sI1922
I10
sI1923
I42
sI1924
I36
sI1925
I18
sI1926
I39
sI1927
I38
sI1928
I34
sI1929
I12
sI1930
I279
sI1931
I144
sI1932
I11
sI1933
I43
sI1934
I156
sI1935
I25
sI1936
I10
sI1937
I16
sI1938
I20
sI1939
I24
sI1940
I40
sI1941
I22
sI1942
I11
sI1943
I90
sI1944
I27
sI1945
I21
sI1946
I44
sI1947
I12
sI1948
I55
sI1949
I25
sI1950
I20
sI1951
I10
sI1952
I13
sI1953
I18
sI1954
I26
sI1955
I53
sI1956
I58
sI1957
I13
sI1958
I15
sI1959
I32
sI1960
I10
sI1961
I10
sI1962
I24
sI1963
I26
sI1964
I14
sI1965
I429
sI1966
I28
sI1967
I13
sI1968
I16
sI1969
I76
sI1970
I11
sI1971
I135
sI1972
I12
sI1973
I25
sI1974
I14
sI1975
I30
sI1976
I21
sI1977
I28
sI1978
I38
sI1979
I346
sI1980
I52
sI1981
I30
sI1982
I46
sI1983
I50
sI1984
I13
sI1985
I24
sI1986
I21
sI1987
I12
sI1988
I37
sI1989
I23
sI1990
I12
sI1991
I380
sI1992
I15
sI1993
I158
sI1994
I39
sI1995
I37
sI1996
I67
sI1997
I107
sI1998
I155
sI1999
I14
sI2000
I10
sI2001
I117
sI2002
I27
sI2003
I16
sI2004
I11
sI2005
I11
sI2006
I36
sI2007
I12
sI2008
I15
sI2009
I17
sI2010
I18
sI2011
I10
sI2012
I78
sI2013
I11
sI2014
I14
sI2015
I10
sI2016
I23
sI2017
I72
sI2018
I18
sI2019
I17
sI2020
I15
sI2021
I19
sI2022
I25
sI2023
I10
sI2024
I15
sI2025
I21
sI2026
I12
sI2027
I18
sI2028
I10
sI2029
I10
sI2030
I30
sI2031
I19
sI2032
I15
sI2033
I14
sI2034
I12
sI2035
I66
sI2036
I18
sI2037
I13
sI2038
I11
sI2039
I11
sI2040
I58
sI2041
I47
sI2042
I18
sI2043
I56
sI2044
I10
sI2045
I112
sI2046
I15
sI2047
I11
sI2048
I11
sI2049
I71
sI2050
I16
sI2051
I84
sI2052
I84
sI2053
I12
sI2054
I11
sI2055
I43
sI2056
I55
sI2057
I61
sI2058
I33
sI2059
I15
sI2060
I20
sI2061
I20
sI2062
I16
sI2063
I18
sI2064
I26
sI2065
I74
sI2066
I26
sI2067
I18
sI2068
I27
sI2069
I56
sI2070
I18
sI2071
I16
sI2072
I18
sI2073
I345
sI2074
I12
sI2075
I78
sI2076
I41
sI2077
I33
sI2078
I20
sI2079
I34
sI2080
I215
sI2081
I17
sI2082
I34
sI2083
I38
sI2084
I79
sI2085
I13
sI2086
I150
sI2087
I23
sI2088
I18
sI2089
I18
sI2090
I13
sI2091
I31
sI2092
I16
sI2093
I297
sI2094
I463
sI2095
I16
sI2096
I17
sI2097
I14
sI2098
I15
sI2099
I12
sI2100
I12
sI2101
I21
sI2102
I10
sI2103
I11
sI2104
I10
sI2105
I14
sI2106
I21
sI2107
I11
sI2108
I67
sI2109
I39
sI2110
I10
sI2111
I28
sI2112
I28
sI2113
I92
sI2114
I27
sI2115
I11
sI2116
I25
sI2117
I40
sI2118
I22
sI2119
I25
sI2120
I52
sI2121
I15
sI2122
I17
sI2123
I14
sI2124
I108
sI2125
I83
sI2126
I47
sI2127
I18
sI2128
I72
sI2129
I15
sI2130
I11
sI2131
I32
sI2132
I16
sI2133
I27
sI2134
I10
sI2135
I14
sI2136
I149
sI2137
I18
sI2138
I32
sI2139
I16
sI2140
I60
sI2141
I13
sI2142
I17
sI2143
I111
sI2144
I17
sI2145
I11
sI2146
I15
sI2147
I44
sI2148
I13
sI2149
I66
sI2150
I18
sI2151
I13
sI2152
I14
sI2153
I38
sI2154
I13
sI2155
I18
sI2156
I23
sI2157
I45
sI2158
I18
sI2159
I44
sI2160
I214
sI2161
I117
sI2162
I25
sI2163
I20
sI2164
I41
sI2165
I18
sI2166
I21
sI2167
I72
sI2168
I12
sI2169
I10
sI2170
I476
sI2171
I10
sI2172
I10
sI2173
I17
sI2174
I52
sI2175
I13
sI2176
I52
sI2177
I123
sI2178
I10
sI2179
I19
sI2180
I14
sI2181
I10
sI2182
I10
sI2183
I13
sI2184
I11
sI2185
I24
sI2186
I26
sI2187
I25
sI2188
I13
sI2189
I33
sI2190
I48
sI2191
I11
sI2192
I16
sI2193
I12
sI2194
I80
sI2195
I80
sI2196
I88
sI2197
I13
sI2198
I40
sI2199
I27
sI2200
I31
sI2201
I18
sI2202
I193
sI2203
I30
sI2204
I29
sI2205
I27
sI2206
I25
sI2207
I53
sI2208
I21
sI2209
I11
sI2210
I12
sI2211
I10
sI2212
I21
sI2213
I12
sI2214
I18
sI2215
I19
sI2216
I14
sI2217
I26
sI2218
I13
sI2219
I47
sI2220
I36
sI2221
I16
sI2222
I45
sI2223
I11
sI2224
I30
sI2225
I21
sI2226
I33
sI2227
I35
sI2228
I14
sI2229
I37
sI2230
I25
sI2231
I78
sI2232
I12
sI2233
I11
sI2234
I17
sI2235
I17
sI2236
I31
sI2237
I18
sI2238
I33
sI2239
I13
sI2240
I19
sI2241
I12
sI2242
I21
sI2243
I19
sI2244
I11
sI2245
I11
sI2246
I13
sI2247
I37
sI2248
I14
sI2249
I18
sI2250
I20
sI2251
I16
sI2252
I31
sI2253
I22
sI2254
I329
sI2255
I68
sI2256
I39
sI2257
I14
sI2258
I12
sI2259
I14
sI2260
I24
sI2261
I13
sI2262
I12
sI2263
I22
sI2264
I32
sI2265
I12
sI2266
I63
sI2267
I14
sI2268
I37
sI2269
I69
sI2270
I89
sI2271
I12
sI2272
I58
sI2273
I21
sI2274
I21
sI2275
I31
sI2276
I14
sI2277
I25
sI2278
I42
sI2279
I16
sI2280
I26
sI2281
I133
sI2282
I22
sI2283
I11
sI2284
I86
sI2285
I11
sI2286
I22
sI2287
I117
sI2288
I28
sI2289
I13
sI2290
I18
sI2291
I144
sI2292
I121
sI2293
I12
sI2294
I31
sI2295
I21
sI2296
I189
sI2297
I27
sI2298
I14
sI2299
I82
sI2300
I35
sI2301
I10
sI2302
I59
sI2303
I13
sI2304
I27
sI2305
I10
sI2306
I166
sI2307
I170
sI2308
I231
sI2309
I46
sI2310
I32
sI2311
I13
sI2312
I14
sI2313
I53
sI2314
I31
sI2315
I24
sI2316
I22
sI2317
I10
sI2318
I43
sI2319
I17
sI2320
I12
sI2321
I69
sI2322
I49
sI2323
I11
sI2324
I21
sI2325
I58
sI2326
I27
sI2327
I62
sI2328
I10
sI2329
I12
sI2330
I44
sI2331
I11
sI2332
I29
sI2333
I29
sI2334
I19
sI2335
I13
sI2336
I60
sI2337
I124
sI2338
I16
sI2339
I17
sI2340
I21
sI2341
I17
sI2342
I10
sI2343
I286
sI2344
I16
sI2345
I14
sI2346
I78
sI2347
I11
sI2348
I12
sI2349
I14
sI2350
I66
sI2351
I21
sI2352
I48
sI2353
I29
sI2354
I11
sI2355
I109
sI2356
I53
sI2357
I15
sI2358
I84
sI2359
I13
sI2360
I16
sI2361
I56
sI2362
I10
sI2363
I117
sI2364
I167
sI2365
I11
sI2366
I11
sI2367
I24
sI2368
I45
sI2369
I15
sI2370
I89
sI2371
I15
sI2372
I23
sI2373
I29
sI2374
I15
sI2375
I80
sI2376
I12
sI2377
I16
sI2378
I10
sI2379
I149
sI2380
I24
sI2381
I10
sI2382
I295
sI2383
I12
sI2384
I46
sI2385
I12
sI2386
I11
sI2387
I24
sI2388
I29
sI2389
I31
sI2390
I12
sI2391
I17
sI2392
I99
sI2393
I76
sI2394
I10
sI2395
I10
sI2396
I47
sI2397
I37
sI2398
I17
sI2399
I64
sI2400
I39
sI2401
I19
sI2402
I64
sI2403
I72
sI2404
I10
sI2405
I11
sI2406
I10
sI2407
I23
sI2408
I22
sI2409
I25
sI2410
I12
sI2411
I64
sI2412
I45
sI2413
I359
sI2414
I16
sI2415
I64
sI2416
I196
sI2417
I12
sI2418
I10
sI2419
I11
sI2420
I22
sI2421
I19
sI2422
I11
sI2423
I26
sI2424
I12
sI2425
I17
sI2426
I34
sI2427
I13
sI2428
I15
sI2429
I40
sI2430
I13
sI2431
I100
sI2432
I13
sI2433
I17
sI2434
I46
sI2435
I10
sI2436
I30
sI2437
I25
sI2438
I11
sI2439
I14
sI2440
I17
sI2441
I10
sI2442
I14
sI2443
I17
sI2444
I17
sI2445
I12
sI2446
I18
sI2447
I14
sI2448
I15
sI2449
I18
sI2450
I27
sI2451
I142
sI2452
I10
sI2453
I17
sI2454
I52
sI2455
I15
sI2456
I23
sI2457
I24
sI2458
I12
sI2459
I27
sI2460
I18
sI2461
I37
sI2462
I29
sI2463
I26
sI2464
I122
sI2465
I43
sI2466
I29
sI2467
I16
sI2468
I10
sI2469
I42
sI2470
I25
sI2471
I13
sI2472
I23
sI2473
I13
sI2474
I11
sI2475
I44
sI2476
I23
sI2477
I47
sI2478
I11
sI2479
I44
sI2480
I15
sI2481
I33
sI2482
I21
sI2483
I18
sI2484
I18
sI2485
I11
sI2486
I47
sI2487
I17
sI2488
I12
sI2489
I15
sI2490
I12
sI2491
I18
sI2492
I13
sI2493
I49
sI2494
I20
sI2495
I20
sI2496
I17
sI2497
I14
sI2498
I14
sI2499
I13
sI2500
I10
sI2501
I42
sI2502
I33
sI2503
I10
sI2504
I30
sI2505
I47
sI2506
I387
sI2507
I13
sI2508
I72
sI2509
I15
sI2510
I30
sI2511
I14
sI2512
I32
sI2513
I12
sI2514
I26
sI2515
I23
sI2516
I11
sI2517
I67
sI2518
I41
sI2519
I131
sI2520
I25
sI2521
I23
sI2522
I17
sI2523
I12
sI2524
I93
sI2525
I10
sI2526
I17
sI2527
I153
sI2528
I22
sI2529
I70
sI2530
I39
sI2531
I22
sI2532
I12
sI2533
I43
sI2534
I16
sI2535
I11
sI2536
I53
sI2537
I17
sI2538
I26
sI2539
I89
sI2540
I38
sI2541
I50
sI2542
I10
sI2543
I16
sI2544
I20
sI2545
I13
sI2546
I31
sI2547
I65
sI2548
I178
sI2549
I20
sI2550
I10
sI2551
I15
sI2552
I128
sI2553
I93
sI2554
I10
sI2555
I29
sI2556
I23
sI2557
I112
sI2558
I27
sI2559
I13
sI2560
I20
sI2561
I54
sI2562
I257
sI2563
I22
sI2564
I14
sI2565
I52
sI2566
I54
sI2567
I69
sI2568
I19
sI2569
I15
sI2570
I14
sI2571
I19
sI2572
I12
sI2573
I31
sI2574
I18
sI2575
I10
sI2576
I10
sI2577
I37
sI2578
I29
sI2579
I35
sI2580
I18
sI2581
I216
sI2582
I19
sI2583
I16
sI2584
I22
sI2585
I19
sI2586
I120
sI2587
I13
sI2588
I115
sI2589
I206
sI2590
I40
sI2591
I17
sI2592
I10
sI2593
I55
sI2594
I16
sI2595
I126
sI2596
I20
sI2597
I16
sI2598
I27
sI2599
I24
sI2600
I36
sI2601
I21
sI2602
I18
sI2603
I24
sI2604
I13
sI2605
I12
sI2606
I11
sI2607
I11
sI2608
I444
sI2609
I77
sI2610
I30
sI2611
I84
sI2612
I62
sI2613
I75
sI2614
I17
sI2615
I26
sI2616
I12
sI2617
I337
sI2618
I12
sI2619
I16
sI2620
I28
sI2621
I89
sI2622
I11
sI2623
I95
sI2624
I21
sI2625
I237
sI2626
I177
sI2627
I18
sI2628
I11
sI2629
I43
sI2630
I84
sI2631
I15
sI2632
I11
sI2633
I10
sI2634
I44
sI2635
I14
sI2636
I19
sI2637
I28
sI2638
I19
sI2639
I20
sI2640
I10
sI2641
I46
sI2642
I12
sI2643
I19
sI2644
I18
sI2645
I12
sI2646
I16
sI2647
I17
sI2648
I21
sI2649
I11
sI2650
I11
sI2651
I20
sI2652
I32
sI2653
I77
sI2654
I16
sI2655
I27
sI2656
I10
sI2657
I16
sI2658
I10
sI2659
I10
sI2660
I10
sI2661
I16
sI2662
I22
sI2663
I13
sI2664
I441
sI2665
I10
sI2666
I19
sI2667
I12
sI2668
I23
sI2669
I11
sI2670
I10
sI2671
I42
sI2672
I13
sI2673
I18
sI2674
I17
sI2675
I10
sI2676
I23
sI2677
I17
sI2678
I11
sI2679
I37
sI2680
I16
sI2681
I10
sI2682
I270
sI2683
I11
sI2684
I31
sI2685
I305
sI2686
I59
sI2687
I15
sI2688
I14
sI2689
I24
sI2690
I16
sI2691
I13
sI2692
I69
sI2693
I43
sI2694
I32
sI2695
I19
sI2696
I191
sI2697
I48
sI2698
I19
sI2699
I15
sI2700
I31
sI2701
I27
sI2702
I13
sI2703
I80
sI2704
I14
sI2705
I11
sI2706
I113
sI2707
I20
sI2708
I14
sI2709
I29
sI2710
I11
sI2711
I163
sI2712
I22
sI2713
I14
sI2714
I26
sI2715
I112
sI2716
I35
sI2717
I13
sI2718
I44
sI2719
I10
sI2720
I33
sI2721
I14
sI2722
I50
sI2723
I198
sI2724
I38
sI2725
I41
sI2726
I23
sI2727
I65
sI2728
I10
sI2729
I62
sI2730
I15
sI2731
I15
sI2732
I41
sI2733
I10
sI2734
I28
sI2735
I17
sI2736
I76
sI2737
I11
sI2738
I45
sI2739
I10
sI2740
I11
sI2741
I57
sI2742
I46
sI2743
I11
sI2744
I80
sI2745
I23
sI2746
I10
sI2747
I10
sI2748
I12
sI2749
I10
sI2750
I29
sI2751
I15
sI2752
I49
sI2753
I51
sI2754
I54
sI2755
I475
sI2756
I21
sI2757
I31
sI2758
I10
sI2759
I10
sI2760
I17
sI2761
I10
sI2762
I138
sI2763
I12
sI2764
I98
sI2765
I28
sI2766
I12
sI2767
I22
sI2768
I11
sI2769
I16
sI2770
I53
sI2771
I34
sI2772
I10
sI2773
I109
sI2774
I25
sI2775
I12
sI2776
I11
sI2777
I12
sI2778
I70
sI2779
I32
sI2780
I62
sI2781
I53
sI2782
I255
sI2783
I29
sI2784
I12
sI2785
I17
sI2786
I30
sI2787
I28
sI2788
I23
sI2789
I14
sI2790
I13
sI2791
I11
sI2792
I22
sI2793
I11
sI2794
I10
sI2795
I19
sI2796
I15
sI2797
I17
sI2798
I65
sI2799
I89
sI2800
I141
sI2801
I173
sI2802
I118
sI2803
I11
sI2804
I308
sI2805
I153
sI2806
I14
sI2807
I13
sI2808
I39
sI2809
I139
sI2810
I70
sI2811
I111
sI2812
I22
sI2813
I13
sI2814
I13
sI2815
I26
sI2816
I14
sI2817
I27
sI2818
I16
sI2819
I47
sI2820
I464
sI2821
I10
sI2822
I14
sI2823
I28
sI2824
I110
sI2825
I107
sI2826
I14
sI2827
I18
sI2828
I19
sI2829
I15
sI2830
I155
sI2831
I61
sI2832
I21
sI2833
I151
sI2834
I12
sI2835
I10
sI2836
I22
sI2837
I47
sI2838
I35
sI2839
I51
sI2840
I13
sI2841
I22
sI2842
I25
sI2843
I223
sI2844
I73
sI2845
I337
sI2846
I54
sI2847
I16
sI2848
I12
sI2849
I10
sI2850
I26
sI2851
I13
sI2852
I26
sI2853
I14
sI2854
I18
sI2855
I36
sI2856
I23
sI2857
I16
sI2858
I10
sI2859
I235
sI2860
I92
sI2861
I24
sI2862
I60
sI2863
I13
sI2864
I53
sI2865
I173
sI2866
I47
sI2867
I11
sI2868
I27
sI2869
I10
sI2870
I10
sI2871
I36
sI2872
I15
sI2873
I14
sI2874
I12
sI2875
I30
sI2876
I11
sI2877
I39
sI2878
I17
sI2879
I22
sI2880
I14
sI2881
I15
sI2882
I55
sI2883
I246
sI2884
I107
sI2885
I11
sI2886
I12
sI2887
I19
sI2888
I25
sI2889
I12
sI2890
I120
sI2891
I125
sI2892
I24
sI2893
I10
sI2894
I416
sI2895
I72
sI2896
I14
sI2897
I14
sI2898
I13
sI2899
I64
sI2900
I26
sI2901
I11
sI2902
I322
sI2903
I11
sI2904
I121
sI2905
I31
sI2906
I11
sI2907
I26
sI2908
I30
sI2909
I23
sI2910
I84
sI2911
I25
sI2912
I13
sI2913
I10
sI2914
I12
sI2915
I10
sI2916
I26
sI2917
I41
sI2918
I23
sI2919
I20
sI2920
I15
sI2921
I17
sI2922
I34
sI2923
I60
sI2924
I61
sI2925
I207
sI2926
I52
sI2927
I34
sI2928
I50
sI2929
I45
sI2930
I51
sI2931
I99
sI2932
I15
sI2933
I21
sI2934
I13
sI2935
I11
sI2936
I12
sI2937
I20
sI2938
I50
sI2939
I14
sI2940
I41
sI2941
I45
sI2942
I45
sI2943
I13
sI2944
I86
sI2945
I13
sI2946
I11
sI2947
I23
sI2948
I10
sI2949
I195
sI2950
I51
sI2951
I14
sI2952
I17
sI2953
I27
sI2954
I27
sI2955
I28
sI2956
I16
sI2957
I14
sI2958
I10
sI2959
I19
sI2960
I24
sI2961
I26
sI2962
I16
sI2963
I19
sI2964
I14
sI2965
I21
sI2966
I10
sI2967
I16
sI2968
I10
sI2969
I47
sI2970
I15
sI2971
I14
sI2972
I11
sI2973
I55
sI2974
I11
sI2975
I142
sI2976
I84
sI2977
I80
sI2978
I31
sI2979
I134
sI2980
I25
sI2981
I12
sI2982
I66
sI2983
I12
sI2984
I18
sI2985
I23
sI2986
I69
sI2987
I11
sI2988
I14
sI2989
I11
sI2990
I14
sI2991
I11
sI2992
I19
sI2993
I54
sI2994
I10
sI2995
I10
sI2996
I10
sI2997
I13
sI2998
I56
sI2999
I10
sI3000
I42
sI3001
I73
sI3002
I86
sI3003
I51
sI3004
I16
sI3005
I47
sI3006
I34
sI3007
I26
sI3008
I59
sI3009
I24
sI3010
I20
sI3011
I20
sI3012
I26
sI3013
I19
sI3014
I64
sI3015
I10
sI3016
I31
sI3017
I25
sI3018
I44
sI3019
I53
sI3020
I18
sI3021
I61
sI3022
I53
sI3023
I14
sI3024
I18
sI3025
I15
sI3026
I41
sI3027
I10
sI3028
I79
sI3029
I17
sI3030
I44
sI3031
I33
sI3032
I72
sI3033
I15
sI3034
I30
sI3035
I12
sI3036
I37
sI3037
I42
sI3038
I10
sI3039
I19
sI3040
I30
sI3041
I12
sI3042
I16
sI3043
I15
sI3044
I11
sI3045
I16
sI3046
I17
sI3047
I104
sI3048
I13
sI3049
I192
sI3050
I53
sI3051
I66
sI3052
I14
sI3053
I157
sI3054
I15
sI3055
I14
sI3056
I29
sI3057
I51
sI3058
I11
sI3059
I14
sI3060
I14
sI3061
I28
sI3062
I10
sI3063
I66
sI3064
I23
sI3065
I53
sI3066
I13
sI3067
I44
sI3068
I54
sI3069
I75
sI3070
I23
sI3071
I17
sI3072
I27
sI3073
I18
sI3074
I47
sI3075
I57
sI3076
I10
sI3077
I11
sI3078
I16
sI3079
I20
sI3080
I18
sI3081
I19
sI3082
I11
sI3083
I148
sI3084
I85
sI3085
I45
sI3086
I23
sI3087
I29
sI3088
I24
sI3089
I29
sI3090
I17
sI3091
I19
sI3092
I88
sI3093
I10
sI3094
I50
sI3095
I35
sI3096
I17
sI3097
I12
sI3098
I52
sI3099
I43
sI3100
I11
sI3101
I17
sI3102
I10
sI3103
I22
sI3104
I12
sI3105
I10
sI3106
I17
sI3107
I14
sI3108
I12
sI3109
I16
sI3110
I35
sI3111
I42
sI3112
I10
sI3113
I430
sI3114
I42
sI3115
I12
sI3116
I12
sI3117
I11
sI3118
I31
sI3119
I12
sI3120
I102
sI3121
I23
sI3122
I25
sI3123
I10
sI3124
I11
sI3125
I16
sI3126
I36
sI3127
I21
sI3128
I11
sI3129
I108
sI3130
I10
sI3131
I49
sI3132
I11
sI3133
I45
sI3134
I18
sI3135
I44
sI3136
I14
sI3137
I29
sI3138
I11
sI3139
I122
sI3140
I13
sI3141
I17
sI3142
I34
sI3143
I124
sI3144
I12
sI3145
I220
sI3146
I20
sI3147
I69
sI3148
I28
sI3149
I19
sI3150
I50
sI3151
I11
sI3152
I15
sI3153
I23
sI3154
I15
sI3155
I35
sI3156
I16
sI3157
I26
sI3158
I19
sI3159
I16
sI3160
I10
sI3161
I12
sI3162
I213
sI3163
I16
sI3164
I64
sI3165
I39
sI3166
I37
sI3167
I13
sI3168
I29
sI3169
I18
sI3170
I23
sI3171
I12
sI3172
I14
sI3173
I17
sI3174
I64
sI3175
I14
sI3176
I11
sI3177
I125
sI3178
I55
sI3179
I25
sI3180
I401
sI3181
I39
sI3182
I82
sI3183
I31
sI3184
I18
sI3185
I13
sI3186
I81
sI3187
I32
sI3188
I10
sI3189
I45
sI3190
I11
sI3191
I10
sI3192
I19
sI3193
I226
sI3194
I19
sI3195
I13
sI3196
I10
sI3197
I18
sI3198
I12
sI3199
I23
sI3200
I79
sI3201
I22
sI3202
I34
sI3203
I16
sI3204
I18
sI3205
I70
sI3206
I10
sI3207
I25
sI3208
I80
sI3209
I11
sI3210
I10
sI3211
I12
sI3212
I15
sI3213
I98
sI3214
I176
sI3215
I39
sI3216
I15
sI3217
I13
sI3218
I38
sI3219
I11
sI3220
I16
sI3221
I25
sI3222
I15
sI3223
I11
sI3224
I16
sI3225
I16
sI3226
I15
sI3227
I18
sI3228
I43
sI3229
I25
sI3230
I42
sI3231
I21
sI3232
I47
sI3233
I17
sI3234
I14
sI3235
I26
sI3236
I35
sI3237
I10
sI3238
I10
sI3239
I24
sI3240
I17
sI3241
I19
sI3242
I15
sI3243
I17
sI3244
I12
sI3245
I12
sI3246
I30
sI3247
I22
sI3248
I13
sI3249
I20
sI3250
I11
sI3251
I13
sI3252
I29
sI3253
I170
sI3254
I26
sI3255
I94
sI3256
I61
sI3257
I28
sI3258
I45
sI3259
I19
sI3260
I18
sI3261
I14
sI3262
I43
sI3263
I52
sI3264
I16
sI3265
I14
sI3266
I17
sI3267
I11
sI3268
I45
sI3269
I12
sI3270
I52
sI3271
I24
sI3272
I121
sI3273
I13
sI3274
I22
sI3275
I122
sI3276
I12
sI3277
I12
sI3278
I14
sI3279
I15
sI3280
I76
sI3281
I65
sI3282
I29
sI3283
I66
sI3284
I52
sI3285
I27
sI3286
I26
sI3287
I16
sI3288
I16
sI3289
I37
sI3290
I10
sI3291
I17
sI3292
I12
sI3293
I12
sI3294
I17
sI3295
I21
sI3296
I15
sI3297
I37
sI3298
I47
sI3299
I10
sI3300
I36
sI3301
I28
sI3302
I17
sI3303
I21
sI3304
I23
sI3305
I10
sI3306
I46
sI3307
I10
sI3308
I16
sI3309
I48
sI3310
I10
sI3311
I12
sI3312
I278
sI3313
I23
sI3314
I12
sI3315
I20
sI3316
I84
sI3317
I16
sI3318
I62
sI3319
I63
sI3320
I12
sI3321
I18
sI3322
I10
sI3323
I52
sI3324
I13
sI3325
I44
sI3326
I15
sI3327
I122
sI3328
I51
sI3329
I16
sI3330
I19
sI3331
I24
sI3332
I20
sI3333
I20
sI3334
I17
sI3335
I38
sI3336
I21
sI3337
I11
sI3338
I19
sI3339
I80
sI3340
I14
sI3341
I22
sI3342
I56
sI3343
I14
sI3344
I91
sI3345
I26
sI3346
I447
sI3347
I65
sI3348
I12
sI3349
I12
sI3350
I32
sI3351
I10
sI3352
I18
sI3353
I11
sI3354
I133
sI3355
I12
sI3356
I19
sI3357
I13
sI3358
I16
sI3359
I19
sI3360
I51
sI3361
I58
sI3362
I16
sI3363
I17
sI3364
I74
sI3365
I51
sI3366
I13
sI3367
I16
sI3368
I17
sI3369
I19
sI3370
I82
sI3371
I179
sI3372
I17
sI3373
I15
sI3374
I19
sI3375
I11
sI3376
I21
sI3377
I10
sI3378
I13
sI3379
I13
sI3380
I36
sI3381
I22
sI3382
I13
sI3383
I18
sI3384
I46
sI3385
I13
sI3386
I73
sI3387
I22
sI3388
I13
sI3389
I34
sI3390
I11
sI3391
I46
sI3392
I26
sI3393
I23
sI3394
I10
sI3395
I19
sI3396
I33
sI3397
I261
sI3398
I13
sI3399
I26
sI3400
I25
sI3401
I16
sI3402
I205
sI3403
I12
sI3404
I47
sI3405
I12
sI3406
I117
sI3407
I22
sI3408
I25
sI3409
I24
sI3410
I30
sI3411
I19
sI3412
I23
sI3413
I14
sI3414
I19
sI3415
I13
sI3416
I21
sI3417
I32
sI3418
I54
sI3419
I19
sI3420
I16
sI3421
I26
sI3422
I41
sI3423
I145
sI3424
I14
sI3425
I10
sI3426
I15
sI3427
I12
sI3428
I54
sI3429
I15
sI3430
I19
sI3431
I25
sI3432
I94
sI3433
I11
sI3434
I15
sI3435
I11
sI3436
I18
sI3437
I49
sI3438
I13
sI3439
I35
sI3440
I22
sI3441
I127
sI3442
I82
sI3443
I13
sI3444
I10
sI3445
I51
sI3446
I20
sI3447
I56
sI3448
I133
sI3449
I71
sI3450
I116
sI3451
I25
sI3452
I15
sI3453
I21
sI3454
I19
sI3455
I28
sI3456
I15
sI3457
I40
sI3458
I22
sI3459
I26
sI3460
I18
sI3461
I36
sI3462
I13
sI3463
I14
sI3464
I29
sI3465
I92
sI3466
I140
sI3467
I17
sI3468
I31
sI3469
I19
sI3470
I55
sI3471
I14
sI3472
I52
sI3473
I30
sI3474
I49
sI3475
I25
sI3476
I22
sI3477
I17
sI3478
I11
sI3479
I11
sI3480
I10
sI3481
I24
sI3482
I11
sI3483
I26
sI3484
I27
sI3485
I17
sI3486
I19
sI3487
I10
sI3488
I35
sI3489
I19
sI3490
I12
sI3491
I20
sI3492
I11
sI3493
I28
sI3494
I22
sI3495
I39
sI3496
I11
sI3497
I108
sI3498
I11
sI3499
I53
sI3500
I44
sI3501
I460
sI3502
I13
sI3503
I82
sI3504
I35
sI3505
I33
sI3506
I31
sI3507
I31
sI3508
I19
sI3509
I72
sI3510
I67
sI3511
I13
sI3512
I49
sI3513
I41
sI3514
I15
sI3515
I149
sI3516
I21
sI3517
I12
sI3518
I10
sI3519
I20
sI3520
I10
sI3521
I395
sI3522
I22
sI3523
I23
sI3524
I20
sI3525
I92
sI3526
I10
sI3527
I20
sI3528
I22
sI3529
I37
sI3530
I20
sI3531
I27
sI3532
I12
sI3533
I10
sI3534
I45
sI3535
I22
sI3536
I16
sI3537
I25
sI3538
I20
sI3539
I14
sI3540
I24
sI3541
I10
sI3542
I35
sI3543
I175
sI3544
I10
sI3545
I15
sI3546
I18
sI3547
I20
sI3548
I54
sI3549
I17
sI3550
I30
sI3551
I128
sI3552
I146
sI3553
I76
sI3554
I28
sI3555
I11
sI3556
I18
sI3557
I14
sI3558
I12
sI3559
I22
sI3560
I15
sI3561
I29
sI3562
I14
sI3563
I90
sI3564
I13
sI3565
I15
sI3566
I17
sI3567
I114
sI3568
I11
sI3569
I17
sI3570
I134
sI3571
I185
sI3572
I18
sI3573
I11
sI3574
I12
sI3575
I21
sI3576
I86
sI3577
I120
sI3578
I11
sI3579
I32
sI3580
I22
sI3581
I11
sI3582
I68
sI3583
I71
sI3584
I13
sI3585
I27
sI3586
I18
sI3587
I42
sI3588
I15
sI3589
I14
sI3590
I18
sI3591
I11
sI3592
I275
sI3593
I34
sI3594
I14
sI3595
I13
sI3596
I11
sI3597
I34
sI3598
I24
sI3599
I12
sI3600
I32
sI3601
I36
sI3602
I42
sI3603
I445
sI3604
I11
sI3605
I13
sI3606
I146
sI3607
I15
sI3608
I10
sI3609
I19
sI3610
I10
sI3611
I76
sI3612
I11
sI3613
I22
sI3614
I97
sI3615
I19
sI3616
I52
sI3617
I80
sI3618
I14
sI3619
I41
sI3620
I10
sI3621
I16
sI3622
I13
sI3623
I18
sI3624
I39
sI3625
I18
sI3626
I18
sI3627
I42
sI3628
I30
sI3629
I47
sI3630
I10
sI3631
I46
sI3632
I47
sI3633
I28
sI3634
I11
sI3635
I10
sI3636
I21
sI3637
I15
sI3638
I21
sI3639
I15
sI3640
I15
sI3641
I50
sI3642
I15
sI3643
I13
sI3644
I15
sI3645
I45
sI3646
I70
sI3647
I11
sI3648
I36
sI3649
I92
sI3650
I17
sI3651
I12
sI3652
I138
sI3653
I11
sI3654
I25
sI3655
I57
sI3656
I33
sI3657
I12
sI3658
I89
sI3659
I15
sI3660
I42
sI3661
I88
sI3662
I13
sI3663
I60
sI3664
I34
sI3665
I29
sI3666
I21
sI3667
I33
sI3668
I43
sI3669
I120
sI3670
I10
sI3671
I24
sI3672
I18
sI3673
I15
sI3674
I16
sI3675
I42
sI3676
I25
sI3677
I35
sI3678
I28
sI3679
I20
sI3680
I22
sI3681
I30
sI3682
I50
sI3683
I22
sI3684
I49
sI3685
I41
sI3686
I11
sI3687
I212
sI3688
I26
sI3689
I13
sI3690
I25
sI3691
I23
sI3692
I78
sI3693
I28
sI3694
I31
sI3695
I16
sI3696
I33
sI3697
I21
sI3698
I13
sI3699
I43
sI3700
I80
sI3701
I11
sI3702
I11
sI3703
I17
sI3704
I16
sI3705
I12
sI3706
I118
sI3707
I104
sI3708
I20
sI3709
I24
sI3710
I75
sI3711
I17
sI3712
I18
sI3713
I34
sI3714
I20
sI3715
I11
sI3716
I16
sI3717
I18
sI3718
I17
sI3719
I14
sI3720
I15
sI3721
I32
sI3722
I51
sI3723
I76
sI3724
I27
sI3725
I12
sI3726
I18
sI3727
I20
sI3728
I41
sI3729
I22
sI3730
I27
sI3731
I11
sI3732
I13
sI3733
I47
sI3734
I19
sI3735
I13
sI3736
I42
sI3737
I21
sI3738
I23
sI3739
I134
sI3740
I29
sI3741
I47
sI3742
I18
sI3743
I34
sI3744
I29
sI3745
I54
sI3746
I73
sI3747
I30
sI3748
I98
sI3749
I106
sI3750
I34
sI3751
I10
sI3752
I13
sI3753
I31
sI3754
I52
sI3755
I17
sI3756
I23
sI3757
I256
sI3758
I18
sI3759
I147
sI3760
I14
sI3761
I22
sI3762
I16
sI3763
I54
sI3764
I16
sI3765
I27
sI3766
I12
sI3767
I16
sI3768
I32
sI3769
I12
sI3770
I24
sI3771
I30
sI3772
I40
sI3773
I23
sI3774
I15
sI3775
I26
sI3776
I10
sI3777
I20
sI3778
I110
sI3779
I24
sI3780
I25
sI3781
I37
sI3782
I14
sI3783
I33
sI3784
I58
sI3785
I16
sI3786
I23
sI3787
I10
sI3788
I31
sI3789
I109
sI3790
I13
sI3791
I13
sI3792
I23
sI3793
I11
sI3794
I14
sI3795
I10
sI3796
I20
sI3797
I103
sI3798
I20
sI3799
I15
sI3800
I12
sI3801
I86
sI3802
I17
sI3803
I26
sI3804
I10
sI3805
I47
sI3806
I35
sI3807
I29
sI3808
I35
sI3809
I13
sI3810
I12
sI3811
I16
sI3812
I28
sI3813
I18
sI3814
I13
sI3815
I19
sI3816
I35
sI3817
I16
sI3818
I55
sI3819
I21
sI3820
I129
sI3821
I17
sI3822
I217
sI3823
I46
sI3824
I10
sI3825
I18
sI3826
I18
sI3827
I13
sI3828
I30
sI3829
I82
sI3830
I15
sI3831
I12
sI3832
I41
sI3833
I22
sI3834
I152
sI3835
I12
sI3836
I69
sI3837
I23
sI3838
I57
sI3839
I13
sI3840
I18
sI3841
I11
sI3842
I10
sI3843
I25
sI3844
I19
sI3845
I24
sI3846
I23
sI3847
I24
sI3848
I66
sI3849
I27
sI3850
I12
sI3851
I96
sI3852
I43
sI3853
I306
sI3854
I14
sI3855
I39
sI3856
I80
sI3857
I58
sI3858
I10
sI3859
I174
sI3860
I20
sI3861
I15
sI3862
I12
sI3863
I44
sI3864
I37
sI3865
I16
sI3866
I59
sI3867
I27
sI3868
I11
sI3869
I46
sI3870
I16
sI3871
I60
sI3872
I47
sI3873
I111
sI3874
I80
sI3875
I35
sI3876
I11
sI3877
I38
sI3878
I12
sI3879
I10
sI3880
I16
sI3881
I14
sI3882
I98
sI3883
I89
sI3884
I45
sI3885
I21
sI3886
I27
sI3887
I73
sI3888
I46
sI3889
I30
sI3890
I130
sI3891
I155
sI3892
I10
sI3893
I26
sI3894
I55
sI3895
I10
sI3896
I20
sI3897
I16
sI3898
I65
sI3899
I27
sI3900
I127
sI3901
I37
sI3902
I26
sI3903
I11
sI3904
I33
sI3905
I12
sI3906
I37
sI3907
I10
sI3908
I11
sI3909
I14
sI3910
I35
sI3911
I44
sI3912
I22
sI3913
I11
sI3914
I19
sI3915
I65
sI3916
I29
sI3917
I24
sI3918
I14
sI3919
I64
sI3920
I28
sI3921
I31
sI3922
I17
sI3923
I25
sI3924
I26
sI3925
I17
sI3926
I17
sI3927
I148
sI3928
I12
sI3929
I51
sI3930
I15
sI3931
I65
sI3932
I65
sI3933
I14
sI3934
I26
sI3935
I76
sI3936
I20
sI3937
I10
sI3938
I10
sI3939
I16
sI3940
I21
sI3941
I43
sI3942
I10
sI3943
I39
sI3944
I108
sI3945
I11
sI3946
I46
sI3947
I10
sI3948
I32
sI3949
I16
sI3950
I50
sI3951
I24
sI3952
I11
sI3953
I37
sI3954
I16
sI3955
I31
sI3956
I16
sI3957
I24
sI3958
I28
sI3959
I14
sI3960
I20
sI3961
I10
sI3962
I34
sI3963
I21
sI3964
I31
sI3965
I10
sI3966
I21
sI3967
I25
sI3968
I135
sI3969
I84
sI3970
I86
sI3971
I10
sI3972
I27
sI3973
I10
sI3974
I71
sI3975
I11
sI3976
I25
sI3977
I19
sI3978
I19
sI3979
I63
sI3980
I62
sI3981
I32
sI3982
I45
sI3983
I19
sI3984
I11
sI3985
I14
sI3986
I24
sI3987
I44
sI3988
I10
sI3989
I14
sI3990
I23
sI3991
I46
sI3992
I21
sI3993
I50
sI3994
I99
sI3995
I16
sI3996
I10
sI3997
I10
sI3998
I33
sI3999
I12
sI4000
I125
sI4001
I61
sI4002
I19
sI4003
I22
sI4004
I28
sI4005
I12
sI4006
I27
sI4007
I12
sI4008
I28
sI4009
I108
sI4010
I10
sI4011
I11
sI4012
I40
sI4013
I70
sI4014
I41
sI4015
I14
sI4016
I48
sI4017
I19
sI4018
I72
sI4019
I11
sI4020
I17
sI4021
I70
sI4022
I41
sI4023
I57
sI4024
I49
sI4025
I12
sI4026
I40
sI4027
I61
sI4028
I11
sI4029
I39
sI4030
I20
sI4031
I61
sI4032
I10
sI4033
I212
sI4034
I10
sI4035
I28
sI4036
I58
sI4037
I126
sI4038
I20
sI4039
I102
sI4040
I126
sI4041
I25
sI4042
I24
sI4043
I21
sI4044
I13
sI4045
I25
sI4046
I13
sI4047
I280
sI4048
I37
sI4049
I111
sI4050
I14
sI4051
I125
sI4052
I13
sI4053
I12
sI4054
I179
sI4055
I12
sI4056
I30
sI4057
I16
sI4058
I29
sI4059
I19
sI4060
I21
sI4061
I32
sI4062
I11
sI4063
I24
sI4064
I14
sI4065
I13
sI4066
I11
sI4067
I108
sI4068
I24
sI4069
I66
sI4070
I27
sI4071
I34
sI4072
I25
sI4073
I48
sI4074
I32
sI4075
I23
sI4076
I63
sI4077
I41
sI4078
I22
sI4079
I55
sI4080
I44
sI4081
I11
sI4082
I51
sI4083
I59
sI4084
I26
sI4085
I18
sI4086
I30
sI4087
I10
sI4088
I33
sI4089
I32
sI4090
I41
sI4091
I14
sI4092
I14
sI4093
I14
sI4094
I100
sI4095
I24
sI4096
I78
sI4097
I126
sI4098
I18
sI4099
I65
sI4100
I21
sI4101
I67
sI4102
I11
sI4103
I53
sI4104
I26
sI4105
I16
sI4106
I35
sI4107
I19
sI4108
I38
sI4109
I42
sI4110
I31
sI4111
I20
sI4112
I110
sI4113
I20
sI4114
I16
sI4115
I38
sI4116
I10
sI4117
I26
sI4118
I12
sI4119
I15
sI4120
I29
sI4121
I206
sI4122
I23
sI4123
I21
sI4124
I67
sI4125
I16
sI4126
I12
sI4127
I35
sI4128
I13
sI4129
I23
sI4130
I201
sI4131
I14
sI4132
I26
sI4133
I20
sI4134
I10
sI4135
I10
sI4136
I184
sI4137
I23
sI4138
I16
sI4139
I36
sI4140
I11
sI4141
I45
sI4142
I20
sI4143
I82
sI4144
I19
sI4145
I17
sI4146
I12
sI4147
I92
sI4148
I58
sI4149
I51
sI4150
I16
sI4151
I32
sI4152
I10
sI4153
I65
sI4154
I14
sI4155
I34
sI4156
I16
sI4157
I28
sI4158
I10
sI4159
I13
sI4160
I28
sI4161
I25
sI4162
I18
sI4163
I64
sI4164
I61
sI4165
I15
sI4166
I11
sI4167
I11
sI4168
I11
sI4169
I31
sI4170
I63
sI4171
I248
sI4172
I13
sI4173
I13
sI4174
I32
sI4175
I12
sI4176
I128
sI4177
I13
sI4178
I12
sI4179
I149
sI4180
I38
sI4181
I49
sI4182
I12
sI4183
I16
sI4184
I430
sI4185
I13
sI4186
I27
sI4187
I35
sI4188
I20
sI4189
I145
sI4190
I16
sI4191
I26
sI4192
I38
sI4193
I138
sI4194
I14
sI4195
I51
sI4196
I25
sI4197
I26
sI4198
I47
sI4199
I32
sI4200
I11
sI4201
I57
sI4202
I25
sI4203
I11
sI4204
I12
sI4205
I43
sI4206
I11
sI4207
I35
sI4208
I12
sI4209
I10
sI4210
I15
sI4211
I56
sI4212
I28
sI4213
I19
sI4214
I21
sI4215
I22
sI4216
I16
sI4217
I10
sI4218
I10
sI4219
I30
sI4220
I19
sI4221
I158
sI4222
I13
sI4223
I11
sI4224
I61
sI4225
I40
sI4226
I20
sI4227
I12
sI4228
I264
sI4229
I12
sI4230
I25
sI4231
I10
sI4232
I22
sI4233
I11
sI4234
I54
sI4235
I11
sI4236
I314
sI4237
I207
sI4238
I11
sI4239
I38
sI4240
I61
sI4241
I82
sI4242
I24
sI4243
I39
sI4244
I11
sI4245
I12
sI4246
I24
sI4247
I19
sI4248
I12
sI4249
I14
sI4250
I15
sI4251
I11
sI4252
I16
sI4253
I10
sI4254
I17
sI4255
I47
sI4256
I22
sI4257
I19
sI4258
I17
sI4259
I12
sI4260
I13
sI4261
I11
sI4262
I11
sI4263
I21
sI4264
I10
sI4265
I10
sI4266
I14
sI4267
I12
sI4268
I21
sI4269
I14
sI4270
I63
sI4271
I12
sI4272
I14
sI4273
I24
sI4274
I18
sI4275
I20
sI4276
I10
sI4277
I57
sI4278
I71
sI4279
I12
sI4280
I23
sI4281
I11
sI4282
I18
sI4283
I42
sI4284
I155
sI4285
I18
sI4286
I19
sI4287
I22
sI4288
I13
sI4289
I28
sI4290
I72
sI4291
I18
sI4292
I88
sI4293
I80
sI4294
I52
sI4295
I79
sI4296
I13
sI4297
I68
sI4298
I10
sI4299
I27
sI4300
I11
sI4301
I82
sI4302
I44
sI4303
I10
sI4304
I23
sI4305
I189
sI4306
I33
sI4307
I15
sI4308
I11
sI4309
I21
sI4310
I48
sI4311
I77
sI4312
I21
sI4313
I12
sI4314
I19
sI4315
I319
sI4316
I15
sI4317
I16
sI4318
I24
sI4319
I32
sI4320
I21
sI4321
I12
sI4322
I12
sI4323
I44
sI4324
I14
sI4325
I19
sI4326
I17
sI4327
I11
sI4328
I13
sI4329
I28
sI4330
I47
sI4331
I17
sI4332
I11
sI4333
I14
sI4334
I14
sI4335
I73
sI4336
I11
sI4337
I18
sI4338
I12
sI4339
I16
sI4340
I140
sI4341
I21
sI4342
I76
sI4343
I46
sI4344
I10
sI4345
I75
sI4346
I14
sI4347
I96
sI4348
I25
sI4349
I16
sI4350
I21
sI4351
I121
sI4352
I18
sI4353
I17
sI4354
I10
sI4355
I25
sI4356
I20
sI4357
I10
sI4358
I10
sI4359
I25
sI4360
I12
sI4361
I50
sI4362
I54
sI4363
I54
sI4364
I10
sI4365
I21
sI4366
I18
sI4367
I12
sI4368
I21
sI4369
I175
sI4370
I70
sI4371
I58
sI4372
I43
sI4373
I55
sI4374
I154
sI4375
I34
sI4376
I51
sI4377
I164
sI4378
I38
sI4379
I24
sI4380
I29
sI4381
I81
sI4382
I11
sI4383
I19
sI4384
I41
sI4385
I13
sI4386
I25
sI4387
I34
sI4388
I33
sI4389
I11
sI4390
I11
sI4391
I29
sI4392
I10
sI4393
I10
sI4394
I12
sI4395
I34
sI4396
I12
sI4397
I63
sI4398
I31
sI4399
I14
sI4400
I17
sI4401
I74
sI4402
I12
sI4403
I15
sI4404
I19
sI4405
I16
sI4406
I11
sI4407
I39
sI4408
I32
sI4409
I18
sI4410
I15
sI4411
I73
sI4412
I22
sI4413
I43
sI4414
I10
sI4415
I18
sI4416
I17
sI4417
I15
sI4418
I11
sI4419
I20
sI4420
I31
sI4421
I10
sI4422
I11
sI4423
I10
sI4424
I40
sI4425
I11
sI4426
I151
sI4427
I12
sI4428
I32
sI4429
I16
sI4430
I14
sI4431
I14
sI4432
I12
sI4433
I10
sI4434
I41
sI4435
I23
sI4436
I11
sI4437
I125
sI4438
I23
sI4439
I24
sI4440
I97
sI4441
I12
sI4442
I165
sI4443
I373
sI4444
I123
sI4445
I23
sI4446
I11
sI4447
I11
sI4448
I10
sI4449
I32
sI4450
I13
sI4451
I13
sI4452
I14
sI4453
I13
sI4454
I15
sI4455
I26
sI4456
I17
sI4457
I11
sI4458
I49
sI4459
I48
sI4460
I32
sI4461
I89
sI4462
I48
sI4463
I23
sI4464
I13
sI4465
I86
sI4466
I176
sI4467
I10
sI4468
I22
sI4469
I68
sI4470
I10
sI4471
I13
sI4472
I16
sI4473
I18
sI4474
I11
sI4475
I29
sI4476
I14
sI4477
I12
sI4478
I22
sI4479
I67
sI4480
I31
sI4481
I12
sI4482
I35
sI4483
I25
sI4484
I29
sI4485
I29
sI4486
I11
sI4487
I52
sI4488
I32
sI4489
I22
sI4490
I10
sI4491
I12
sI4492
I15
sI4493
I19
sI4494
I26
sI4495
I10
sI4496
I27
sI4497
I14
sI4498
I18
sI4499
I12
sI4500
I248
sI4501
I75
sI4502
I74
sI4503
I40
sI4504
I13
sI4505
I19
sI4506
I23
sI4507
I12
sI4508
I21
sI4509
I12
sI4510
I12
sI4511
I11
sI4512
I34
sI4513
I29
sI4514
I16
sI4515
I16
sI4516
I10
sI4517
I26
sI4518
I172
sI4519
I14
sI4520
I58
sI4521
I14
sI4522
I15
sI4523
I72
sI4524
I11
sI4525
I28
sI4526
I11
sI4527
I17
sI4528
I11
sI4529
I73
sI4530
I11
sI4531
I27
sI4532
I62
sI4533
I30
sI4534
I87
sI4535
I19
sI4536
I13
sI4537
I11
sI4538
I27
sI4539
I20
sI4540
I12
sI4541
I11
sI4542
I33
sI4543
I15
sI4544
I63
sI4545
I21
sI4546
I10
sI4547
I190
sI4548
I14
sI4549
I74
sI4550
I37
sI4551
I47
sI4552
I13
sI4553
I143
sI4554
I31
sI4555
I34
sI4556
I11
sI4557
I18
sI4558
I140
sI4559
I73
sI4560
I15
sI4561
I13
sI4562
I12
sI4563
I27
sI4564
I10
sI4565
I11
sI4566
I141
sI4567
I10
sI4568
I49
sI4569
I32
sI4570
I11
sI4571
I10
sI4572
I17
sI4573
I139
sI4574
I161
sI4575
I14
sI4576
I20
sI4577
I16
sI4578
I19
sI4579
I13
sI4580
I12
sI4581
I26
sI4582
I11
sI4583
I10
sI4584
I131
sI4585
I10
sI4586
I19
sI4587
I30
sI4588
I11
sI4589
I15
sI4590
I27
sI4591
I36
sI4592
I12
sI4593
I13
sI4594
I36
sI4595
I11
sI4596
I27
sI4597
I13
sI4598
I19
sI4599
I31
sI4600
I27
sI4601
I16
sI4602
I17
sI4603
I264
sI4604
I13
sI4605
I57
sI4606
I11
sI4607
I11
sI4608
I14
sI4609
I10
sI4610
I10
sI4611
I126
sI4612
I19
sI4613
I30
sI4614
I448
sI4615
I10
sI4616
I10
sI4617
I14
sI4618
I76
sI4619
I23
sI4620
I41
sI4621
I19
sI4622
I37
sI4623
I14
sI4624
I13
sI4625
I10
sI4626
I11
sI4627
I44
sI4628
I11
sI4629
I22
sI4630
I17
sI4631
I26
sI4632
I18
sI4633
I11
sI4634
I11
sI4635
I16
sI4636
I61
sI4637
I35
sI4638
I24
sI4639
I15
sI4640
I43
sI4641
I13
sI4642
I40
sI4643
I22
sI4644
I20
sI4645
I38
sI4646
I11
sI4647
I50
sI4648
I14
sI4649
I27
sI4650
I14
sI4651
I15
sI4652
I13
sI4653
I56
sI4654
I16
sI4655
I275
sI4656
I43
sI4657
I25
sI4658
I19
sI4659
I27
sI4660
I22
sI4661
I78
sI4662
I28
sI4663
I11
sI4664
I12
sI4665
I11
sI4666
I14
sI4667
I26
sI4668
I12
sI4669
I13
sI4670
I12
sI4671
I38
sI4672
I119
sI4673
I64
sI4674
I133
sI4675
I15
sI4676
I87
sI4677
I22
sI4678
I24
sI4679
I43
sI4680
I21
sI4681
I31
sI4682
I23
sI4683
I71
sI4684
I36
sI4685
I27
sI4686
I49
sI4687
I177
sI4688
I40
sI4689
I15
sI4690
I84
sI4691
I16
sI4692
I24
sI4693
I40
sI4694
I176
sI4695
I17
sI4696
I11
sI4697
I134
sI4698
I10
sI4699
I15
sI4700
I80
sI4701
I52
sI4702
I12
sI4703
I23
sI4704
I10
sI4705
I25
sI4706
I10
sI4707
I16
sI4708
I11
sI4709
I70
sI4710
I18
sI4711
I15
sI4712
I18
sI4713
I146
sI4714
I16
sI4715
I17
sI4716
I108
sI4717
I14
sI4718
I246
sI4719
I10
sI4720
I12
sI4721
I14
sI4722
I18
sI4723
I10
sI4724
I66
sI4725
I10
sI4726
I26
sI4727
I32
sI4728
I14
sI4729
I21
sI4730
I15
sI4731
I11
sI4732
I14
sI4733
I11
sI4734
I24
sI4735
I13
sI4736
I13
sI4737
I22
sI4738
I10
sI4739
I22
sI4740
I44
sI4741
I10
sI4742
I23
sI4743
I42
sI4744
I25
sI4745
I24
sI4746
I16
sI4747
I14
sI4748
I22
sI4749
I350
sI4750
I89
sI4751
I24
sI4752
I19
sI4753
I21
sI4754
I138
sI4755
I15
sI4756
I15
sI4757
I43
sI4758
I37
sI4759
I30
sI4760
I138
sI4761
I24
sI4762
I21
sI4763
I66
sI4764
I17
sI4765
I11
sI4766
I16
sI4767
I13
sI4768
I180
sI4769
I12
sI4770
I113
sI4771
I22
sI4772
I10
sI4773
I13
sI4774
I31
sI4775
I26
sI4776
I14
sI4777
I10
sI4778
I33
sI4779
I10
sI4780
I60
sI4781
I55
sI4782
I22
sI4783
I11
sI4784
I105
sI4785
I14
sI4786
I13
sI4787
I22
sI4788
I10
sI4789
I22
sI4790
I59
sI4791
I73
sI4792
I27
sI4793
I12
sI4794
I41
sI4795
I23
sI4796
I24
sI4797
I12
sI4798
I12
sI4799
I27
sI4800
I30
sI4801
I43
sI4802
I10
sI4803
I20
sI4804
I36
sI4805
I32
sI4806
I44
sI4807
I47
sI4808
I23
sI4809
I17
sI4810
I10
sI4811
I19
sI4812
I23
sI4813
I18
sI4814
I14
sI4815
I16
sI4816
I13
sI4817
I73
sI4818
I13
sI4819
I14
sI4820
I27
sI4821
I185
sI4822
I31
sI4823
I30
sI4824
I153
sI4825
I41
sI4826
I20
sI4827
I155
sI4828
I11
sI4829
I16
sI4830
I22
sI4831
I13
sI4832
I20
sI4833
I16
sI4834
I81
sI4835
I25
sI4836
I19
sI4837
I11
sI4838
I35
sI4839
I10
sI4840
I199
sI4841
I11
sI4842
I32
sI4843
I36
sI4844
I31
sI4845
I13
sI4846
I16
sI4847
I54
sI4848
I20
sI4849
I53
sI4850
I22
sI4851
I21
sI4852
I54
sI4853
I32
sI4854
I33
sI4855
I14
sI4856
I12
sI4857
I23
sI4858
I11
sI4859
I13
sI4860
I108
sI4861
I17
sI4862
I17
sI4863
I14
sI4864
I50
sI4865
I85
sI4866
I138
sI4867
I38
sI4868
I15
sI4869
I10
sI4870
I153
sI4871
I62
sI4872
I16
sI4873
I34
sI4874
I32
sI4875
I41
sI4876
I10
sI4877
I20
sI4878
I27
sI4879
I12
sI4880
I19
sI4881
I25
sI4882
I78
sI4883
I30
sI4884
I14
sI4885
I265
sI4886
I34
sI4887
I12
sI4888
I16
sI4889
I123
sI4890
I130
sI4891
I23
sI4892
I19
sI4893
I28
sI4894
I24
sI4895
I11
sI4896
I11
sI4897
I15
sI4898
I10
sI4899
I17
sI4900
I23
sI4901
I11
sI4902
I159
sI4903
I46
sI4904
I18
sI4905
I24
sI4906
I14
sI4907
I17
sI4908
I13
sI4909
I105
sI4910
I329
sI4911
I31
sI4912
I10
sI4913
I82
sI4914
I16
sI4915
I10
sI4916
I34
sI4917
I25
sI4918
I27
sI4919
I55
sI4920
I25
sI4921
I12
sI4922
I27
sI4923
I11
sI4924
I11
sI4925
I105
sI4926
I61
sI4927
I15
sI4928
I11
sI4929
I39
sI4930
I15
sI4931
I62
sI4932
I44
sI4933
I58
sI4934
I16
sI4935
I10
sI4936
I12
sI4937
I30
sI4938
I41
sI4939
I20
sI4940
I25
sI4941
I15
sI4942
I13
sI4943
I24
sI4944
I24
sI4945
I29
sI4946
I110
sI4947
I32
sI4948
I56
sI4949
I14
sI4950
I41
sI4951
I60
sI4952
I20
sI4953
I22
sI4954
I39
sI4955
I16
sI4956
I28
sI4957
I26
sI4958
I22
sI4959
I15
sI4960
I13
sI4961
I23
sI4962
I22
sI4963
I49
sI4964
I37
sI4965
I11
sI4966
I10
sI4967
I19
sI4968
I115
sI4969
I10
sI4970
I35
sI4971
I12
sI4972
I11
sI4973
I16
sI4974
I12
sI4975
I10
sI4976
I16
sI4977
I12
sI4978
I14
sI4979
I11
sI4980
I23
sI4981
I472
sI4982
I32
sI4983
I25
sI4984
I19
sI4985
I17
sI4986
I18
sI4987
I22
sI4988
I117
sI4989
I47
sI4990
I13
sI4991
I291
sI4992
I13
sI4993
I17
sI4994
I11
sI4995
I24
sI4996
I40
ssS'num_nnz'
p5008
I303462
sS'id2token'
p5009
(dp5010
sS'num_pos'
p5011
I539785
sb.